     VMA      LMA     Size Align Out     In      Symbol
       0        0 80200000     1 . = 0x80200000
80200000 80200000     1486     4 .text
80200000 80200000        c     4         /home/famous282/1000linesOS/kernel/target/riscv32imac-unknown-none-elf/debug/deps/kernel-dfa3df23995ef8b4.24qdkavsqt2e6ckh6joba0u2j.0yvtx01.rcgu.o:(.text.boot)
80200000 80200000        0     1                 .Lpcrel_hi0
80200000 80200000        0     1                 $x
80200000 80200000        c     1                 boot
8020000c 8020000c       96     4         /home/famous282/1000linesOS/kernel/target/riscv32imac-unknown-none-elf/debug/deps/kernel-dfa3df23995ef8b4.24qdkavsqt2e6ckh6joba0u2j.0yvtx01.rcgu.o:(.text)
8020000c 8020000c        0     1                 trap_handler
802000a2 802000a2       4c     2         /home/famous282/1000linesOS/kernel/target/riscv32imac-unknown-none-elf/debug/deps/kernel-dfa3df23995ef8b4.24qdkavsqt2e6ckh6joba0u2j.0yvtx01.rcgu.o:(.text._ZN6kernel6kernel12proc_a_entry17h499cf061b07a7cf1E)
802000a2 802000a2       4c     1                 kernel::kernel::proc_a_entry::h499cf061b07a7cf1
802000a2 802000a2        0     1                 .L0 
802000a2 802000a2        0     1                 .L0 
802000a2 802000a2        0     1                 $x
802000a2 802000a2        0     1                 .L0 
802000a8 802000a8        0     1                 .L0 
802000c6 802000c6        0     1                 .L0 
802000e6 802000e6        0     1                 .L0 
802000e8 802000e8        0     1                 .L0 
802000ea 802000ea        0     1                 .L0 
802000ee 802000ee        0     1                 .L0 
802000ee 802000ee       4c     2         /home/famous282/1000linesOS/kernel/target/riscv32imac-unknown-none-elf/debug/deps/kernel-dfa3df23995ef8b4.24qdkavsqt2e6ckh6joba0u2j.0yvtx01.rcgu.o:(.text._ZN6kernel6kernel12proc_b_entry17h9ea391ce5fc2f741E)
802000ee 802000ee       4c     1                 kernel::kernel::proc_b_entry::h9ea391ce5fc2f741
802000ee 802000ee        0     1                 .L0 
802000ee 802000ee        0     1                 .L0 
802000ee 802000ee        0     1                 $x
802000ee 802000ee        0     1                 .L0 
802000f4 802000f4        0     1                 .L0 
80200112 80200112        0     1                 .L0 
80200132 80200132        0     1                 .L0 
80200134 80200134        0     1                 .L0 
80200136 80200136        0     1                 .L0 
8020013a 8020013a        0     1                 .L0 
8020013a 8020013a       14     2         /home/famous282/1000linesOS/kernel/target/riscv32imac-unknown-none-elf/debug/deps/kernel-dfa3df23995ef8b4.24qdkavsqt2e6ckh6joba0u2j.0yvtx01.rcgu.o:(.text._ZN6kernel6kernel7putchar17h6820f44ab32fcf5cE)
8020013a 8020013a        0     1                 .L0 
8020013a 8020013a        0     1                 .L0 
8020013a 8020013a        0     1                 $x
8020013a 8020013a        0     1                 .L0 
8020013a 8020013a       14     1                 kernel::kernel::putchar::h6820f44ab32fcf5c
8020014e 8020014e        0     1                 .L0 
8020014e 8020014e       d4     2         /home/famous282/1000linesOS/kernel/target/riscv32imac-unknown-none-elf/debug/deps/kernel-dfa3df23995ef8b4.24qdkavsqt2e6ckh6joba0u2j.0yvtx01.rcgu.o:(.text.kernel_main)
8020014e 8020014e        0     1                 .L0 
8020014e 8020014e        0     1                 .L0 
8020014e 8020014e        0     1                 $x
8020014e 8020014e        0     1                 .L0 
8020014e 8020014e       d4     1                 kernel_main
80200152 80200152        0     1                 .L0 
80200152 80200152        0     1                 .L0 
80200176 80200176        0     1                 .L0 
80200176 80200176        0     1                 .L0 
8020017a 8020017a        0     1                 .L0 
8020017c 8020017c        0     1                 .L0 
8020017c 8020017c        0     1                 .L0 
80200180 80200180        0     1                 .L0 
80200182 80200182        0     1                 .L0 
80200182 80200182        0     1                 .L0 
80200186 80200186        0     1                 .L0 
80200186 80200186        0     1                 .L0 
80200192 80200192        0     1                 .L0 
802001ba 802001ba        0     1                 .L0 
802001c0 802001c0        0     1                 .L0 
80200222 80200222        0     1                 .L0 
80200222 80200222       8e     2         /home/famous282/1000linesOS/kernel/target/riscv32imac-unknown-none-elf/debug/deps/kernel-dfa3df23995ef8b4.3lszhsxzyn1vde1rs4win02um.0yvtx01.rcgu.o:(.text._ZN4core3fmt5Write10write_char17hdd5523afddb1ab42E.llvm.6829158211990935668)
80200222 80200222        0     1                 .L0 
80200222 80200222        0     1                 .L0 
80200222 80200222        0     1                 $x
80200222 80200222        0     1                 .L0 
80200222 80200222       8e     1                 core::fmt::Write::write_char::hdd5523afddb1ab42 (.llvm.6829158211990935668)
8020022c 8020022c        0     1                 .L0 
8020022c 8020022c        0     1                 .L0 
80200230 80200230        0     1                 .L0 
80200230 80200230        0     1                 .L0 
80200236 80200236        0     1                 .L0 
80200238 80200238        0     1                 .L0 
80200238 80200238        0     1                 .L0 
8020023c 8020023c        0     1                 .L0 
80200244 80200244        0     1                 .L0 
80200248 80200248        0     1                 .L0 
80200248 80200248        0     1                 .L0 
8020024a 8020024a        0     1                 .L0 
80200258 80200258        0     1                 .L0 
8020025a 8020025a        0     1                 .L0 
8020025e 8020025e        0     1                 .L0 
8020025e 8020025e        0     1                 .L0 
80200262 80200262        0     1                 .L0 
8020026a 8020026a        0     1                 .L0 
8020026a 8020026a        0     1                 .L0 
8020026c 8020026c        0     1                 .L0 
8020027e 8020027e        0     1                 .L0 
80200280 80200280        0     1                 .L0 
8020028e 8020028e        0     1                 .L0 
8020028e 8020028e        0     1                 .L0 
802002a0 802002a0        0     1                 .L0 
802002b0 802002b0        0     1                 .L0 
802002b0 802002b0       14     2         /home/famous282/1000linesOS/kernel/target/riscv32imac-unknown-none-elf/debug/deps/kernel-dfa3df23995ef8b4.3lszhsxzyn1vde1rs4win02um.0yvtx01.rcgu.o:(.text._ZN4core3fmt5Write9write_fmt17h495146c7c6b4fb2aE)
802002b0 802002b0        0     1                 .L0 
802002b0 802002b0        0     1                 .L0 
802002b0 802002b0        0     1                 $x
802002b0 802002b0        0     1                 .L0 
802002b0 802002b0       14     1                 core::fmt::Write::write_fmt::h495146c7c6b4fb2a
802002b4 802002b4        0     1                 .L0 
802002c4 802002c4        0     1                 .L0 
802002c4 802002c4        a     2         /home/famous282/1000linesOS/kernel/target/riscv32imac-unknown-none-elf/debug/deps/kernel-dfa3df23995ef8b4.4ftrnxq5k2ijxu6ko4fxfrcj8.0yvtx01.rcgu.o:(.text._ZN44_$LT$$RF$T$u20$as$u20$core..fmt..Display$GT$3fmt17h4087c62fb84bccbeE)
802002c4 802002c4        0     1                 .L0 
802002c4 802002c4        0     1                 .L0 
802002c4 802002c4        0     1                 $x
802002c4 802002c4        0     1                 .L0 
802002c4 802002c4        a     1                 _$LT$$RF$T$u20$as$u20$core..fmt..Display$GT$::fmt::h4087c62fb84bccbe
802002d0 802002d0       46     4         /home/famous282/1000linesOS/kernel/target/riscv32imac-unknown-none-elf/debug/deps/kernel-dfa3df23995ef8b4.63ptxjvpldbz03i077ow9897u.0yvtx01.rcgu.o:(.text._ZN6kernel7process14switch_context17ha0dfa133835f2d04E)
802002d0 802002d0        0     1                 $x
802002d0 802002d0       46     1                 kernel::process::switch_context::ha0dfa133835f2d04
80200316 80200316      19e     2         /home/famous282/1000linesOS/kernel/target/riscv32imac-unknown-none-elf/debug/deps/kernel-dfa3df23995ef8b4.63ptxjvpldbz03i077ow9897u.0yvtx01.rcgu.o:(.text._ZN6kernel7process5yeild17h1984ba883c53cc78E)
80200316 80200316        0     1                 .L0 
80200316 80200316        0     1                 .L0 
80200316 80200316        0     1                 $x
80200316 80200316        0     1                 .L0 
80200316 80200316      19e     1                 kernel::process::yeild::h1984ba883c53cc78
80200324 80200324        0     1                 .L0 
80200324 80200324        0     1                 .L0 
8020032c 8020032c        0     1                 .L0 
80200346 80200346        0     1                 .L0 
80200350 80200350        0     1                 .L0 
80200354 80200354        0     1                 .L0 
80200354 80200354        0     1                 .L0 
80200356 80200356        0     1                 .L0 
80200356 80200356        0     1                 .L0 
8020035c 8020035c        0     1                 .L0 
8020035c 8020035c        0     1                 .L0 
80200366 80200366        0     1                 .L0 
80200372 80200372        0     1                 .L0 
80200372 80200372        0     1                 .L0 
8020037c 8020037c        0     1                 .L0 
8020037c 8020037c        0     1                 .L0 
8020037e 8020037e        0     1                 .L0 
8020037e 8020037e        0     1                 .L0 
80200382 80200382        0     1                 .L0 
80200382 80200382        0     1                 .L0 
8020038a 8020038a        0     1                 .L0 
80200396 80200396        0     1                 .L0 
80200396 80200396        0     1                 .L0 
802003a0 802003a0        0     1                 .L0 
802003a0 802003a0        0     1                 .L0 
802003a2 802003a2        0     1                 .L0 
802003a2 802003a2        0     1                 .L0 
802003a6 802003a6        0     1                 .L0 
802003a6 802003a6        0     1                 .L0 
802003a8 802003a8        0     1                 .L0 
802003b2 802003b2        0     1                 .L0 
802003be 802003be        0     1                 .L0 
802003be 802003be        0     1                 .L0 
802003c8 802003c8        0     1                 .L0 
802003c8 802003c8        0     1                 .L0 
802003ca 802003ca        0     1                 .L0 
802003ca 802003ca        0     1                 .L0 
802003ce 802003ce        0     1                 .L0 
802003ce 802003ce        0     1                 .L0 
802003d0 802003d0        0     1                 .L0 
802003d8 802003d8        0     1                 .L0 
802003e4 802003e4        0     1                 .L0 
802003e4 802003e4        0     1                 .L0 
802003ee 802003ee        0     1                 .L0 
802003ee 802003ee        0     1                 .L0 
802003f0 802003f0        0     1                 .L0 
802003f0 802003f0        0     1                 .L0 
802003f4 802003f4        0     1                 .L0 
802003f4 802003f4        0     1                 .L0 
802003f6 802003f6        0     1                 .L0 
80200400 80200400        0     1                 .L0 
8020040c 8020040c        0     1                 .L0 
8020040c 8020040c        0     1                 .L0 
80200416 80200416        0     1                 .L0 
80200416 80200416        0     1                 .L0 
80200418 80200418        0     1                 .L0 
80200418 80200418        0     1                 .L0 
8020041c 8020041c        0     1                 .L0 
8020041c 8020041c        0     1                 .L0 
80200424 80200424        0     1                 .L0 
80200430 80200430        0     1                 .L0 
80200430 80200430        0     1                 .L0 
8020043a 8020043a        0     1                 .L0 
8020043a 8020043a        0     1                 .L0 
8020043c 8020043c        0     1                 .L0 
8020043c 8020043c        0     1                 .L0 
80200440 80200440        0     1                 .L0 
80200440 80200440        0     1                 .L0 
80200442 80200442        0     1                 .L0 
8020044a 8020044a        0     1                 .L0 
80200456 80200456        0     1                 .L0 
80200456 80200456        0     1                 .L0 
80200460 80200460        0     1                 .L0 
80200460 80200460        0     1                 .L0 
80200462 80200462        0     1                 .L0 
80200462 80200462        0     1                 .L0 
80200466 80200466        0     1                 .L0 
80200466 80200466        0     1                 .L0 
80200468 80200468        0     1                 .L0 
8020046c 8020046c        0     1                 .L0 
8020046c 8020046c        0     1                 .L0 
80200470 80200470        0     1                 .L0 
80200474 80200474        0     1                 .L0 
80200478 80200478        0     1                 .L0 
80200480 80200480        0     1                 .L0 
80200482 80200482        0     1                 .L0 
802004b4 802004b4        0     1                 .L0 
802004b4 802004b4        0     1                 .L0 
802004b4 802004b4      136     2         /home/famous282/1000linesOS/kernel/target/riscv32imac-unknown-none-elf/debug/deps/kernel-dfa3df23995ef8b4.63ptxjvpldbz03i077ow9897u.0yvtx01.rcgu.o:(.text._ZN6kernel7process7Process6create17h153b55220ac9b9d6E)
802004b4 802004b4        0     1                 .L0 
802004b4 802004b4        0     1                 .L0 
802004b4 802004b4        0     1                 $x
802004b4 802004b4        0     1                 .L0 
802004b4 802004b4      136     1                 kernel::process::Process::create::h153b55220ac9b9d6
802004be 802004be        0     1                 .L0 
802004be 802004be        0     1                 .L0 
802004f2 802004f2        0     1                 .L0 
802004f4 802004f4        0     1                 .L0 
802004f6 802004f6        0     1                 .L0 
802004fc 802004fc        0     1                 .L0 
802004fe 802004fe        0     1                 .L0 
80200500 80200500        0     1                 .L0 
80200502 80200502        0     1                 .L0 
80200504 80200504        0     1                 .L0 
80200506 80200506        0     1                 .L0 
80200508 80200508        0     1                 .L0 
8020050a 8020050a        0     1                 .L0 
8020050a 8020050a        0     1                 .L0 
80200514 80200514        0     1                 .L0 
80200518 80200518        0     1                 .L0 
8020051c 8020051c        0     1                 .L0 
8020051e 8020051e        0     1                 .L0 
80200522 80200522        0     1                 .L0 
80200528 80200528        0     1                 .L0 
8020052a 8020052a        0     1                 .L0 
80200532 80200532        0     1                 .L0 
80200534 80200534        0     1                 .L0 
8020053e 8020053e        0     1                 .L0 
80200546 80200546        0     1                 .L0 
8020054c 8020054c        0     1                 .L0 
80200550 80200550        0     1                 .L0 
80200554 80200554        0     1                 .L0 
80200556 80200556        0     1                 .L0 
8020055a 8020055a        0     1                 .L0 
8020055c 8020055c        0     1                 .L0 
80200560 80200560        0     1                 .L0 
80200564 80200564        0     1                 .L0 
80200572 80200572        0     1                 .L0 
80200576 80200576        0     1                 .L0 
8020057c 8020057c        0     1                 .L0 
8020058a 8020058a        0     1                 .L0 
802005b4 802005b4        0     1                 .L0 
802005b4 802005b4        0     1                 .L0 
802005ba 802005ba        0     1                 .L0 
802005ba 802005ba        0     1                 .L0 
802005ea 802005ea        0     1                 .L0 
802005ea 802005ea        0     1                 .L0 
802005ea 802005ea       4e     2         /home/famous282/1000linesOS/kernel/target/riscv32imac-unknown-none-elf/debug/deps/kernel-dfa3df23995ef8b4.aqtcxbzy89ozo9dgld6fn0q5h.0yvtx01.rcgu.o:(.text._RNvCs1Y7DaGC1cwg_7___rustc17rust_begin_unwind)
802005ea 802005ea        0     1                 .L0 
802005ea 802005ea        0     1                 .L0 
802005ea 802005ea        0     1                 $x
802005ea 802005ea        0     1                 .L0 
802005ea 802005ea       4e     1                 __rustc::rust_begin_unwind
802005f0 802005f0        0     1                 .L0 
80200608 80200608        0     1                 .L0 
80200614 80200614        0     1                 .L0 
80200632 80200632        0     1                 .L0 
80200638 80200638        0     1                 .L0 
80200638 80200638       18     2         /home/famous282/1000linesOS/kernel/target/riscv32imac-unknown-none-elf/debug/deps/kernel-dfa3df23995ef8b4.b1wfjfrxrno1sga9zbdwiqldk.0yvtx01.rcgu.o:(.text.unlikely._ZN4core4hint21unreachable_unchecked18precondition_check17h7c956ae76e5c4394E.llvm.9581896732707436221)
80200638 80200638        0     1                 .L0 
80200638 80200638        0     1                 .L0 
80200638 80200638        0     1                 $x
80200638 80200638        0     1                 .L0 
80200638 80200638       18     1                 core::hint::unreachable_unchecked::precondition_check::h7c956ae76e5c4394 (.llvm.9581896732707436221)
8020063a 8020063a        0     1                 .L0 
80200650 80200650        0     1                 .L0 
80200650 80200650      116     2         /home/famous282/1000linesOS/kernel/target/riscv32imac-unknown-none-elf/debug/deps/kernel-dfa3df23995ef8b4.b1wfjfrxrno1sga9zbdwiqldk.0yvtx01.rcgu.o:(.text._ZN60_$LT$kernel..common..Console$u20$as$u20$core..fmt..Write$GT$9write_str17h742bbae8cb24e93eE)
80200650 80200650        0     1                 .L0 
80200650 80200650        0     1                 .L0 
80200650 80200650        0     1                 $x
80200650 80200650        0     1                 .L0 
80200650 80200650      116     1                 _$LT$kernel..common..Console$u20$as$u20$core..fmt..Write$GT$::write_str::h742bbae8cb24e93e
80200662 80200662        0     1                 .L0 
80200662 80200662        0     1                 .L0 
80200664 80200664        0     1                 .L0 
80200664 80200664        0     1                 .L0 
80200682 80200682        0     1                 .L0 
80200686 80200686        0     1                 .L0 
8020068a 8020068a        0     1                 .L0 
8020068a 8020068a        0     1                 .L0 
8020068e 8020068e        0     1                 .L0 
80200690 80200690        0     1                 .L0 
80200692 80200692        0     1                 .L0 
80200692 80200692        0     1                 .L0 
80200696 80200696        0     1                 .L0 
80200696 80200696        0     1                 .L0 
8020069e 8020069e        0     1                 .L0 
802006a2 802006a2        0     1                 .L0 
802006a6 802006a6        0     1                 .L0 
802006a6 802006a6        0     1                 .L0 
802006aa 802006aa        0     1                 .L0 
802006aa 802006aa        0     1                 .L0 
802006ae 802006ae        0     1                 .L0 
802006b2 802006b2        0     1                 .L0 
802006b6 802006b6        0     1                 .L0 
802006be 802006be        0     1                 .L0 
802006be 802006be        0     1                 .L0 
802006c2 802006c2        0     1                 .L0 
802006c2 802006c2        0     1                 .L0 
802006c6 802006c6        0     1                 .L0 
802006ca 802006ca        0     1                 .L0 
802006d0 802006d0        0     1                 .L0 
802006da 802006da        0     1                 .L0 
802006dc 802006dc        0     1                 .L0 
802006e4 802006e4        0     1                 .L0 
802006ea 802006ea        0     1                 .L0 
802006ec 802006ec        0     1                 .L0 
802006ec 802006ec        0     1                 .L0 
802006f6 802006f6        0     1                 .L0 
802006f6 802006f6        0     1                 .L0 
802006fe 802006fe        0     1                 .L0 
802006fe 802006fe        0     1                 .L0 
80200702 80200702        0     1                 .L0 
80200702 80200702        0     1                 .L0 
80200718 80200718        0     1                 .L0 
80200736 80200736        0     1                 .L0 
80200746 80200746        0     1                 .L0 
80200756 80200756        0     1                 .L0 
80200766 80200766        0     1                 .L0 
80200766 80200766        0     1                 .L0 
80200766 80200766       48     2         /home/famous282/1000linesOS/kernel/target/riscv32imac-unknown-none-elf/debug/deps/kernel-dfa3df23995ef8b4.bd4aykr3vnli855y8j4uib0hb.0yvtx01.rcgu.o:(.text.unlikely.handle_trap)
80200766 80200766        0     1                 .L0 
80200766 80200766        0     1                 .L0 
80200766 80200766        0     1                 $x
80200766 80200766        0     1                 .L0 
80200766 80200766       48     1                 handle_trap
80200768 80200768        0     1                 .L0 
8020076e 8020076e        0     1                 .L0 
80200774 80200774        0     1                 .L0 
8020077a 8020077a        0     1                 .L0 
80200784 80200784        0     1                 .L0 
80200788 80200788        0     1                 .L0 
80200794 80200794        0     1                 .L0 
802007ae 802007ae        0     1                 .L0 
802007ae 802007ae        0     1                 .L0 
802007ae 802007ae       10     2         /home/famous282/.rustup/toolchains/stable-x86_64-unknown-linux-gnu/lib/rustlib/riscv32imac-unknown-none-elf/lib/libcore-36e1cca942c0a58a.rlib(core-36e1cca942c0a58a.core.283c90c5601d86be-cgu.0.rcgu.o):(.text._ZN44_$LT$$RF$T$u20$as$u20$core..fmt..Display$GT$3fmt17h59521dd79574c7deE)
802007ae 802007ae       10     1                 _$LT$$RF$T$u20$as$u20$core..fmt..Display$GT$::fmt::h59521dd79574c7de
802007ae 802007ae        0     1                 .L0 
802007ae 802007ae        0     1                 .L0 
802007ae 802007ae        0     1                 $x
802007ae 802007ae        0     1                 .L0 
802007b4 802007b4        0     1                 .L0 
802007be 802007be        0     1                 .L0 
802007be 802007be      1ee     2         /home/famous282/.rustup/toolchains/stable-x86_64-unknown-linux-gnu/lib/rustlib/riscv32imac-unknown-none-elf/lib/libcore-36e1cca942c0a58a.rlib(core-36e1cca942c0a58a.core.283c90c5601d86be-cgu.0.rcgu.o):(.text._ZN4core3fmt3num3imp21_$LT$impl$u20$u32$GT$10_fmt_inner17h42f8f2e90639b001E)
802007be 802007be      1ee     1                 core::fmt::num::imp::_$LT$impl$u20$u32$GT$::_fmt_inner::h42f8f2e90639b001
802007be 802007be        0     1                 .L0 
802007be 802007be        0     1                 .L0 
802007be 802007be        0     1                 $x
802007be 802007be        0     1                 .L0 
802007dc 802007dc        0     1                 .L0 
802007e0 802007e0        0     1                 .L0 
8020081e 8020081e        0     1                 .L0 
80200822 80200822        0     1                 .L0 
80200852 80200852        0     1                 .L0 
80200856 80200856        0     1                 .L0 
8020085a 8020085a        0     1                 .L0 
80200862 80200862        0     1                 .L0 
80200866 80200866        0     1                 .L0 
8020086a 8020086a        0     1                 .L0 
8020087c 8020087c        0     1                 .L0 
80200880 80200880        0     1                 .L0 
80200884 80200884        0     1                 .L0 
8020088c 8020088c        0     1                 .L0 
80200890 80200890        0     1                 .L0 
80200896 80200896        0     1                 .L0 
8020089c 8020089c        0     1                 .L0 
802008a0 802008a0        0     1                 .L0 
802008a4 802008a4        0     1                 .L0 
802008a8 802008a8        0     1                 .L0 
802008e0 802008e0        0     1                 .L0 
802008e4 802008e4        0     1                 .L0 
802008e8 802008e8        0     1                 .L0 
802008ee 802008ee        0     1                 .L0 
802008f2 802008f2        0     1                 .L0 
802008f6 802008f6        0     1                 .L0 
802008fa 802008fa        0     1                 .L0 
802008fe 802008fe        0     1                 .L0 
80200900 80200900        0     1                 .L0 
80200904 80200904        0     1                 .L0 
80200916 80200916        0     1                 .L0 
802009ac 802009ac        0     1                 .L0 
802009ac 802009ac       4c     2         /home/famous282/.rustup/toolchains/stable-x86_64-unknown-linux-gnu/lib/rustlib/riscv32imac-unknown-none-elf/lib/libcore-36e1cca942c0a58a.rlib(core-36e1cca942c0a58a.core.283c90c5601d86be-cgu.0.rcgu.o):(.text._ZN4core3fmt3num3imp52_$LT$impl$u20$core..fmt..Display$u20$for$u20$u32$GT$3fmt17hf372911b1e30887dE)
802009ac 802009ac        0     1                 .L0 
802009ac 802009ac        0     1                 .L0 
802009ac 802009ac        0     1                 $x
802009ac 802009ac        0     1                 .L0 
802009ac 802009ac       4c     1                 core::fmt::num::imp::_$LT$impl$u20$core..fmt..Display$u20$for$u20$u32$GT$::fmt::hf372911b1e30887d
802009ac 802009ac       4c     1                 core::fmt::num::imp::_$LT$impl$u20$core..fmt..Display$u20$for$u20$usize$GT$::fmt::h34bc925a91450d3a
802009c2 802009c2        0     1                 .L0 
802009d2 802009d2        0     1                 .L0 
802009d6 802009d6        0     1                 .L0 
802009f8 802009f8        0     1                 .L0 
802009f8 802009f8       58     2         /home/famous282/.rustup/toolchains/stable-x86_64-unknown-linux-gnu/lib/rustlib/riscv32imac-unknown-none-elf/lib/libcore-36e1cca942c0a58a.rlib(core-36e1cca942c0a58a.core.283c90c5601d86be-cgu.0.rcgu.o):(.text._ZN4core3fmt3num53_$LT$impl$u20$core..fmt..LowerHex$u20$for$u20$u32$GT$3fmt17h444d6bdda6c4d63cE)
802009f8 802009f8        0     1                 .L0 
802009f8 802009f8        0     1                 .L0 
802009f8 802009f8        0     1                 $x
802009f8 802009f8        0     1                 .L0 
802009f8 802009f8       58     1                 core::fmt::num::_$LT$impl$u20$core..fmt..LowerHex$u20$for$u20$u32$GT$::fmt::h444d6bdda6c4d63c
802009f8 802009f8       58     1                 core::fmt::num::_$LT$impl$u20$core..fmt..LowerHex$u20$for$u20$usize$GT$::fmt::hfaae55204ea9a7b9
80200a20 80200a20        0     1                 .L0 
80200a24 80200a24        0     1                 .L0 
80200a28 80200a28        0     1                 .L0 
80200a50 80200a50        0     1                 .L0 
80200a50 80200a50      1d6     2         /home/famous282/.rustup/toolchains/stable-x86_64-unknown-linux-gnu/lib/rustlib/riscv32imac-unknown-none-elf/lib/libcore-36e1cca942c0a58a.rlib(core-36e1cca942c0a58a.core.283c90c5601d86be-cgu.0.rcgu.o):(.text._ZN4core3fmt5write17h6376708c65409954E)
80200a50 80200a50        0     1                 .L0 
80200a50 80200a50        0     1                 .L0 
80200a50 80200a50        0     1                 $x
80200a50 80200a50        0     1                 .L0 
80200a50 80200a50      1d6     1                 core::fmt::write::h6376708c65409954
80200a70 80200a70        0     1                 .L0 
80200a70 80200a70        0     1                 .L0 
80200a7a 80200a7a        0     1                 .L0 
80200a7a 80200a7a        0     1                 .L0 
80200a7e 80200a7e        0     1                 .L0 
80200a7e 80200a7e        0     1                 .L0 
80200a82 80200a82        0     1                 .L0 
80200a9a 80200a9a        0     1                 .L0 
80200a9a 80200a9a        0     1                 .L0 
80200aa2 80200aa2        0     1                 .L0 
80200aa6 80200aa6        0     1                 .L0 
80200ab6 80200ab6        0     1                 .L0 
80200ab6 80200ab6        0     1                 .L0 
80200ac0 80200ac0        0     1                 .L0 
80200ac0 80200ac0        0     1                 .L0 
80200ac2 80200ac2        0     1                 .L0 
80200ac8 80200ac8        0     1                 .L0 
80200ac8 80200ac8        0     1                 .L0 
80200acc 80200acc        0     1                 .L0 
80200ad0 80200ad0        0     1                 .L0 
80200ad4 80200ad4        0     1                 .L0 
80200ad8 80200ad8        0     1                 .L0 
80200ae0 80200ae0        0     1                 .L0 
80200ae0 80200ae0        0     1                 .L0 
80200ae4 80200ae4        0     1                 .L0 
80200ae4 80200ae4        0     1                 .L0 
80200ae6 80200ae6        0     1                 .L0 
80200ae6 80200ae6        0     1                 .L0 
80200ae8 80200ae8        0     1                 .L0 
80200ae8 80200ae8        0     1                 .L0 
80200af0 80200af0        0     1                 .L0 
80200af8 80200af8        0     1                 .L0 
80200af8 80200af8        0     1                 .L0 
80200b16 80200b16        0     1                 .L0 
80200b1a 80200b1a        0     1                 .L0 
80200b20 80200b20        0     1                 .L0 
80200b22 80200b22        0     1                 .L0 
80200b28 80200b28        0     1                 .L0 
80200b28 80200b28        0     1                 .L0 
80200b34 80200b34        0     1                 .L0 
80200b36 80200b36        0     1                 .L0 
80200b3e 80200b3e        0     1                 .L0 
80200b3e 80200b3e        0     1                 .L0 
80200b4c 80200b4c        0     1                 .L0 
80200b58 80200b58        0     1                 .L0 
80200b58 80200b58        0     1                 .L0 
80200b5a 80200b5a        0     1                 .L0 
80200b5a 80200b5a        0     1                 .L0 
80200b5c 80200b5c        0     1                 .L0 
80200b5c 80200b5c        0     1                 .L0 
80200b5e 80200b5e        0     1                 .L0 
80200b5e 80200b5e        0     1                 .L0 
80200b6a 80200b6a        0     1                 .L0 
80200b6c 80200b6c        0     1                 .L0 
80200b72 80200b72        0     1                 .L0 
80200b74 80200b74        0     1                 .L0 
80200b7a 80200b7a        0     1                 .L0 
80200b7a 80200b7a        0     1                 .L0 
80200b88 80200b88        0     1                 .L0 
80200b8a 80200b8a        0     1                 .L0 
80200b90 80200b90        0     1                 .L0 
80200b96 80200b96        0     1                 .L0 
80200b96 80200b96        0     1                 .L0 
80200b9a 80200b9a        0     1                 .L0 
80200b9e 80200b9e        0     1                 .L0 
80200ba6 80200ba6        0     1                 .L0 
80200baa 80200baa        0     1                 .L0 
80200bbe 80200bbe        0     1                 .L0 
80200bc4 80200bc4        0     1                 .L0 
80200bc4 80200bc4        0     1                 .L0 
80200bca 80200bca        0     1                 .L0 
80200bca 80200bca        0     1                 .L0 
80200bce 80200bce        0     1                 .L0 
80200bd2 80200bd2        0     1                 .L0 
80200bda 80200bda        0     1                 .L0 
80200bde 80200bde        0     1                 .L0 
80200be2 80200be2        0     1                 .L0 
80200c04 80200c04        0     1                 .L0 
80200c0a 80200c0a        0     1                 .L0 
80200c26 80200c26        0     1                 .L0 
80200c26 80200c26       60     2         /home/famous282/.rustup/toolchains/stable-x86_64-unknown-linux-gnu/lib/rustlib/riscv32imac-unknown-none-elf/lib/libcore-36e1cca942c0a58a.rlib(core-36e1cca942c0a58a.core.283c90c5601d86be-cgu.0.rcgu.o):(.text._ZN4core3fmt9Formatter12pad_integral12write_prefix17hdbc87ce8e6b3fdaaE)
80200c26 80200c26       60     1                 core::fmt::Formatter::pad_integral::write_prefix::hdbc87ce8e6b3fdaa
80200c26 80200c26        0     1                 .L0 
80200c26 80200c26        0     1                 .L0 
80200c26 80200c26        0     1                 $x
80200c26 80200c26        0     1                 .L0 
80200c40 80200c40        0     1                 .L0 
80200c44 80200c44        0     1                 .L0 
80200c52 80200c52        0     1                 .L0 
80200c52 80200c52        0     1                 .L0 
80200c54 80200c54        0     1                 .L0 
80200c56 80200c56        0     1                 .L0 
80200c58 80200c58        0     1                 .L0 
80200c5c 80200c5c        0     1                 .L0 
80200c86 80200c86        0     1                 .L0 
80200c86 80200c86      25e     2         /home/famous282/.rustup/toolchains/stable-x86_64-unknown-linux-gnu/lib/rustlib/riscv32imac-unknown-none-elf/lib/libcore-36e1cca942c0a58a.rlib(core-36e1cca942c0a58a.core.283c90c5601d86be-cgu.0.rcgu.o):(.text._ZN4core3fmt9Formatter12pad_integral17hf40683eda9f9fd38E)
80200c86 80200c86        0     1                 .L0 
80200c86 80200c86        0     1                 .L0 
80200c86 80200c86        0     1                 $x
80200c86 80200c86        0     1                 .L0 
80200c86 80200c86      25e     1                 core::fmt::Formatter::pad_integral::hf40683eda9f9fd38
80200cae 80200cae        0     1                 .L0 
80200cb0 80200cb0        0     1                 .L0 
80200cb0 80200cb0        0     1                 .L0 
80200cbe 80200cbe        0     1                 .L0 
80200cc0 80200cc0        0     1                 .L0 
80200cca 80200cca        0     1                 .L0 
80200cd2 80200cd2        0     1                 .L0 
80200cd4 80200cd4        0     1                 .L0 
80200cd4 80200cd4        0     1                 .L0 
80200cd8 80200cd8        0     1                 .L0 
80200cda 80200cda        0     1                 .L0 
80200cda 80200cda        0     1                 .L0 
80200cde 80200cde        0     1                 .L0 
80200cea 80200cea        0     1                 .L0 
80200cf2 80200cf2        0     1                 .L0 
80200cf4 80200cf4        0     1                 .L0 
80200cf8 80200cf8        0     1                 .L0 
80200cf8 80200cf8        0     1                 .L0 
80200cfe 80200cfe        0     1                 .L0 
80200d02 80200d02        0     1                 .L0 
80200d0e 80200d0e        0     1                 .L0 
80200d12 80200d12        0     1                 .L0 
80200d1a 80200d1a        0     1                 .L0 
80200d1c 80200d1c        0     1                 .L0 
80200d1c 80200d1c        0     1                 .L0 
80200d24 80200d24        0     1                 .L0 
80200d26 80200d26        0     1                 .L0 
80200d28 80200d28        0     1                 .L0 
80200d28 80200d28        0     1                 .L0 
80200d34 80200d34        0     1                 .L0 
80200d3c 80200d3c        0     1                 .L0 
80200d42 80200d42        0     1                 .L0 
80200d46 80200d46        0     1                 .L0 
80200d60 80200d60        0     1                 .L0 
80200d60 80200d60        0     1                 .L0 
80200d64 80200d64        0     1                 .L0 
80200d8a 80200d8a        0     1                 .L0 
80200d96 80200d96        0     1                 .L0 
80200d9c 80200d9c        0     1                 .L0 
80200da2 80200da2        0     1                 .L0 
80200dba 80200dba        0     1                 .L0 
80200dc2 80200dc2        0     1                 .L0 
80200dc8 80200dc8        0     1                 .L0 
80200dde 80200dde        0     1                 .L0 
80200df0 80200df0        0     1                 .L0 
80200df0 80200df0        0     1                 .L0 
80200df8 80200df8        0     1                 .L0 
80200df8 80200df8        0     1                 .L0 
80200dfc 80200dfc        0     1                 .L0 
80200dfe 80200dfe        0     1                 .L0 
80200e06 80200e06        0     1                 .L0 
80200e06 80200e06        0     1                 .L0 
80200e0a 80200e0a        0     1                 .L0 
80200e0e 80200e0e        0     1                 .L0 
80200e0e 80200e0e        0     1                 .L0 
80200e12 80200e12        0     1                 .L0 
80200e12 80200e12        0     1                 .L0 
80200e1c 80200e1c        0     1                 .L0 
80200e1c 80200e1c        0     1                 .L0 
80200e2a 80200e2a        0     1                 .L0 
80200e2a 80200e2a        0     1                 .L0 
80200e2c 80200e2c        0     1                 .L0 
80200e2e 80200e2e        0     1                 .L0 
80200e3c 80200e3c        0     1                 .L0 
80200e58 80200e58        0     1                 .L0 
80200e5c 80200e5c        0     1                 .L0 
80200e60 80200e60        0     1                 .L0 
80200e60 80200e60        0     1                 .L0 
80200e64 80200e64        0     1                 .L0 
80200e66 80200e66        0     1                 .L0 
80200e6c 80200e6c        0     1                 .L0 
80200e6c 80200e6c        0     1                 .L0 
80200e6e 80200e6e        0     1                 .L0 
80200e6e 80200e6e        0     1                 .L0 
80200ea4 80200ea4        0     1                 .L0 
80200ea4 80200ea4        0     1                 .L0 
80200ea6 80200ea6        0     1                 .L0 
80200eb4 80200eb4        0     1                 .L0 
80200eb4 80200eb4        0     1                 .L0 
80200eb6 80200eb6        0     1                 .L0 
80200ec8 80200ec8        0     1                 .L0 
80200ed0 80200ed0        0     1                 .L0 
80200ed4 80200ed4        0     1                 .L0 
80200ed4 80200ed4        0     1                 .L0 
80200ed8 80200ed8        0     1                 .L0 
80200eda 80200eda        0     1                 .L0 
80200ee0 80200ee0        0     1                 .L0 
80200ee0 80200ee0        0     1                 .L0 
80200ee4 80200ee4        0     1                 .L0 
80200ee4 80200ee4      1c2     2         /home/famous282/.rustup/toolchains/stable-x86_64-unknown-linux-gnu/lib/rustlib/riscv32imac-unknown-none-elf/lib/libcore-36e1cca942c0a58a.rlib(core-36e1cca942c0a58a.core.283c90c5601d86be-cgu.0.rcgu.o):(.text._ZN4core3fmt9Formatter3pad17h70209f2ecfa223ceE)
80200ee4 80200ee4        0     1                 .L0 
80200ee4 80200ee4        0     1                 .L0 
80200ee4 80200ee4        0     1                 $x
80200ee4 80200ee4        0     1                 .L0 
80200ee4 80200ee4      1c2     1                 core::fmt::Formatter::pad::h70209f2ecfa223ce
80200f02 80200f02        0     1                 .L0 
80200f0e 80200f0e        0     1                 .L0 
80200f0e 80200f0e        0     1                 .L0 
80200f16 80200f16        0     1                 .L0 
80200f16 80200f16        0     1                 .L0 
80200f18 80200f18        0     1                 .L0 
80200f18 80200f18        0     1                 .L0 
80200f1c 80200f1c        0     1                 .L0 
80200f1e 80200f1e        0     1                 .L0 
80200f1e 80200f1e        0     1                 .L0 
80200f22 80200f22        0     1                 .L0 
80200f2e 80200f2e        0     1                 .L0 
80200f36 80200f36        0     1                 .L0 
80200f38 80200f38        0     1                 .L0 
80200f3c 80200f3c        0     1                 .L0 
80200f3c 80200f3c        0     1                 .L0 
80200f44 80200f44        0     1                 .L0 
80200f4a 80200f4a        0     1                 .L0 
80200f52 80200f52        0     1                 .L0 
80200f56 80200f56        0     1                 .L0 
80200f56 80200f56        0     1                 .L0 
80200f5c 80200f5c        0     1                 .L0 
80200f5c 80200f5c        0     1                 .L0 
80200f5e 80200f5e        0     1                 .L0 
80200f60 80200f60        0     1                 .L0 
80200f60 80200f60        0     1                 .L0 
80200f64 80200f64        0     1                 .L0 
80200f64 80200f64        0     1                 .L0 
80200f68 80200f68        0     1                 .L0 
80200f7c 80200f7c        0     1                 .L0 
80200f80 80200f80        0     1                 .L0 
80200f80 80200f80        0     1                 .L0 
80200f84 80200f84        0     1                 .L0 
80200f86 80200f86        0     1                 .L0 
80200f8c 80200f8c        0     1                 .L0 
80200f8c 80200f8c        0     1                 .L0 
80200f8e 80200f8e        0     1                 .L0 
80200f8e 80200f8e        0     1                 .L0 
80200f92 80200f92        0     1                 .L0 
80200f96 80200f96        0     1                 .L0 
80200f9a 80200f9a        0     1                 .L0 
80200f9e 80200f9e        0     1                 .L0 
80200fa2 80200fa2        0     1                 .L0 
80200fa6 80200fa6        0     1                 .L0 
80200fa6 80200fa6        0     1                 .L0 
80200fac 80200fac        0     1                 .L0 
80200fb0 80200fb0        0     1                 .L0 
80200fb2 80200fb2        0     1                 .L0 
80200fb6 80200fb6        0     1                 .L0 
80200fb8 80200fb8        0     1                 .L0 
80200fb8 80200fb8        0     1                 .L0 
80200fba 80200fba        0     1                 .L0 
80200fc2 80200fc2        0     1                 .L0 
80200fea 80200fea        0     1                 .L0 
80200ffa 80200ffa        0     1                 .L0 
80200ffa 80200ffa        0     1                 .L0 
80201004 80201004        0     1                 .L0 
80201006 80201006        0     1                 .L0 
80201006 80201006        0     1                 .L0 
8020100a 8020100a        0     1                 .L0 
8020100a 8020100a        0     1                 .L0 
80201028 80201028        0     1                 .L0 
8020102c 8020102c        0     1                 .L0 
80201030 80201030        0     1                 .L0 
80201030 80201030        0     1                 .L0 
80201034 80201034        0     1                 .L0 
80201036 80201036        0     1                 .L0 
8020103c 8020103c        0     1                 .L0 
8020103c 8020103c        0     1                 .L0 
80201040 80201040        0     1                 .L0 
80201040 80201040        0     1                 .L0 
8020104c 8020104c        0     1                 .L0 
8020104c 8020104c        0     1                 .L0 
8020104e 8020104e        0     1                 .L0 
80201072 80201072        0     1                 .L0 
8020107c 8020107c        0     1                 .L0 
8020108a 8020108a        0     1                 .L0 
8020108a 8020108a        0     1                 .L0 
80201096 80201096        0     1                 .L0 
80201096 80201096        0     1                 .L0 
8020109a 8020109a        0     1                 .L0 
8020109c 8020109c        0     1                 .L0 
8020109c 8020109c        0     1                 .L0 
802010a6 802010a6        0     1                 .L0 
802010a6 802010a6      178     2         /home/famous282/.rustup/toolchains/stable-x86_64-unknown-linux-gnu/lib/rustlib/riscv32imac-unknown-none-elf/lib/libcore-36e1cca942c0a58a.rlib(core-36e1cca942c0a58a.core.283c90c5601d86be-cgu.0.rcgu.o):(.text._ZN4core3str5count14do_count_chars17h23251e7b20e60103E)
802010a6 802010a6        0     1                 .L0 
802010a6 802010a6        0     1                 .L0 
802010a6 802010a6        0     1                 $x
802010a6 802010a6        0     1                 .L0 
802010a6 802010a6      178     1                 core::str::count::do_count_chars::h23251e7b20e60103
802010ac 802010ac        0     1                 .L0 
802010b4 802010b4        0     1                 .L0 
802010b8 802010b8        0     1                 .L0 
802010b8 802010b8        0     1                 .L0 
802010ba 802010ba        0     1                 .L0 
802010ba 802010ba        0     1                 .L0 
802010bc 802010bc        0     1                 .L0 
802010c4 802010c4        0     1                 .L0 
802010cc 802010cc        0     1                 .L0 
802010ce 802010ce        0     1                 .L0 
802010d2 802010d2        0     1                 .L0 
802010d8 802010d8        0     1                 .L0 
802010dc 802010dc        0     1                 .L0 
802010e0 802010e0        0     1                 .L0 
802010e0 802010e0        0     1                 .L0 
802010e4 802010e4        0     1                 .L0 
802010ec 802010ec        0     1                 .L0 
802010ec 802010ec        0     1                 .L0 
802010f0 802010f0        0     1                 .L0 
802010f6 802010f6        0     1                 .L0 
802010fe 802010fe        0     1                 .L0 
80201100 80201100        0     1                 .L0 
80201104 80201104        0     1                 .L0 
80201106 80201106        0     1                 .L0 
80201106 80201106        0     1                 .L0 
80201108 80201108        0     1                 .L0 
8020111a 8020111a        0     1                 .L0 
80201122 80201122        0     1                 .L0 
80201124 80201124        0     1                 .L0 
80201128 80201128        0     1                 .L0 
80201138 80201138        0     1                 .L0 
8020113c 8020113c        0     1                 .L0 
80201148 80201148        0     1                 .L0 
80201156 80201156        0     1                 .L0 
8020115e 8020115e        0     1                 .L0 
80201162 80201162        0     1                 .L0 
80201176 80201176        0     1                 .L0 
80201176 80201176        0     1                 .L0 
8020117c 8020117c        0     1                 .L0 
8020117c 8020117c        0     1                 .L0 
80201182 80201182        0     1                 .L0 
80201192 80201192        0     1                 .L0 
802011c0 802011c0        0     1                 .L0 
802011c2 802011c2        0     1                 .L0 
802011ce 802011ce        0     1                 .L0 
802011d2 802011d2        0     1                 .L0 
802011d4 802011d4        0     1                 .L0 
802011dc 802011dc        0     1                 .L0 
802011e6 802011e6        0     1                 .L0 
802011ec 802011ec        0     1                 .L0 
802011ee 802011ee        0     1                 .L0 
802011fc 802011fc        0     1                 .L0 
802011fe 802011fe        0     1                 .L0 
802011fe 802011fe        0     1                 .L0 
80201202 80201202        0     1                 .L0 
80201202 80201202        0     1                 .L0 
8020120e 8020120e        0     1                 .L0 
8020121e 8020121e        0     1                 .L0 
8020121e 8020121e       1e     2         /home/famous282/.rustup/toolchains/stable-x86_64-unknown-linux-gnu/lib/rustlib/riscv32imac-unknown-none-elf/lib/libcore-36e1cca942c0a58a.rlib(core-36e1cca942c0a58a.core.283c90c5601d86be-cgu.0.rcgu.o):(.text.unlikely._ZN4core9panicking11panic_const24panic_const_add_overflow17h8d177bbb89cf278aE)
8020121e 8020121e        0     1                 .L0 
8020121e 8020121e        0     1                 .L0 
8020121e 8020121e        0     1                 $x
8020121e 8020121e        0     1                 .L0 
8020121e 8020121e       1e     1                 core::panicking::panic_const::panic_const_add_overflow::h8d177bbb89cf278a
8020123c 8020123c        0     1                 .L0 
8020123c 8020123c       1e     2         /home/famous282/.rustup/toolchains/stable-x86_64-unknown-linux-gnu/lib/rustlib/riscv32imac-unknown-none-elf/lib/libcore-36e1cca942c0a58a.rlib(core-36e1cca942c0a58a.core.283c90c5601d86be-cgu.0.rcgu.o):(.text.unlikely._ZN4core9panicking11panic_const24panic_const_sub_overflow17h6ef2b7d85abc4017E)
8020123c 8020123c        0     1                 .L0 
8020123c 8020123c        0     1                 .L0 
8020123c 8020123c        0     1                 $x
8020123c 8020123c        0     1                 .L0 
8020123c 8020123c       1e     1                 core::panicking::panic_const::panic_const_sub_overflow::h6ef2b7d85abc4017
8020125a 8020125a        0     1                 .L0 
8020125a 8020125a       3c     2         /home/famous282/.rustup/toolchains/stable-x86_64-unknown-linux-gnu/lib/rustlib/riscv32imac-unknown-none-elf/lib/libcore-36e1cca942c0a58a.rlib(core-36e1cca942c0a58a.core.283c90c5601d86be-cgu.0.rcgu.o):(.text.unlikely._ZN4core9panicking18panic_bounds_check17h6a2ad95339b34aceE)
8020125a 8020125a        0     1                 .L0 
8020125a 8020125a        0     1                 .L0 
8020125a 8020125a        0     1                 $x
8020125a 8020125a        0     1                 .L0 
8020125a 8020125a       3c     1                 core::panicking::panic_bounds_check::h6a2ad95339b34ace
80201296 80201296        0     1                 .L0 
80201296 80201296       30     2         /home/famous282/.rustup/toolchains/stable-x86_64-unknown-linux-gnu/lib/rustlib/riscv32imac-unknown-none-elf/lib/libcore-36e1cca942c0a58a.rlib(core-36e1cca942c0a58a.core.283c90c5601d86be-cgu.0.rcgu.o):(.text.unlikely._ZN4core9panicking18panic_nounwind_fmt17h55180109d2515dcfE)
80201296 80201296        0     1                 .L0 
80201296 80201296        0     1                 .L0 
80201296 80201296        0     1                 $x
80201296 80201296        0     1                 .L0 
80201296 80201296       30     1                 core::panicking::panic_nounwind_fmt::h55180109d2515dcf
802012aa 802012aa        0     1                 .L0 
802012c6 802012c6        0     1                 .L0 
802012c6 802012c6       20     2         /home/famous282/.rustup/toolchains/stable-x86_64-unknown-linux-gnu/lib/rustlib/riscv32imac-unknown-none-elf/lib/libcore-36e1cca942c0a58a.rlib(core-36e1cca942c0a58a.core.283c90c5601d86be-cgu.0.rcgu.o):(.text.unlikely._ZN4core9panicking30panic_null_pointer_dereference17h3d6c6067fce9e2c4E)
802012c6 802012c6        0     1                 .L0 
802012c6 802012c6        0     1                 .L0 
802012c6 802012c6        0     1                 $x
802012c6 802012c6        0     1                 .L0 
802012c6 802012c6       20     1                 core::panicking::panic_null_pointer_dereference::h3d6c6067fce9e2c4
802012e6 802012e6        0     1                 .L0 
802012e6 802012e6       40     2         /home/famous282/.rustup/toolchains/stable-x86_64-unknown-linux-gnu/lib/rustlib/riscv32imac-unknown-none-elf/lib/libcore-36e1cca942c0a58a.rlib(core-36e1cca942c0a58a.core.283c90c5601d86be-cgu.0.rcgu.o):(.text.unlikely._ZN4core9panicking36panic_misaligned_pointer_dereference17h564b2bf115471192E)
802012e6 802012e6        0     1                 .L0 
802012e6 802012e6        0     1                 .L0 
802012e6 802012e6        0     1                 $x
802012e6 802012e6        0     1                 .L0 
802012e6 802012e6       40     1                 core::panicking::panic_misaligned_pointer_dereference::h564b2bf115471192
80201326 80201326        0     1                 .L0 
80201326 80201326       2e     2         /home/famous282/.rustup/toolchains/stable-x86_64-unknown-linux-gnu/lib/rustlib/riscv32imac-unknown-none-elf/lib/libcore-36e1cca942c0a58a.rlib(core-36e1cca942c0a58a.core.283c90c5601d86be-cgu.0.rcgu.o):(.text.unlikely._ZN4core9panicking9panic_fmt17h2d50c466dfa5b6faE)
80201326 80201326        0     1                 .L0 
80201326 80201326        0     1                 .L0 
80201326 80201326        0     1                 $x
80201326 80201326        0     1                 .L0 
80201326 80201326       2e     1                 core::panicking::panic_fmt::h2d50c466dfa5b6fa
8020133c 8020133c        0     1                 .L0 
80201354 80201354        0     1                 .L0 
80201354 80201354       c6     2         /home/famous282/.rustup/toolchains/stable-x86_64-unknown-linux-gnu/lib/rustlib/riscv32imac-unknown-none-elf/lib/libcore-36e1cca942c0a58a.rlib(core-36e1cca942c0a58a.core.283c90c5601d86be-cgu.0.rcgu.o):(.text._ZN73_$LT$core..panic..panic_info..PanicInfo$u20$as$u20$core..fmt..Display$GT$3fmt17h7dfa1da8d6aafbacE)
80201354 80201354        0     1                 .L0 
80201354 80201354        0     1                 .L0 
80201354 80201354        0     1                 $x
80201354 80201354        0     1                 .L0 
80201354 80201354       c6     1                 _$LT$core..panic..panic_info..PanicInfo$u20$as$u20$core..fmt..Display$GT$::fmt::h7dfa1da8d6aafbac
80201366 80201366        0     1                 .L0 
80201382 80201382        0     1                 .L0 
80201382 80201382        0     1                 .L0 
80201384 80201384        0     1                 .L0 
8020138c 8020138c        0     1                 .L0 
8020139c 8020139c        0     1                 .L0 
802013a0 802013a0        0     1                 .L0 
802013b6 802013b6        0     1                 .L0 
802013be 802013be        0     1                 .L0 
802013c6 802013c6        0     1                 .L0 
802013de 802013de        0     1                 .L0 
802013de 802013de        0     1                 .L0 
802013e0 802013e0        0     1                 .L0 
802013e0 802013e0        0     1                 .L0 
802013ee 802013ee        0     1                 .L0 
802013ee 802013ee        0     1                 .L0 
802013f0 802013f0        0     1                 .L0 
802013f8 802013f8        0     1                 .L0 
8020141a 8020141a        0     1                 .L0 
8020141a 8020141a       6c     2         /home/famous282/.rustup/toolchains/stable-x86_64-unknown-linux-gnu/lib/rustlib/riscv32imac-unknown-none-elf/lib/libcompiler_builtins-5525e237063e5553.rlib(compiler_builtins-5525e237063e5553.compiler_builtins.8129c65e379068d4-cgu.193.rcgu.o):(.text.memset)
8020141a 8020141a        0     1                 .L0 
8020141a 8020141a        0     1                 .L0 
8020141a 8020141a        0     1                 $x
8020141a 8020141a        0     1                 .L0 
8020141a 8020141a       6c     1                 memset
8020141c 8020141c        0     1                 .L0 
8020141c 8020141c        0     1                 .L0 
80201420 80201420        0     1                 .L0 
80201420 80201420        0     1                 .L0 
80201428 80201428        0     1                 .L0 
8020142c 8020142c        0     1                 .L0 
80201430 80201430        0     1                 .L0 
8020143a 8020143a        0     1                 .L0 
8020143c 8020143c        0     1                 .L0 
8020143e 8020143e        0     1                 .L0 
80201446 80201446        0     1                 .L0 
80201448 80201448        0     1                 .L0 
8020144c 8020144c        0     1                 .L0 
8020145e 8020145e        0     1                 .L0 
80201460 80201460        0     1                 .L0 
80201464 80201464        0     1                 .L0 
80201466 80201466        0     1                 .L0 
8020146e 8020146e        0     1                 .L0 
80201474 80201474        0     1                 .L0 
80201474 80201474        0     1                 .L0 
80201478 80201478        0     1                 .L0 
8020147c 8020147c        0     1                 .L0 
80201486 80201486        0     1                 .L0 
80201488 80201488      671     4 .rodata
80201488 80201488      1db     1         <internal>:(.rodata.str1.1)
80201664 80201664       10     4         /home/famous282/1000linesOS/kernel/target/riscv32imac-unknown-none-elf/debug/deps/kernel-dfa3df23995ef8b4.24qdkavsqt2e6ckh6joba0u2j.0yvtx01.rcgu.o:(.rodata.anon.dafe0b063aafa2b693a83aad04a32060.2.llvm.5401126556691993204)
80201664 80201664        0     1                 $d
80201664 80201664       10     1                 anon.dafe0b063aafa2b693a83aad04a32060.2.llvm.5401126556691993204
80201674 80201674        d     1         /home/famous282/1000linesOS/kernel/target/riscv32imac-unknown-none-elf/debug/deps/kernel-dfa3df23995ef8b4.24qdkavsqt2e6ckh6joba0u2j.0yvtx01.rcgu.o:(.rodata.anon.dafe0b063aafa2b693a83aad04a32060.3.llvm.5401126556691993204)
80201674 80201674        0     1                 $d
80201674 80201674        d     1                 anon.dafe0b063aafa2b693a83aad04a32060.3.llvm.5401126556691993204
80201684 80201684       10     4         /home/famous282/1000linesOS/kernel/target/riscv32imac-unknown-none-elf/debug/deps/kernel-dfa3df23995ef8b4.24qdkavsqt2e6ckh6joba0u2j.0yvtx01.rcgu.o:(.rodata.anon.dafe0b063aafa2b693a83aad04a32060.4.llvm.5401126556691993204)
80201684 80201684        0     1                 $d
80201684 80201684       10     1                 anon.dafe0b063aafa2b693a83aad04a32060.4.llvm.5401126556691993204
80201694 80201694       16     1         /home/famous282/1000linesOS/kernel/target/riscv32imac-unknown-none-elf/debug/deps/kernel-dfa3df23995ef8b4.24qdkavsqt2e6ckh6joba0u2j.0yvtx01.rcgu.o:(.rodata..Lanon.dafe0b063aafa2b693a83aad04a32060.5)
80201694 80201694       16     1                 .Lanon.dafe0b063aafa2b693a83aad04a32060.5
80201694 80201694        0     1                 $d
802016aa 802016aa       16     1         /home/famous282/1000linesOS/kernel/target/riscv32imac-unknown-none-elf/debug/deps/kernel-dfa3df23995ef8b4.24qdkavsqt2e6ckh6joba0u2j.0yvtx01.rcgu.o:(.rodata..Lanon.dafe0b063aafa2b693a83aad04a32060.6)
802016aa 802016aa       16     1                 .Lanon.dafe0b063aafa2b693a83aad04a32060.6
802016aa 802016aa        0     1                 $d
802016c0 802016c0       10     4         /home/famous282/1000linesOS/kernel/target/riscv32imac-unknown-none-elf/debug/deps/kernel-dfa3df23995ef8b4.24qdkavsqt2e6ckh6joba0u2j.0yvtx01.rcgu.o:(.rodata..Lanon.dafe0b063aafa2b693a83aad04a32060.7)
802016c0 802016c0       10     1                 .Lanon.dafe0b063aafa2b693a83aad04a32060.7
802016c0 802016c0        0     1                 $d
802016d0 802016d0       10     4         /home/famous282/1000linesOS/kernel/target/riscv32imac-unknown-none-elf/debug/deps/kernel-dfa3df23995ef8b4.24qdkavsqt2e6ckh6joba0u2j.0yvtx01.rcgu.o:(.rodata..Lanon.dafe0b063aafa2b693a83aad04a32060.8)
802016d0 802016d0       10     1                 .Lanon.dafe0b063aafa2b693a83aad04a32060.8
802016d0 802016d0        0     1                 $d
802016e0 802016e0       18     1         /home/famous282/1000linesOS/kernel/target/riscv32imac-unknown-none-elf/debug/deps/kernel-dfa3df23995ef8b4.24qdkavsqt2e6ckh6joba0u2j.0yvtx01.rcgu.o:(.rodata..Lanon.dafe0b063aafa2b693a83aad04a32060.9)
802016e0 802016e0       18     1                 .Lanon.dafe0b063aafa2b693a83aad04a32060.9
802016e0 802016e0        0     1                 $d
802016f8 802016f8       10     4         /home/famous282/1000linesOS/kernel/target/riscv32imac-unknown-none-elf/debug/deps/kernel-dfa3df23995ef8b4.24qdkavsqt2e6ckh6joba0u2j.0yvtx01.rcgu.o:(.rodata..Lanon.dafe0b063aafa2b693a83aad04a32060.10)
802016f8 802016f8       10     1                 .Lanon.dafe0b063aafa2b693a83aad04a32060.10
802016f8 802016f8        0     1                 $d
80201708 80201708       18     4         /home/famous282/1000linesOS/kernel/target/riscv32imac-unknown-none-elf/debug/deps/kernel-dfa3df23995ef8b4.3lszhsxzyn1vde1rs4win02um.0yvtx01.rcgu.o:(.rodata.anon.3065e104e28d6a5facd9e62a3ecae246.0.llvm.6829158211990935668)
80201708 80201708        0     1                 $d
80201708 80201708       18     1                 anon.3065e104e28d6a5facd9e62a3ecae246.0.llvm.6829158211990935668
80201720 80201720       10     4         /home/famous282/1000linesOS/kernel/target/riscv32imac-unknown-none-elf/debug/deps/kernel-dfa3df23995ef8b4.63ptxjvpldbz03i077ow9897u.0yvtx01.rcgu.o:(.rodata..Lanon.9a18cc69fd9a87585fdaf094a09d3ef5.1)
80201720 80201720       10     1                 .Lanon.9a18cc69fd9a87585fdaf094a09d3ef5.1
80201720 80201720        0     1                 $d
80201730 80201730       10     4         /home/famous282/1000linesOS/kernel/target/riscv32imac-unknown-none-elf/debug/deps/kernel-dfa3df23995ef8b4.63ptxjvpldbz03i077ow9897u.0yvtx01.rcgu.o:(.rodata..Lanon.9a18cc69fd9a87585fdaf094a09d3ef5.2)
80201730 80201730       10     1                 .Lanon.9a18cc69fd9a87585fdaf094a09d3ef5.2
80201730 80201730        0     1                 $d
80201740 80201740       15     1         /home/famous282/1000linesOS/kernel/target/riscv32imac-unknown-none-elf/debug/deps/kernel-dfa3df23995ef8b4.63ptxjvpldbz03i077ow9897u.0yvtx01.rcgu.o:(.rodata.anon.9a18cc69fd9a87585fdaf094a09d3ef5.3.llvm.11028493992479846092)
80201740 80201740        0     1                 $d
80201740 80201740       15     1                 anon.9a18cc69fd9a87585fdaf094a09d3ef5.3.llvm.11028493992479846092
80201758 80201758       10     4         /home/famous282/1000linesOS/kernel/target/riscv32imac-unknown-none-elf/debug/deps/kernel-dfa3df23995ef8b4.63ptxjvpldbz03i077ow9897u.0yvtx01.rcgu.o:(.rodata.anon.9a18cc69fd9a87585fdaf094a09d3ef5.4.llvm.11028493992479846092)
80201758 80201758        0     1                 $d
80201758 80201758       10     1                 anon.9a18cc69fd9a87585fdaf094a09d3ef5.4.llvm.11028493992479846092
80201768 80201768       10     4         /home/famous282/1000linesOS/kernel/target/riscv32imac-unknown-none-elf/debug/deps/kernel-dfa3df23995ef8b4.63ptxjvpldbz03i077ow9897u.0yvtx01.rcgu.o:(.rodata.anon.9a18cc69fd9a87585fdaf094a09d3ef5.5.llvm.11028493992479846092)
80201768 80201768        0     1                 $d
80201768 80201768       10     1                 anon.9a18cc69fd9a87585fdaf094a09d3ef5.5.llvm.11028493992479846092
80201778 80201778        e     1         /home/famous282/1000linesOS/kernel/target/riscv32imac-unknown-none-elf/debug/deps/kernel-dfa3df23995ef8b4.aqtcxbzy89ozo9dgld6fn0q5h.0yvtx01.rcgu.o:(.rodata..Lanon.9e0d9a3b70bfecc7ede061ec6c9e287a.0)
80201778 80201778        e     1                 .Lanon.9e0d9a3b70bfecc7ede061ec6c9e287a.0
80201778 80201778        0     1                 $d
80201788 80201788       10     4         /home/famous282/1000linesOS/kernel/target/riscv32imac-unknown-none-elf/debug/deps/kernel-dfa3df23995ef8b4.b1wfjfrxrno1sga9zbdwiqldk.0yvtx01.rcgu.o:(.rodata.anon.ec365b032719ac4aafe4712422c74bb6.1.llvm.9581896732707436221)
80201788 80201788        0     1                 $d
80201788 80201788       10     1                 anon.ec365b032719ac4aafe4712422c74bb6.1.llvm.9581896732707436221
80201798 80201798       10     4         /home/famous282/1000linesOS/kernel/target/riscv32imac-unknown-none-elf/debug/deps/kernel-dfa3df23995ef8b4.b1wfjfrxrno1sga9zbdwiqldk.0yvtx01.rcgu.o:(.rodata.anon.ec365b032719ac4aafe4712422c74bb6.2.llvm.9581896732707436221)
80201798 80201798        0     1                 $d
80201798 80201798       10     1                 anon.ec365b032719ac4aafe4712422c74bb6.2.llvm.9581896732707436221
802017a8 802017a8       10     4         /home/famous282/1000linesOS/kernel/target/riscv32imac-unknown-none-elf/debug/deps/kernel-dfa3df23995ef8b4.b1wfjfrxrno1sga9zbdwiqldk.0yvtx01.rcgu.o:(.rodata.anon.ec365b032719ac4aafe4712422c74bb6.3.llvm.9581896732707436221)
802017a8 802017a8        0     1                 $d
802017a8 802017a8       10     1                 anon.ec365b032719ac4aafe4712422c74bb6.3.llvm.9581896732707436221
802017b8 802017b8       ae     1         /home/famous282/1000linesOS/kernel/target/riscv32imac-unknown-none-elf/debug/deps/kernel-dfa3df23995ef8b4.b1wfjfrxrno1sga9zbdwiqldk.0yvtx01.rcgu.o:(.rodata.anon.ec365b032719ac4aafe4712422c74bb6.4.llvm.9581896732707436221)
802017b8 802017b8        0     1                 $d
802017b8 802017b8       ae     1                 anon.ec365b032719ac4aafe4712422c74bb6.4.llvm.9581896732707436221
80201866 80201866       c7     1         /home/famous282/1000linesOS/kernel/target/riscv32imac-unknown-none-elf/debug/deps/kernel-dfa3df23995ef8b4.b1wfjfrxrno1sga9zbdwiqldk.0yvtx01.rcgu.o:(.rodata.anon.ec365b032719ac4aafe4712422c74bb6.5.llvm.9581896732707436221)
80201866 80201866        0     1                 $d
80201866 80201866       c7     1                 anon.ec365b032719ac4aafe4712422c74bb6.5.llvm.9581896732707436221
80201930 80201930       10     4         /home/famous282/1000linesOS/kernel/target/riscv32imac-unknown-none-elf/debug/deps/kernel-dfa3df23995ef8b4.b1wfjfrxrno1sga9zbdwiqldk.0yvtx01.rcgu.o:(.rodata.anon.ec365b032719ac4aafe4712422c74bb6.7.llvm.9581896732707436221)
80201930 80201930        0     1                 $d
80201930 80201930       10     1                 anon.ec365b032719ac4aafe4712422c74bb6.7.llvm.9581896732707436221
80201940 80201940       10     4         /home/famous282/1000linesOS/kernel/target/riscv32imac-unknown-none-elf/debug/deps/kernel-dfa3df23995ef8b4.bd4aykr3vnli855y8j4uib0hb.0yvtx01.rcgu.o:(.rodata..Lanon.44dbf0a5850731176117aaf5252d3610.2)
80201940 80201940       10     1                 .Lanon.44dbf0a5850731176117aaf5252d3610.2
80201940 80201940        0     1                 $d
80201950 80201950       c8     1         /home/famous282/.rustup/toolchains/stable-x86_64-unknown-linux-gnu/lib/rustlib/riscv32imac-unknown-none-elf/lib/libcore-36e1cca942c0a58a.rlib(core-36e1cca942c0a58a.core.283c90c5601d86be-cgu.0.rcgu.o):(.rodata..Lanon.c1b9f5fb5e0d403858e825deb85600fc.10)
80201950 80201950       c8     1                 .Lanon.c1b9f5fb5e0d403858e825deb85600fc.10
80201950 80201950        0     1                 $d
80201a18 80201a18       10     4         /home/famous282/.rustup/toolchains/stable-x86_64-unknown-linux-gnu/lib/rustlib/riscv32imac-unknown-none-elf/lib/libcore-36e1cca942c0a58a.rlib(core-36e1cca942c0a58a.core.283c90c5601d86be-cgu.0.rcgu.o):(.rodata..Lanon.c1b9f5fb5e0d403858e825deb85600fc.22)
80201a18 80201a18       10     1                 .Lanon.c1b9f5fb5e0d403858e825deb85600fc.22
80201a18 80201a18        0     1                 $d
80201a28 80201a28       10     2         <internal>:(.rodata.cst16)
80201a38 80201a38        2     1         /home/famous282/.rustup/toolchains/stable-x86_64-unknown-linux-gnu/lib/rustlib/riscv32imac-unknown-none-elf/lib/libcore-36e1cca942c0a58a.rlib(core-36e1cca942c0a58a.core.283c90c5601d86be-cgu.0.rcgu.o):(.rodata..Lanon.c1b9f5fb5e0d403858e825deb85600fc.33)
80201a38 80201a38        2     1                 .Lanon.c1b9f5fb5e0d403858e825deb85600fc.33
80201a38 80201a38        0     1                 $d
80201a3a 80201a3a       1c     1         /home/famous282/.rustup/toolchains/stable-x86_64-unknown-linux-gnu/lib/rustlib/riscv32imac-unknown-none-elf/lib/libcore-36e1cca942c0a58a.rlib(core-36e1cca942c0a58a.core.283c90c5601d86be-cgu.0.rcgu.o):(.rodata..Lanon.c1b9f5fb5e0d403858e825deb85600fc.82)
80201a3a 80201a3a       1c     1                 .Lanon.c1b9f5fb5e0d403858e825deb85600fc.82
80201a3a 80201a3a        0     1                 $d
80201a56 80201a56       21     1         /home/famous282/.rustup/toolchains/stable-x86_64-unknown-linux-gnu/lib/rustlib/riscv32imac-unknown-none-elf/lib/libcore-36e1cca942c0a58a.rlib(core-36e1cca942c0a58a.core.283c90c5601d86be-cgu.0.rcgu.o):(.rodata..Lanon.c1b9f5fb5e0d403858e825deb85600fc.89)
80201a56 80201a56       21     1                 .Lanon.c1b9f5fb5e0d403858e825deb85600fc.89
80201a56 80201a56        0     1                 $d
80201a77 80201a77       21     1         /home/famous282/.rustup/toolchains/stable-x86_64-unknown-linux-gnu/lib/rustlib/riscv32imac-unknown-none-elf/lib/libcore-36e1cca942c0a58a.rlib(core-36e1cca942c0a58a.core.283c90c5601d86be-cgu.0.rcgu.o):(.rodata..Lanon.c1b9f5fb5e0d403858e825deb85600fc.290)
80201a77 80201a77       21     1                 .Lanon.c1b9f5fb5e0d403858e825deb85600fc.290
80201a77 80201a77        0     1                 $d
80201a98 80201a98       53     1         /home/famous282/.rustup/toolchains/stable-x86_64-unknown-linux-gnu/lib/rustlib/riscv32imac-unknown-none-elf/lib/libcore-36e1cca942c0a58a.rlib(core-36e1cca942c0a58a.core.283c90c5601d86be-cgu.0.rcgu.o):(.rodata..Lanon.c1b9f5fb5e0d403858e825deb85600fc.292)
80201a98 80201a98       53     1                 .Lanon.c1b9f5fb5e0d403858e825deb85600fc.292
80201a98 80201a98        0     1                 $d
80201aeb 80201aeb        c     1         /home/famous282/.rustup/toolchains/stable-x86_64-unknown-linux-gnu/lib/rustlib/riscv32imac-unknown-none-elf/lib/libcore-36e1cca942c0a58a.rlib(core-36e1cca942c0a58a.core.283c90c5601d86be-cgu.0.rcgu.o):(.rodata..Lanon.c1b9f5fb5e0d403858e825deb85600fc.401)
80201aeb 80201aeb        c     1                 .Lanon.c1b9f5fb5e0d403858e825deb85600fc.401
80201aeb 80201aeb        0     1                 $d
80201af7 80201af7        2     1         /home/famous282/.rustup/toolchains/stable-x86_64-unknown-linux-gnu/lib/rustlib/riscv32imac-unknown-none-elf/lib/libcore-36e1cca942c0a58a.rlib(core-36e1cca942c0a58a.core.283c90c5601d86be-cgu.0.rcgu.o):(.rodata..Lanon.c1b9f5fb5e0d403858e825deb85600fc.402)
80201af7 80201af7        2     1                 .Lanon.c1b9f5fb5e0d403858e825deb85600fc.402
80201af7 80201af7        0     1                 $d
80201afc 80201afc      38c     4 .eh_frame
80201afc 80201afc       14     1         /home/famous282/.rustup/toolchains/stable-x86_64-unknown-linux-gnu/lib/rustlib/riscv32imac-unknown-none-elf/lib/libcore-36e1cca942c0a58a.rlib(core-36e1cca942c0a58a.core.283c90c5601d86be-cgu.0.rcgu.o):(.eh_frame+0x0)
80201b10 80201b10       14     1         /home/famous282/.rustup/toolchains/stable-x86_64-unknown-linux-gnu/lib/rustlib/riscv32imac-unknown-none-elf/lib/libcore-36e1cca942c0a58a.rlib(core-36e1cca942c0a58a.core.283c90c5601d86be-cgu.0.rcgu.o):(.eh_frame+0x378)
80201b24 80201b24       44     1         /home/famous282/.rustup/toolchains/stable-x86_64-unknown-linux-gnu/lib/rustlib/riscv32imac-unknown-none-elf/lib/libcore-36e1cca942c0a58a.rlib(core-36e1cca942c0a58a.core.283c90c5601d86be-cgu.0.rcgu.o):(.eh_frame+0x784)
80201b68 80201b68       30     1         /home/famous282/.rustup/toolchains/stable-x86_64-unknown-linux-gnu/lib/rustlib/riscv32imac-unknown-none-elf/lib/libcore-36e1cca942c0a58a.rlib(core-36e1cca942c0a58a.core.283c90c5601d86be-cgu.0.rcgu.o):(.eh_frame+0x9e0)
80201b98 80201b98       28     1         /home/famous282/.rustup/toolchains/stable-x86_64-unknown-linux-gnu/lib/rustlib/riscv32imac-unknown-none-elf/lib/libcore-36e1cca942c0a58a.rlib(core-36e1cca942c0a58a.core.283c90c5601d86be-cgu.0.rcgu.o):(.eh_frame+0x1294)
80201bc0 80201bc0       60     1         /home/famous282/.rustup/toolchains/stable-x86_64-unknown-linux-gnu/lib/rustlib/riscv32imac-unknown-none-elf/lib/libcore-36e1cca942c0a58a.rlib(core-36e1cca942c0a58a.core.283c90c5601d86be-cgu.0.rcgu.o):(.eh_frame+0x1b14)
80201c20 80201c20       ac     1         /home/famous282/.rustup/toolchains/stable-x86_64-unknown-linux-gnu/lib/rustlib/riscv32imac-unknown-none-elf/lib/libcore-36e1cca942c0a58a.rlib(core-36e1cca942c0a58a.core.283c90c5601d86be-cgu.0.rcgu.o):(.eh_frame+0x1fb8)
80201ccc 80201ccc       64     1         /home/famous282/.rustup/toolchains/stable-x86_64-unknown-linux-gnu/lib/rustlib/riscv32imac-unknown-none-elf/lib/libcore-36e1cca942c0a58a.rlib(core-36e1cca942c0a58a.core.283c90c5601d86be-cgu.0.rcgu.o):(.eh_frame+0x2460)
80201d30 80201d30       28     1         /home/famous282/.rustup/toolchains/stable-x86_64-unknown-linux-gnu/lib/rustlib/riscv32imac-unknown-none-elf/lib/libcore-36e1cca942c0a58a.rlib(core-36e1cca942c0a58a.core.283c90c5601d86be-cgu.0.rcgu.o):(.eh_frame+0x36b8)
80201d58 80201d58       20     1         /home/famous282/.rustup/toolchains/stable-x86_64-unknown-linux-gnu/lib/rustlib/riscv32imac-unknown-none-elf/lib/libcore-36e1cca942c0a58a.rlib(core-36e1cca942c0a58a.core.283c90c5601d86be-cgu.0.rcgu.o):(.eh_frame+0x3bf8)
80201d78 80201d78       20     1         /home/famous282/.rustup/toolchains/stable-x86_64-unknown-linux-gnu/lib/rustlib/riscv32imac-unknown-none-elf/lib/libcore-36e1cca942c0a58a.rlib(core-36e1cca942c0a58a.core.283c90c5601d86be-cgu.0.rcgu.o):(.eh_frame+0x3cd8)
80201d98 80201d98       40     1         /home/famous282/.rustup/toolchains/stable-x86_64-unknown-linux-gnu/lib/rustlib/riscv32imac-unknown-none-elf/lib/libcore-36e1cca942c0a58a.rlib(core-36e1cca942c0a58a.core.283c90c5601d86be-cgu.0.rcgu.o):(.eh_frame+0x3f18)
80201dd8 80201dd8       20     1         /home/famous282/.rustup/toolchains/stable-x86_64-unknown-linux-gnu/lib/rustlib/riscv32imac-unknown-none-elf/lib/libcore-36e1cca942c0a58a.rlib(core-36e1cca942c0a58a.core.283c90c5601d86be-cgu.0.rcgu.o):(.eh_frame+0x3fb8)
80201df8 80201df8       20     1         /home/famous282/.rustup/toolchains/stable-x86_64-unknown-linux-gnu/lib/rustlib/riscv32imac-unknown-none-elf/lib/libcore-36e1cca942c0a58a.rlib(core-36e1cca942c0a58a.core.283c90c5601d86be-cgu.0.rcgu.o):(.eh_frame+0x3ff8)
80201e18 80201e18       20     1         /home/famous282/.rustup/toolchains/stable-x86_64-unknown-linux-gnu/lib/rustlib/riscv32imac-unknown-none-elf/lib/libcore-36e1cca942c0a58a.rlib(core-36e1cca942c0a58a.core.283c90c5601d86be-cgu.0.rcgu.o):(.eh_frame+0x4038)
80201e38 80201e38       38     1         /home/famous282/.rustup/toolchains/stable-x86_64-unknown-linux-gnu/lib/rustlib/riscv32imac-unknown-none-elf/lib/libcore-36e1cca942c0a58a.rlib(core-36e1cca942c0a58a.core.283c90c5601d86be-cgu.0.rcgu.o):(.eh_frame+0x4ec8)
80201e70 80201e70       14     1         /home/famous282/.rustup/toolchains/stable-x86_64-unknown-linux-gnu/lib/rustlib/riscv32imac-unknown-none-elf/lib/libcompiler_builtins-5525e237063e5553.rlib(compiler_builtins-5525e237063e5553.compiler_builtins.8129c65e379068d4-cgu.193.rcgu.o):(.eh_frame+0x14)
80201e88 80201e88       ac     4 .bss
80201e88 80201e88        0     1         __bss = .
80201e88 80201e88        4     4         /home/famous282/1000linesOS/kernel/target/riscv32imac-unknown-none-elf/debug/deps/kernel-dfa3df23995ef8b4.24qdkavsqt2e6ckh6joba0u2j.0yvtx01.rcgu.o:(.bss._ZN6kernel6kernel10NEXT_PADDR17he2deb472b50ca120E.0.llvm.5401126556691993204)
80201e88 80201e88        0     1                 $d
80201e88 80201e88        4     1                 kernel::kernel::NEXT_PADDR::he2deb472b50ca120 (.0.llvm.5401126556691993204)
80201e8c 80201e8c       a8     4         /home/famous282/1000linesOS/kernel/target/riscv32imac-unknown-none-elf/debug/deps/kernel-dfa3df23995ef8b4.63ptxjvpldbz03i077ow9897u.0yvtx01.rcgu.o:(.bss..L_MergedGlobals)
80201e8c 80201e8c       a8     1                 .L_MergedGlobals
80201e8c 80201e8c        0     1                 $d
80201e8c 80201e8c        4     1                 kernel::process::IDLE_PROC::h35b56339473bd838
80201e90 80201e90        4     1                 kernel::process::CURRENT_PROC::hb128621936b49df0
80201e94 80201e94       a0     1                 kernel::process::PROCS::he71177911dd5df9c (.llvm.11028493992479846092)
80201f34 80201f34        0     1         __bss_end = .
80201f34 80201f34        0     1 . = ALIGN(4)
80201f34 80201f34    20000     1 . += 128 * 1024
80221f34 80221f34        0     1 __stack_top = .
80221f34 80221f34       cc     1 . = ALIGN(4096)
80222000 80222000        0     1 __free_ram = .
80222000 80222000  4000000     1 . += 64 * 1024 * 1024
84222000 84222000        0     1 __free_ram_end = .
       0        0     10bd     1 .debug_loc
       0        0      3d9     1         /home/famous282/1000linesOS/kernel/target/riscv32imac-unknown-none-elf/debug/deps/kernel-dfa3df23995ef8b4.24qdkavsqt2e6ckh6joba0u2j.0yvtx01.rcgu.o:(.debug_loc)
       0        0        0     1                 .L0 
       0        0        0     1                 $d
      31       31        0     1                 .L0 
      62       62        0     1                 .L0 
      88       88        0     1                 .L0 
      ae       ae        0     1                 .L0 
      c9       c9        0     1                 .L0 
      ea       ea        0     1                 .L0 
     12e      12e        0     1                 .L0 
     172      172        0     1                 .L0 
     1b3      1b3        0     1                 .L0 
     1ec      1ec        0     1                 .L0 
     230      230        0     1                 .L0 
     274      274        0     1                 .L0 
     2b5      2b5        0     1                 .L0 
     2ee      2ee        0     1                 .L0 
     309      309        0     1                 .L0 
     32f      32f        0     1                 .L0 
     34a      34a        0     1                 .L0 
     388      388        0     1                 .L0 
     3a3      3a3        0     1                 .L0 
     3be      3be        0     1                 .L0 
     3d9      3d9      29a     1         /home/famous282/1000linesOS/kernel/target/riscv32imac-unknown-none-elf/debug/deps/kernel-dfa3df23995ef8b4.3lszhsxzyn1vde1rs4win02um.0yvtx01.rcgu.o:(.debug_loc)
     3d9      3d9        0     1                 .L0 
     3d9      3d9        0     1                 $d
     3f4      3f4        0     1                 .L0 
     425      425        0     1                 .L0 
     456      456        0     1                 .L0 
     479      479        0     1                 .L0 
     4aa      4aa        0     1                 .L0 
     4db      4db        0     1                 .L0 
     4fe      4fe        0     1                 .L0 
     51a      51a        0     1                 .L0 
     54b      54b        0     1                 .L0 
     575      575        0     1                 .L0 
     591      591        0     1                 .L0 
     5c2      5c2        0     1                 .L0 
     5dd      5dd        0     1                 .L0 
     5f8      5f8        0     1                 .L0 
     613      613        0     1                 .L0 
     653      653        0     1                 .L0 
     673      673       13     1         /home/famous282/1000linesOS/kernel/target/riscv32imac-unknown-none-elf/debug/deps/kernel-dfa3df23995ef8b4.4ftrnxq5k2ijxu6ko4fxfrcj8.0yvtx01.rcgu.o:(.debug_loc)
     673      673        0     1                 .L0 
     673      673        0     1                 $d
     686      686      544     1         /home/famous282/1000linesOS/kernel/target/riscv32imac-unknown-none-elf/debug/deps/kernel-dfa3df23995ef8b4.63ptxjvpldbz03i077ow9897u.0yvtx01.rcgu.o:(.debug_loc)
     686      686        0     1                 .L0 
     686      686        0     1                 $d
     6b7      6b7        0     1                 .L0 
     78b      78b        0     1                 .L0 
     7fb      7fb        0     1                 .L0 
     863      863        0     1                 .L0 
     87e      87e        0     1                 .L0 
     8af      8af        0     1                 .L0 
     9a9      9a9        0     1                 .L0 
     a61      a61        0     1                 .L0 
     a7c      a7c        0     1                 .L0 
     aad      aad        0     1                 .L0 
     ad5      ad5        0     1                 .L0 
     afb      afb        0     1                 .L0 
     b21      b21        0     1                 .L0 
     b57      b57        0     1                 .L0 
     b72      b72        0     1                 .L0 
     b98      b98        0     1                 .L0 
     bca      bca      101     1         /home/famous282/1000linesOS/kernel/target/riscv32imac-unknown-none-elf/debug/deps/kernel-dfa3df23995ef8b4.aqtcxbzy89ozo9dgld6fn0q5h.0yvtx01.rcgu.o:(.debug_loc)
     bca      bca        0     1                 .L0 
     bca      bca        0     1                 $d
     c03      c03        0     1                 .L0 
     c3c      c3c        0     1                 .L0 
     c75      c75        0     1                 .L0 
     ca0      ca0        0     1                 .L0 
     ccb      ccb      3bc     1         /home/famous282/1000linesOS/kernel/target/riscv32imac-unknown-none-elf/debug/deps/kernel-dfa3df23995ef8b4.b1wfjfrxrno1sga9zbdwiqldk.0yvtx01.rcgu.o:(.debug_loc)
     ccb      ccb        0     1                 .L0 
     ccb      ccb        0     1                 $d
     d12      d12        0     1                 .L0 
     d2d      d2d        0     1                 .L0 
     d5d      d5d        0     1                 .L0 
     e55      e55        0     1                 .L0 
     e7b      e7b        0     1                 .L0 
     eac      eac        0     1                 .L0 
     ed2      ed2        0     1                 .L0 
     eed      eed        0     1                 .L0 
     f08      f08        0     1                 .L0 
     f23      f23        0     1                 .L0 
     f54      f54        0     1                 .L0 
     f94      f94        0     1                 .L0 
     fba      fba        0     1                 .L0 
     fe0      fe0        0     1                 .L0 
    1006     1006        0     1                 .L0 
    102c     102c        0     1                 .L0 
    1052     1052        0     1                 .L0 
    1087     1087       36     1         /home/famous282/1000linesOS/kernel/target/riscv32imac-unknown-none-elf/debug/deps/kernel-dfa3df23995ef8b4.bd4aykr3vnli855y8j4uib0hb.0yvtx01.rcgu.o:(.debug_loc)
    1087     1087        0     1                 .L0 
    1087     1087        0     1                 $d
    10a2     10a2        0     1                 .L0 
       0        0     2313     1 .debug_abbrev
       0        0      30a     1         /home/famous282/1000linesOS/kernel/target/riscv32imac-unknown-none-elf/debug/deps/kernel-dfa3df23995ef8b4.24qdkavsqt2e6ckh6joba0u2j.0yvtx01.rcgu.o:(.debug_abbrev)
       0        0        0     1                 $d
     30a      30a      1f2     1         /home/famous282/1000linesOS/kernel/target/riscv32imac-unknown-none-elf/debug/deps/kernel-dfa3df23995ef8b4.3lszhsxzyn1vde1rs4win02um.0yvtx01.rcgu.o:(.debug_abbrev)
     30a      30a        0     1                 $d
     4fc      4fc      114     1         /home/famous282/1000linesOS/kernel/target/riscv32imac-unknown-none-elf/debug/deps/kernel-dfa3df23995ef8b4.4ftrnxq5k2ijxu6ko4fxfrcj8.0yvtx01.rcgu.o:(.debug_abbrev)
     4fc      4fc        0     1                 $d
     610      610      2d8     1         /home/famous282/1000linesOS/kernel/target/riscv32imac-unknown-none-elf/debug/deps/kernel-dfa3df23995ef8b4.63ptxjvpldbz03i077ow9897u.0yvtx01.rcgu.o:(.debug_abbrev)
     610      610        0     1                 $d
     8e8      8e8      1e3     1         /home/famous282/1000linesOS/kernel/target/riscv32imac-unknown-none-elf/debug/deps/kernel-dfa3df23995ef8b4.aqtcxbzy89ozo9dgld6fn0q5h.0yvtx01.rcgu.o:(.debug_abbrev)
     8e8      8e8        0     1                 $d
     acb      acb      284     1         /home/famous282/1000linesOS/kernel/target/riscv32imac-unknown-none-elf/debug/deps/kernel-dfa3df23995ef8b4.b1wfjfrxrno1sga9zbdwiqldk.0yvtx01.rcgu.o:(.debug_abbrev)
     acb      acb        0     1                 $d
     d4f      d4f      12b     1         /home/famous282/1000linesOS/kernel/target/riscv32imac-unknown-none-elf/debug/deps/kernel-dfa3df23995ef8b4.bd4aykr3vnli855y8j4uib0hb.0yvtx01.rcgu.o:(.debug_abbrev)
     d4f      d4f        0     1                 $d
     e7a      e7a      321     1         /home/famous282/.rustup/toolchains/stable-x86_64-unknown-linux-gnu/lib/rustlib/riscv32imac-unknown-none-elf/lib/libcore-36e1cca942c0a58a.rlib(core-36e1cca942c0a58a.core.283c90c5601d86be-cgu.0.rcgu.o):(.debug_abbrev)
     e7a      e7a        0     1                 $d
    119b     119b       5b     1         /home/famous282/.rustup/toolchains/stable-x86_64-unknown-linux-gnu/lib/rustlib/riscv32imac-unknown-none-elf/lib/libcompiler_builtins-5525e237063e5553.rlib(compiler_builtins-5525e237063e5553.compiler_builtins.8129c65e379068d4-cgu.107.rcgu.o):(.debug_abbrev)
    119b     119b        0     1                 $d
    11f6     11f6       5f     1         /home/famous282/.rustup/toolchains/stable-x86_64-unknown-linux-gnu/lib/rustlib/riscv32imac-unknown-none-elf/lib/libcompiler_builtins-5525e237063e5553.rlib(compiler_builtins-5525e237063e5553.compiler_builtins.8129c65e379068d4-cgu.163.rcgu.o):(.debug_abbrev)
    11f6     11f6        0     1                 $d
    1255     1255       a8     1         /home/famous282/.rustup/toolchains/stable-x86_64-unknown-linux-gnu/lib/rustlib/riscv32imac-unknown-none-elf/lib/libcompiler_builtins-5525e237063e5553.rlib(compiler_builtins-5525e237063e5553.compiler_builtins.8129c65e379068d4-cgu.017.rcgu.o):(.debug_abbrev)
    1255     1255        0     1                 $d
    12fd     12fd       aa     1         /home/famous282/.rustup/toolchains/stable-x86_64-unknown-linux-gnu/lib/rustlib/riscv32imac-unknown-none-elf/lib/libcompiler_builtins-5525e237063e5553.rlib(compiler_builtins-5525e237063e5553.compiler_builtins.8129c65e379068d4-cgu.173.rcgu.o):(.debug_abbrev)
    12fd     12fd        0     1                 $d
    13a7     13a7       2e     1         /home/famous282/.rustup/toolchains/stable-x86_64-unknown-linux-gnu/lib/rustlib/riscv32imac-unknown-none-elf/lib/libcompiler_builtins-5525e237063e5553.rlib(compiler_builtins-5525e237063e5553.compiler_builtins.8129c65e379068d4-cgu.177.rcgu.o):(.debug_abbrev)
    13a7     13a7        0     1                 $d
    13d5     13d5      134     1         /home/famous282/.rustup/toolchains/stable-x86_64-unknown-linux-gnu/lib/rustlib/riscv32imac-unknown-none-elf/lib/libcompiler_builtins-5525e237063e5553.rlib(compiler_builtins-5525e237063e5553.compiler_builtins.8129c65e379068d4-cgu.003.rcgu.o):(.debug_abbrev)
    13d5     13d5        0     1                 $d
    1509     1509      181     1         /home/famous282/.rustup/toolchains/stable-x86_64-unknown-linux-gnu/lib/rustlib/riscv32imac-unknown-none-elf/lib/libcompiler_builtins-5525e237063e5553.rlib(compiler_builtins-5525e237063e5553.compiler_builtins.8129c65e379068d4-cgu.019.rcgu.o):(.debug_abbrev)
    1509     1509        0     1                 $d
    168a     168a       b9     1         /home/famous282/.rustup/toolchains/stable-x86_64-unknown-linux-gnu/lib/rustlib/riscv32imac-unknown-none-elf/lib/libcompiler_builtins-5525e237063e5553.rlib(compiler_builtins-5525e237063e5553.compiler_builtins.8129c65e379068d4-cgu.178.rcgu.o):(.debug_abbrev)
    168a     168a        0     1                 $d
    1743     1743       5f     1         /home/famous282/.rustup/toolchains/stable-x86_64-unknown-linux-gnu/lib/rustlib/riscv32imac-unknown-none-elf/lib/libcompiler_builtins-5525e237063e5553.rlib(compiler_builtins-5525e237063e5553.compiler_builtins.8129c65e379068d4-cgu.184.rcgu.o):(.debug_abbrev)
    1743     1743        0     1                 $d
    17a2     17a2       2e     1         /home/famous282/.rustup/toolchains/stable-x86_64-unknown-linux-gnu/lib/rustlib/riscv32imac-unknown-none-elf/lib/libcompiler_builtins-5525e237063e5553.rlib(compiler_builtins-5525e237063e5553.compiler_builtins.8129c65e379068d4-cgu.192.rcgu.o):(.debug_abbrev)
    17a2     17a2        0     1                 $d
    17d0     17d0      14e     1         /home/famous282/.rustup/toolchains/stable-x86_64-unknown-linux-gnu/lib/rustlib/riscv32imac-unknown-none-elf/lib/libcompiler_builtins-5525e237063e5553.rlib(compiler_builtins-5525e237063e5553.compiler_builtins.8129c65e379068d4-cgu.000.rcgu.o):(.debug_abbrev)
    17d0     17d0        0     1                 $d
    191e     191e       e9     1         /home/famous282/.rustup/toolchains/stable-x86_64-unknown-linux-gnu/lib/rustlib/riscv32imac-unknown-none-elf/lib/libcompiler_builtins-5525e237063e5553.rlib(compiler_builtins-5525e237063e5553.compiler_builtins.8129c65e379068d4-cgu.193.rcgu.o):(.debug_abbrev)
    191e     191e        0     1                 $d
    1a07     1a07       ca     1         /home/famous282/.rustup/toolchains/stable-x86_64-unknown-linux-gnu/lib/rustlib/riscv32imac-unknown-none-elf/lib/libcompiler_builtins-5525e237063e5553.rlib(compiler_builtins-5525e237063e5553.compiler_builtins.8129c65e379068d4-cgu.205.rcgu.o):(.debug_abbrev)
    1a07     1a07        0     1                 $d
    1ad1     1ad1       aa     1         /home/famous282/.rustup/toolchains/stable-x86_64-unknown-linux-gnu/lib/rustlib/riscv32imac-unknown-none-elf/lib/libcompiler_builtins-5525e237063e5553.rlib(compiler_builtins-5525e237063e5553.compiler_builtins.8129c65e379068d4-cgu.221.rcgu.o):(.debug_abbrev)
    1ad1     1ad1        0     1                 $d
    1b7b     1b7b       5f     1         /home/famous282/.rustup/toolchains/stable-x86_64-unknown-linux-gnu/lib/rustlib/riscv32imac-unknown-none-elf/lib/libcompiler_builtins-5525e237063e5553.rlib(compiler_builtins-5525e237063e5553.compiler_builtins.8129c65e379068d4-cgu.247.rcgu.o):(.debug_abbrev)
    1b7b     1b7b        0     1                 $d
    1bda     1bda       e0     1         /home/famous282/.rustup/toolchains/stable-x86_64-unknown-linux-gnu/lib/rustlib/riscv32imac-unknown-none-elf/lib/libcompiler_builtins-5525e237063e5553.rlib(compiler_builtins-5525e237063e5553.compiler_builtins.8129c65e379068d4-cgu.248.rcgu.o):(.debug_abbrev)
    1bda     1bda        0     1                 $d
    1cba     1cba       cf     1         /home/famous282/.rustup/toolchains/stable-x86_64-unknown-linux-gnu/lib/rustlib/riscv32imac-unknown-none-elf/lib/libcompiler_builtins-5525e237063e5553.rlib(compiler_builtins-5525e237063e5553.compiler_builtins.8129c65e379068d4-cgu.249.rcgu.o):(.debug_abbrev)
    1cba     1cba        0     1                 $d
    1d89     1d89       5f     1         /home/famous282/.rustup/toolchains/stable-x86_64-unknown-linux-gnu/lib/rustlib/riscv32imac-unknown-none-elf/lib/libcompiler_builtins-5525e237063e5553.rlib(compiler_builtins-5525e237063e5553.compiler_builtins.8129c65e379068d4-cgu.256.rcgu.o):(.debug_abbrev)
    1d89     1d89        0     1                 $d
    1de8     1de8       2e     1         /home/famous282/.rustup/toolchains/stable-x86_64-unknown-linux-gnu/lib/rustlib/riscv32imac-unknown-none-elf/lib/libcompiler_builtins-5525e237063e5553.rlib(compiler_builtins-5525e237063e5553.compiler_builtins.8129c65e379068d4-cgu.264.rcgu.o):(.debug_abbrev)
    1de8     1de8        0     1                 $d
    1e16     1e16      131     1         /home/famous282/.rustup/toolchains/stable-x86_64-unknown-linux-gnu/lib/rustlib/riscv32imac-unknown-none-elf/lib/libcompiler_builtins-5525e237063e5553.rlib(compiler_builtins-5525e237063e5553.compiler_builtins.8129c65e379068d4-cgu.012.rcgu.o):(.debug_abbrev)
    1e16     1e16        0     1                 $d
    1f47     1f47       b9     1         /home/famous282/.rustup/toolchains/stable-x86_64-unknown-linux-gnu/lib/rustlib/riscv32imac-unknown-none-elf/lib/libcompiler_builtins-5525e237063e5553.rlib(compiler_builtins-5525e237063e5553.compiler_builtins.8129c65e379068d4-cgu.295.rcgu.o):(.debug_abbrev)
    1f47     1f47        0     1                 $d
    2000     2000       b9     1         /home/famous282/.rustup/toolchains/stable-x86_64-unknown-linux-gnu/lib/rustlib/riscv32imac-unknown-none-elf/lib/libcompiler_builtins-5525e237063e5553.rlib(compiler_builtins-5525e237063e5553.compiler_builtins.8129c65e379068d4-cgu.314.rcgu.o):(.debug_abbrev)
    2000     2000        0     1                 $d
    20b9     20b9       2e     1         /home/famous282/.rustup/toolchains/stable-x86_64-unknown-linux-gnu/lib/rustlib/riscv32imac-unknown-none-elf/lib/libcompiler_builtins-5525e237063e5553.rlib(compiler_builtins-5525e237063e5553.compiler_builtins.8129c65e379068d4-cgu.322.rcgu.o):(.debug_abbrev)
    20b9     20b9        0     1                 $d
    20e7     20e7       aa     1         /home/famous282/.rustup/toolchains/stable-x86_64-unknown-linux-gnu/lib/rustlib/riscv32imac-unknown-none-elf/lib/libcompiler_builtins-5525e237063e5553.rlib(compiler_builtins-5525e237063e5553.compiler_builtins.8129c65e379068d4-cgu.326.rcgu.o):(.debug_abbrev)
    20e7     20e7        0     1                 $d
    2191     2191       aa     1         /home/famous282/.rustup/toolchains/stable-x86_64-unknown-linux-gnu/lib/rustlib/riscv32imac-unknown-none-elf/lib/libcompiler_builtins-5525e237063e5553.rlib(compiler_builtins-5525e237063e5553.compiler_builtins.8129c65e379068d4-cgu.328.rcgu.o):(.debug_abbrev)
    2191     2191        0     1                 $d
    223b     223b       aa     1         /home/famous282/.rustup/toolchains/stable-x86_64-unknown-linux-gnu/lib/rustlib/riscv32imac-unknown-none-elf/lib/libcompiler_builtins-5525e237063e5553.rlib(compiler_builtins-5525e237063e5553.compiler_builtins.8129c65e379068d4-cgu.330.rcgu.o):(.debug_abbrev)
    223b     223b        0     1                 $d
    22e5     22e5       2e     1         /home/famous282/.rustup/toolchains/stable-x86_64-unknown-linux-gnu/lib/rustlib/riscv32imac-unknown-none-elf/lib/libcompiler_builtins-5525e237063e5553.rlib(compiler_builtins-5525e237063e5553.compiler_builtins.8129c65e379068d4-cgu.336.rcgu.o):(.debug_abbrev)
    22e5     22e5        0     1                 $d
       0        0    2a29e     1 .debug_info
       0        0      ba6     1         /home/famous282/1000linesOS/kernel/target/riscv32imac-unknown-none-elf/debug/deps/kernel-dfa3df23995ef8b4.24qdkavsqt2e6ckh6joba0u2j.0yvtx01.rcgu.o:(.debug_info)
       0        0        0     1                 .L0 
       0        0        0     1                 $d
     ba6      ba6      6e6     1         /home/famous282/1000linesOS/kernel/target/riscv32imac-unknown-none-elf/debug/deps/kernel-dfa3df23995ef8b4.3lszhsxzyn1vde1rs4win02um.0yvtx01.rcgu.o:(.debug_info)
     ba6      ba6        0     1                 .L0 
     ba6      ba6        0     1                 $d
    128c     128c      488     1         /home/famous282/1000linesOS/kernel/target/riscv32imac-unknown-none-elf/debug/deps/kernel-dfa3df23995ef8b4.4ftrnxq5k2ijxu6ko4fxfrcj8.0yvtx01.rcgu.o:(.debug_info)
    128c     128c        0     1                 .L0 
    128c     128c        0     1                 $d
    1714     1714      7c4     1         /home/famous282/1000linesOS/kernel/target/riscv32imac-unknown-none-elf/debug/deps/kernel-dfa3df23995ef8b4.63ptxjvpldbz03i077ow9897u.0yvtx01.rcgu.o:(.debug_info)
    1714     1714        0     1                 .L0 
    1714     1714        0     1                 $d
    1ed8     1ed8      648     1         /home/famous282/1000linesOS/kernel/target/riscv32imac-unknown-none-elf/debug/deps/kernel-dfa3df23995ef8b4.aqtcxbzy89ozo9dgld6fn0q5h.0yvtx01.rcgu.o:(.debug_info)
    1ed8     1ed8        0     1                 .L0 
    1ed8     1ed8        0     1                 $d
    2520     2520      bc9     1         /home/famous282/1000linesOS/kernel/target/riscv32imac-unknown-none-elf/debug/deps/kernel-dfa3df23995ef8b4.b1wfjfrxrno1sga9zbdwiqldk.0yvtx01.rcgu.o:(.debug_info)
    2520     2520        0     1                 .L0 
    2520     2520        0     1                 $d
    30e9     30e9      33c     1         /home/famous282/1000linesOS/kernel/target/riscv32imac-unknown-none-elf/debug/deps/kernel-dfa3df23995ef8b4.bd4aykr3vnli855y8j4uib0hb.0yvtx01.rcgu.o:(.debug_info)
    30e9     30e9        0     1                 .L0 
    30e9     30e9        0     1                 $d
    3425     3425    20cb5     1         /home/famous282/.rustup/toolchains/stable-x86_64-unknown-linux-gnu/lib/rustlib/riscv32imac-unknown-none-elf/lib/libcore-36e1cca942c0a58a.rlib(core-36e1cca942c0a58a.core.283c90c5601d86be-cgu.0.rcgu.o):(.debug_info)
    3425     3425        0     1                 .L0 
    3425     3425        0     1                 $d
   240da    240da       86     1         /home/famous282/.rustup/toolchains/stable-x86_64-unknown-linux-gnu/lib/rustlib/riscv32imac-unknown-none-elf/lib/libcompiler_builtins-5525e237063e5553.rlib(compiler_builtins-5525e237063e5553.compiler_builtins.8129c65e379068d4-cgu.107.rcgu.o):(.debug_info)
   240da    240da        0     1                 .L0 
   240da    240da        0     1                 $d
   24160    24160       a1     1         /home/famous282/.rustup/toolchains/stable-x86_64-unknown-linux-gnu/lib/rustlib/riscv32imac-unknown-none-elf/lib/libcompiler_builtins-5525e237063e5553.rlib(compiler_builtins-5525e237063e5553.compiler_builtins.8129c65e379068d4-cgu.163.rcgu.o):(.debug_info)
   24160    24160        0     1                 .L0 
   24160    24160        0     1                 $d
   24201    24201      419     1         /home/famous282/.rustup/toolchains/stable-x86_64-unknown-linux-gnu/lib/rustlib/riscv32imac-unknown-none-elf/lib/libcompiler_builtins-5525e237063e5553.rlib(compiler_builtins-5525e237063e5553.compiler_builtins.8129c65e379068d4-cgu.017.rcgu.o):(.debug_info)
   24201    24201        0     1                 .L0 
   24201    24201        0     1                 $d
   2461a    2461a      15e     1         /home/famous282/.rustup/toolchains/stable-x86_64-unknown-linux-gnu/lib/rustlib/riscv32imac-unknown-none-elf/lib/libcompiler_builtins-5525e237063e5553.rlib(compiler_builtins-5525e237063e5553.compiler_builtins.8129c65e379068d4-cgu.173.rcgu.o):(.debug_info)
   2461a    2461a        0     1                 .L0 
   2461a    2461a        0     1                 $d
   24778    24778       51     1         /home/famous282/.rustup/toolchains/stable-x86_64-unknown-linux-gnu/lib/rustlib/riscv32imac-unknown-none-elf/lib/libcompiler_builtins-5525e237063e5553.rlib(compiler_builtins-5525e237063e5553.compiler_builtins.8129c65e379068d4-cgu.177.rcgu.o):(.debug_info)
   24778    24778        0     1                 .L0 
   24778    24778        0     1                 $d
   247c9    247c9     14d6     1         /home/famous282/.rustup/toolchains/stable-x86_64-unknown-linux-gnu/lib/rustlib/riscv32imac-unknown-none-elf/lib/libcompiler_builtins-5525e237063e5553.rlib(compiler_builtins-5525e237063e5553.compiler_builtins.8129c65e379068d4-cgu.003.rcgu.o):(.debug_info)
   247c9    247c9        0     1                 .L0 
   247c9    247c9        0     1                 $d
   25c9f    25c9f      37f     1         /home/famous282/.rustup/toolchains/stable-x86_64-unknown-linux-gnu/lib/rustlib/riscv32imac-unknown-none-elf/lib/libcompiler_builtins-5525e237063e5553.rlib(compiler_builtins-5525e237063e5553.compiler_builtins.8129c65e379068d4-cgu.019.rcgu.o):(.debug_info)
   25c9f    25c9f        0     1                 .L0 
   25c9f    25c9f        0     1                 $d
   2601e    2601e      1d8     1         /home/famous282/.rustup/toolchains/stable-x86_64-unknown-linux-gnu/lib/rustlib/riscv32imac-unknown-none-elf/lib/libcompiler_builtins-5525e237063e5553.rlib(compiler_builtins-5525e237063e5553.compiler_builtins.8129c65e379068d4-cgu.178.rcgu.o):(.debug_info)
   2601e    2601e        0     1                 .L0 
   2601e    2601e        0     1                 $d
   261f6    261f6       a1     1         /home/famous282/.rustup/toolchains/stable-x86_64-unknown-linux-gnu/lib/rustlib/riscv32imac-unknown-none-elf/lib/libcompiler_builtins-5525e237063e5553.rlib(compiler_builtins-5525e237063e5553.compiler_builtins.8129c65e379068d4-cgu.184.rcgu.o):(.debug_info)
   261f6    261f6        0     1                 .L0 
   261f6    261f6        0     1                 $d
   26297    26297       51     1         /home/famous282/.rustup/toolchains/stable-x86_64-unknown-linux-gnu/lib/rustlib/riscv32imac-unknown-none-elf/lib/libcompiler_builtins-5525e237063e5553.rlib(compiler_builtins-5525e237063e5553.compiler_builtins.8129c65e379068d4-cgu.192.rcgu.o):(.debug_info)
   26297    26297        0     1                 .L0 
   26297    26297        0     1                 $d
   262e8    262e8     182c     1         /home/famous282/.rustup/toolchains/stable-x86_64-unknown-linux-gnu/lib/rustlib/riscv32imac-unknown-none-elf/lib/libcompiler_builtins-5525e237063e5553.rlib(compiler_builtins-5525e237063e5553.compiler_builtins.8129c65e379068d4-cgu.000.rcgu.o):(.debug_info)
   262e8    262e8        0     1                 .L0 
   262e8    262e8        0     1                 $d
   27b14    27b14      2a7     1         /home/famous282/.rustup/toolchains/stable-x86_64-unknown-linux-gnu/lib/rustlib/riscv32imac-unknown-none-elf/lib/libcompiler_builtins-5525e237063e5553.rlib(compiler_builtins-5525e237063e5553.compiler_builtins.8129c65e379068d4-cgu.193.rcgu.o):(.debug_info)
   27b14    27b14        0     1                 .L0 
   27b14    27b14        0     1                 $d
   27dbb    27dbb      377     1         /home/famous282/.rustup/toolchains/stable-x86_64-unknown-linux-gnu/lib/rustlib/riscv32imac-unknown-none-elf/lib/libcompiler_builtins-5525e237063e5553.rlib(compiler_builtins-5525e237063e5553.compiler_builtins.8129c65e379068d4-cgu.205.rcgu.o):(.debug_info)
   27dbb    27dbb        0     1                 .L0 
   27dbb    27dbb        0     1                 $d
   28132    28132      15e     1         /home/famous282/.rustup/toolchains/stable-x86_64-unknown-linux-gnu/lib/rustlib/riscv32imac-unknown-none-elf/lib/libcompiler_builtins-5525e237063e5553.rlib(compiler_builtins-5525e237063e5553.compiler_builtins.8129c65e379068d4-cgu.221.rcgu.o):(.debug_info)
   28132    28132        0     1                 .L0 
   28132    28132        0     1                 $d
   28290    28290       a1     1         /home/famous282/.rustup/toolchains/stable-x86_64-unknown-linux-gnu/lib/rustlib/riscv32imac-unknown-none-elf/lib/libcompiler_builtins-5525e237063e5553.rlib(compiler_builtins-5525e237063e5553.compiler_builtins.8129c65e379068d4-cgu.247.rcgu.o):(.debug_info)
   28290    28290        0     1                 .L0 
   28290    28290        0     1                 $d
   28331    28331      274     1         /home/famous282/.rustup/toolchains/stable-x86_64-unknown-linux-gnu/lib/rustlib/riscv32imac-unknown-none-elf/lib/libcompiler_builtins-5525e237063e5553.rlib(compiler_builtins-5525e237063e5553.compiler_builtins.8129c65e379068d4-cgu.248.rcgu.o):(.debug_info)
   28331    28331        0     1                 .L0 
   28331    28331        0     1                 $d
   285a5    285a5      273     1         /home/famous282/.rustup/toolchains/stable-x86_64-unknown-linux-gnu/lib/rustlib/riscv32imac-unknown-none-elf/lib/libcompiler_builtins-5525e237063e5553.rlib(compiler_builtins-5525e237063e5553.compiler_builtins.8129c65e379068d4-cgu.249.rcgu.o):(.debug_info)
   285a5    285a5        0     1                 .L0 
   285a5    285a5        0     1                 $d
   28818    28818       a1     1         /home/famous282/.rustup/toolchains/stable-x86_64-unknown-linux-gnu/lib/rustlib/riscv32imac-unknown-none-elf/lib/libcompiler_builtins-5525e237063e5553.rlib(compiler_builtins-5525e237063e5553.compiler_builtins.8129c65e379068d4-cgu.256.rcgu.o):(.debug_info)
   28818    28818        0     1                 .L0 
   28818    28818        0     1                 $d
   288b9    288b9       4b     1         /home/famous282/.rustup/toolchains/stable-x86_64-unknown-linux-gnu/lib/rustlib/riscv32imac-unknown-none-elf/lib/libcompiler_builtins-5525e237063e5553.rlib(compiler_builtins-5525e237063e5553.compiler_builtins.8129c65e379068d4-cgu.264.rcgu.o):(.debug_info)
   288b9    288b9        0     1                 .L0 
   288b9    288b9        0     1                 $d
   28904    28904      f19     1         /home/famous282/.rustup/toolchains/stable-x86_64-unknown-linux-gnu/lib/rustlib/riscv32imac-unknown-none-elf/lib/libcompiler_builtins-5525e237063e5553.rlib(compiler_builtins-5525e237063e5553.compiler_builtins.8129c65e379068d4-cgu.012.rcgu.o):(.debug_info)
   28904    28904        0     1                 .L0 
   28904    28904        0     1                 $d
   2981d    2981d      1d8     1         /home/famous282/.rustup/toolchains/stable-x86_64-unknown-linux-gnu/lib/rustlib/riscv32imac-unknown-none-elf/lib/libcompiler_builtins-5525e237063e5553.rlib(compiler_builtins-5525e237063e5553.compiler_builtins.8129c65e379068d4-cgu.295.rcgu.o):(.debug_info)
   2981d    2981d        0     1                 .L0 
   2981d    2981d        0     1                 $d
   299f5    299f5      1d8     1         /home/famous282/.rustup/toolchains/stable-x86_64-unknown-linux-gnu/lib/rustlib/riscv32imac-unknown-none-elf/lib/libcompiler_builtins-5525e237063e5553.rlib(compiler_builtins-5525e237063e5553.compiler_builtins.8129c65e379068d4-cgu.314.rcgu.o):(.debug_info)
   299f5    299f5        0     1                 .L0 
   299f5    299f5        0     1                 $d
   29bcd    29bcd       51     1         /home/famous282/.rustup/toolchains/stable-x86_64-unknown-linux-gnu/lib/rustlib/riscv32imac-unknown-none-elf/lib/libcompiler_builtins-5525e237063e5553.rlib(compiler_builtins-5525e237063e5553.compiler_builtins.8129c65e379068d4-cgu.322.rcgu.o):(.debug_info)
   29bcd    29bcd        0     1                 .L0 
   29bcd    29bcd        0     1                 $d
   29c1e    29c1e      15e     1         /home/famous282/.rustup/toolchains/stable-x86_64-unknown-linux-gnu/lib/rustlib/riscv32imac-unknown-none-elf/lib/libcompiler_builtins-5525e237063e5553.rlib(compiler_builtins-5525e237063e5553.compiler_builtins.8129c65e379068d4-cgu.326.rcgu.o):(.debug_info)
   29c1e    29c1e        0     1                 .L0 
   29c1e    29c1e        0     1                 $d
   29d7c    29d7c      15e     1         /home/famous282/.rustup/toolchains/stable-x86_64-unknown-linux-gnu/lib/rustlib/riscv32imac-unknown-none-elf/lib/libcompiler_builtins-5525e237063e5553.rlib(compiler_builtins-5525e237063e5553.compiler_builtins.8129c65e379068d4-cgu.328.rcgu.o):(.debug_info)
   29d7c    29d7c        0     1                 .L0 
   29d7c    29d7c        0     1                 $d
   29eda    29eda      373     1         /home/famous282/.rustup/toolchains/stable-x86_64-unknown-linux-gnu/lib/rustlib/riscv32imac-unknown-none-elf/lib/libcompiler_builtins-5525e237063e5553.rlib(compiler_builtins-5525e237063e5553.compiler_builtins.8129c65e379068d4-cgu.330.rcgu.o):(.debug_info)
   29eda    29eda        0     1                 .L0 
   29eda    29eda        0     1                 $d
   2a24d    2a24d       51     1         /home/famous282/.rustup/toolchains/stable-x86_64-unknown-linux-gnu/lib/rustlib/riscv32imac-unknown-none-elf/lib/libcompiler_builtins-5525e237063e5553.rlib(compiler_builtins-5525e237063e5553.compiler_builtins.8129c65e379068d4-cgu.336.rcgu.o):(.debug_info)
   2a24d    2a24d        0     1                 .L0 
   2a24d    2a24d        0     1                 $d
       0        0     1590     1 .debug_aranges
       0        0       48     1         /home/famous282/1000linesOS/kernel/target/riscv32imac-unknown-none-elf/debug/deps/kernel-dfa3df23995ef8b4.24qdkavsqt2e6ckh6joba0u2j.0yvtx01.rcgu.o:(.debug_aranges)
       0        0        0     1                 $d
      48       48       30     1         /home/famous282/1000linesOS/kernel/target/riscv32imac-unknown-none-elf/debug/deps/kernel-dfa3df23995ef8b4.3lszhsxzyn1vde1rs4win02um.0yvtx01.rcgu.o:(.debug_aranges)
      48       48        0     1                 $d
      78       78       20     1         /home/famous282/1000linesOS/kernel/target/riscv32imac-unknown-none-elf/debug/deps/kernel-dfa3df23995ef8b4.4ftrnxq5k2ijxu6ko4fxfrcj8.0yvtx01.rcgu.o:(.debug_aranges)
      78       78        0     1                 $d
      98       98       30     1         /home/famous282/1000linesOS/kernel/target/riscv32imac-unknown-none-elf/debug/deps/kernel-dfa3df23995ef8b4.63ptxjvpldbz03i077ow9897u.0yvtx01.rcgu.o:(.debug_aranges)
      98       98        0     1                 $d
      c8       c8       20     1         /home/famous282/1000linesOS/kernel/target/riscv32imac-unknown-none-elf/debug/deps/kernel-dfa3df23995ef8b4.aqtcxbzy89ozo9dgld6fn0q5h.0yvtx01.rcgu.o:(.debug_aranges)
      c8       c8        0     1                 $d
      e8       e8       28     1         /home/famous282/1000linesOS/kernel/target/riscv32imac-unknown-none-elf/debug/deps/kernel-dfa3df23995ef8b4.b1wfjfrxrno1sga9zbdwiqldk.0yvtx01.rcgu.o:(.debug_aranges)
      e8       e8        0     1                 $d
     110      110       28     1         /home/famous282/1000linesOS/kernel/target/riscv32imac-unknown-none-elf/debug/deps/kernel-dfa3df23995ef8b4.bd4aykr3vnli855y8j4uib0hb.0yvtx01.rcgu.o:(.debug_aranges)
     110      110        0     1                 $d
     138      138     1078     1         /home/famous282/.rustup/toolchains/stable-x86_64-unknown-linux-gnu/lib/rustlib/riscv32imac-unknown-none-elf/lib/libcore-36e1cca942c0a58a.rlib(core-36e1cca942c0a58a.core.283c90c5601d86be-cgu.0.rcgu.o):(.debug_aranges)
     138      138        0     1                 $d
    11b0     11b0       20     1         /home/famous282/.rustup/toolchains/stable-x86_64-unknown-linux-gnu/lib/rustlib/riscv32imac-unknown-none-elf/lib/libcompiler_builtins-5525e237063e5553.rlib(compiler_builtins-5525e237063e5553.compiler_builtins.8129c65e379068d4-cgu.107.rcgu.o):(.debug_aranges)
    11b0     11b0        0     1                 $d
    11d0     11d0       20     1         /home/famous282/.rustup/toolchains/stable-x86_64-unknown-linux-gnu/lib/rustlib/riscv32imac-unknown-none-elf/lib/libcompiler_builtins-5525e237063e5553.rlib(compiler_builtins-5525e237063e5553.compiler_builtins.8129c65e379068d4-cgu.163.rcgu.o):(.debug_aranges)
    11d0     11d0        0     1                 $d
    11f0     11f0       28     1         /home/famous282/.rustup/toolchains/stable-x86_64-unknown-linux-gnu/lib/rustlib/riscv32imac-unknown-none-elf/lib/libcompiler_builtins-5525e237063e5553.rlib(compiler_builtins-5525e237063e5553.compiler_builtins.8129c65e379068d4-cgu.017.rcgu.o):(.debug_aranges)
    11f0     11f0        0     1                 $d
    1218     1218       20     1         /home/famous282/.rustup/toolchains/stable-x86_64-unknown-linux-gnu/lib/rustlib/riscv32imac-unknown-none-elf/lib/libcompiler_builtins-5525e237063e5553.rlib(compiler_builtins-5525e237063e5553.compiler_builtins.8129c65e379068d4-cgu.173.rcgu.o):(.debug_aranges)
    1218     1218        0     1                 $d
    1238     1238       20     1         /home/famous282/.rustup/toolchains/stable-x86_64-unknown-linux-gnu/lib/rustlib/riscv32imac-unknown-none-elf/lib/libcompiler_builtins-5525e237063e5553.rlib(compiler_builtins-5525e237063e5553.compiler_builtins.8129c65e379068d4-cgu.177.rcgu.o):(.debug_aranges)
    1238     1238        0     1                 $d
    1258     1258       38     1         /home/famous282/.rustup/toolchains/stable-x86_64-unknown-linux-gnu/lib/rustlib/riscv32imac-unknown-none-elf/lib/libcompiler_builtins-5525e237063e5553.rlib(compiler_builtins-5525e237063e5553.compiler_builtins.8129c65e379068d4-cgu.003.rcgu.o):(.debug_aranges)
    1258     1258        0     1                 $d
    1290     1290       60     1         /home/famous282/.rustup/toolchains/stable-x86_64-unknown-linux-gnu/lib/rustlib/riscv32imac-unknown-none-elf/lib/libcompiler_builtins-5525e237063e5553.rlib(compiler_builtins-5525e237063e5553.compiler_builtins.8129c65e379068d4-cgu.019.rcgu.o):(.debug_aranges)
    1290     1290        0     1                 $d
    12f0     12f0       20     1         /home/famous282/.rustup/toolchains/stable-x86_64-unknown-linux-gnu/lib/rustlib/riscv32imac-unknown-none-elf/lib/libcompiler_builtins-5525e237063e5553.rlib(compiler_builtins-5525e237063e5553.compiler_builtins.8129c65e379068d4-cgu.178.rcgu.o):(.debug_aranges)
    12f0     12f0        0     1                 $d
    1310     1310       20     1         /home/famous282/.rustup/toolchains/stable-x86_64-unknown-linux-gnu/lib/rustlib/riscv32imac-unknown-none-elf/lib/libcompiler_builtins-5525e237063e5553.rlib(compiler_builtins-5525e237063e5553.compiler_builtins.8129c65e379068d4-cgu.184.rcgu.o):(.debug_aranges)
    1310     1310        0     1                 $d
    1330     1330       20     1         /home/famous282/.rustup/toolchains/stable-x86_64-unknown-linux-gnu/lib/rustlib/riscv32imac-unknown-none-elf/lib/libcompiler_builtins-5525e237063e5553.rlib(compiler_builtins-5525e237063e5553.compiler_builtins.8129c65e379068d4-cgu.192.rcgu.o):(.debug_aranges)
    1330     1330        0     1                 $d
    1350     1350       30     1         /home/famous282/.rustup/toolchains/stable-x86_64-unknown-linux-gnu/lib/rustlib/riscv32imac-unknown-none-elf/lib/libcompiler_builtins-5525e237063e5553.rlib(compiler_builtins-5525e237063e5553.compiler_builtins.8129c65e379068d4-cgu.000.rcgu.o):(.debug_aranges)
    1350     1350        0     1                 $d
    1380     1380       20     1         /home/famous282/.rustup/toolchains/stable-x86_64-unknown-linux-gnu/lib/rustlib/riscv32imac-unknown-none-elf/lib/libcompiler_builtins-5525e237063e5553.rlib(compiler_builtins-5525e237063e5553.compiler_builtins.8129c65e379068d4-cgu.193.rcgu.o):(.debug_aranges)
    1380     1380        0     1                 $d
    13a0     13a0       20     1         /home/famous282/.rustup/toolchains/stable-x86_64-unknown-linux-gnu/lib/rustlib/riscv32imac-unknown-none-elf/lib/libcompiler_builtins-5525e237063e5553.rlib(compiler_builtins-5525e237063e5553.compiler_builtins.8129c65e379068d4-cgu.205.rcgu.o):(.debug_aranges)
    13a0     13a0        0     1                 $d
    13c0     13c0       20     1         /home/famous282/.rustup/toolchains/stable-x86_64-unknown-linux-gnu/lib/rustlib/riscv32imac-unknown-none-elf/lib/libcompiler_builtins-5525e237063e5553.rlib(compiler_builtins-5525e237063e5553.compiler_builtins.8129c65e379068d4-cgu.221.rcgu.o):(.debug_aranges)
    13c0     13c0        0     1                 $d
    13e0     13e0       20     1         /home/famous282/.rustup/toolchains/stable-x86_64-unknown-linux-gnu/lib/rustlib/riscv32imac-unknown-none-elf/lib/libcompiler_builtins-5525e237063e5553.rlib(compiler_builtins-5525e237063e5553.compiler_builtins.8129c65e379068d4-cgu.247.rcgu.o):(.debug_aranges)
    13e0     13e0        0     1                 $d
    1400     1400       20     1         /home/famous282/.rustup/toolchains/stable-x86_64-unknown-linux-gnu/lib/rustlib/riscv32imac-unknown-none-elf/lib/libcompiler_builtins-5525e237063e5553.rlib(compiler_builtins-5525e237063e5553.compiler_builtins.8129c65e379068d4-cgu.248.rcgu.o):(.debug_aranges)
    1400     1400        0     1                 $d
    1420     1420       20     1         /home/famous282/.rustup/toolchains/stable-x86_64-unknown-linux-gnu/lib/rustlib/riscv32imac-unknown-none-elf/lib/libcompiler_builtins-5525e237063e5553.rlib(compiler_builtins-5525e237063e5553.compiler_builtins.8129c65e379068d4-cgu.249.rcgu.o):(.debug_aranges)
    1420     1420        0     1                 $d
    1440     1440       20     1         /home/famous282/.rustup/toolchains/stable-x86_64-unknown-linux-gnu/lib/rustlib/riscv32imac-unknown-none-elf/lib/libcompiler_builtins-5525e237063e5553.rlib(compiler_builtins-5525e237063e5553.compiler_builtins.8129c65e379068d4-cgu.256.rcgu.o):(.debug_aranges)
    1440     1440        0     1                 $d
    1460     1460       20     1         /home/famous282/.rustup/toolchains/stable-x86_64-unknown-linux-gnu/lib/rustlib/riscv32imac-unknown-none-elf/lib/libcompiler_builtins-5525e237063e5553.rlib(compiler_builtins-5525e237063e5553.compiler_builtins.8129c65e379068d4-cgu.264.rcgu.o):(.debug_aranges)
    1460     1460        0     1                 $d
    1480     1480       30     1         /home/famous282/.rustup/toolchains/stable-x86_64-unknown-linux-gnu/lib/rustlib/riscv32imac-unknown-none-elf/lib/libcompiler_builtins-5525e237063e5553.rlib(compiler_builtins-5525e237063e5553.compiler_builtins.8129c65e379068d4-cgu.012.rcgu.o):(.debug_aranges)
    1480     1480        0     1                 $d
    14b0     14b0       20     1         /home/famous282/.rustup/toolchains/stable-x86_64-unknown-linux-gnu/lib/rustlib/riscv32imac-unknown-none-elf/lib/libcompiler_builtins-5525e237063e5553.rlib(compiler_builtins-5525e237063e5553.compiler_builtins.8129c65e379068d4-cgu.295.rcgu.o):(.debug_aranges)
    14b0     14b0        0     1                 $d
    14d0     14d0       20     1         /home/famous282/.rustup/toolchains/stable-x86_64-unknown-linux-gnu/lib/rustlib/riscv32imac-unknown-none-elf/lib/libcompiler_builtins-5525e237063e5553.rlib(compiler_builtins-5525e237063e5553.compiler_builtins.8129c65e379068d4-cgu.314.rcgu.o):(.debug_aranges)
    14d0     14d0        0     1                 $d
    14f0     14f0       20     1         /home/famous282/.rustup/toolchains/stable-x86_64-unknown-linux-gnu/lib/rustlib/riscv32imac-unknown-none-elf/lib/libcompiler_builtins-5525e237063e5553.rlib(compiler_builtins-5525e237063e5553.compiler_builtins.8129c65e379068d4-cgu.322.rcgu.o):(.debug_aranges)
    14f0     14f0        0     1                 $d
    1510     1510       20     1         /home/famous282/.rustup/toolchains/stable-x86_64-unknown-linux-gnu/lib/rustlib/riscv32imac-unknown-none-elf/lib/libcompiler_builtins-5525e237063e5553.rlib(compiler_builtins-5525e237063e5553.compiler_builtins.8129c65e379068d4-cgu.326.rcgu.o):(.debug_aranges)
    1510     1510        0     1                 $d
    1530     1530       20     1         /home/famous282/.rustup/toolchains/stable-x86_64-unknown-linux-gnu/lib/rustlib/riscv32imac-unknown-none-elf/lib/libcompiler_builtins-5525e237063e5553.rlib(compiler_builtins-5525e237063e5553.compiler_builtins.8129c65e379068d4-cgu.328.rcgu.o):(.debug_aranges)
    1530     1530        0     1                 $d
    1550     1550       20     1         /home/famous282/.rustup/toolchains/stable-x86_64-unknown-linux-gnu/lib/rustlib/riscv32imac-unknown-none-elf/lib/libcompiler_builtins-5525e237063e5553.rlib(compiler_builtins-5525e237063e5553.compiler_builtins.8129c65e379068d4-cgu.330.rcgu.o):(.debug_aranges)
    1550     1550        0     1                 $d
    1570     1570       20     1         /home/famous282/.rustup/toolchains/stable-x86_64-unknown-linux-gnu/lib/rustlib/riscv32imac-unknown-none-elf/lib/libcompiler_builtins-5525e237063e5553.rlib(compiler_builtins-5525e237063e5553.compiler_builtins.8129c65e379068d4-cgu.336.rcgu.o):(.debug_aranges)
    1570     1570        0     1                 $d
       0        0     d238     1 .debug_ranges
       0        0       98     1         /home/famous282/1000linesOS/kernel/target/riscv32imac-unknown-none-elf/debug/deps/kernel-dfa3df23995ef8b4.24qdkavsqt2e6ckh6joba0u2j.0yvtx01.rcgu.o:(.debug_ranges)
       0        0        0     1                 .L0 
       0        0        0     1                 $d
      18       18        0     1                 .L0 
      38       38        0     1                 .L0 
      50       50        0     1                 .L0 
      68       68        0     1                 .L0 
      98       98       a0     1         /home/famous282/1000linesOS/kernel/target/riscv32imac-unknown-none-elf/debug/deps/kernel-dfa3df23995ef8b4.3lszhsxzyn1vde1rs4win02um.0yvtx01.rcgu.o:(.debug_ranges)
      98       98        0     1                 .L0 
      98       98        0     1                 $d
      b8       b8        0     1                 .L0 
      e0       e0        0     1                 .L0 
     100      100        0     1                 .L0 
     120      120        0     1                 .L0 
     138      138      180     1         /home/famous282/1000linesOS/kernel/target/riscv32imac-unknown-none-elf/debug/deps/kernel-dfa3df23995ef8b4.63ptxjvpldbz03i077ow9897u.0yvtx01.rcgu.o:(.debug_ranges)
     138      138        0     1                 .L0 
     138      138        0     1                 $d
     150      150        0     1                 .L0 
     168      168        0     1                 .L0 
     1f0      1f0        0     1                 .L0 
     208      208        0     1                 .L0 
     220      220        0     1                 .L0 
     238      238        0     1                 .L0 
     260      260        0     1                 .L0 
     288      288        0     1                 .L0 
     2a0      2a0        0     1                 .L0 
     2b8      2b8      118     1         /home/famous282/1000linesOS/kernel/target/riscv32imac-unknown-none-elf/debug/deps/kernel-dfa3df23995ef8b4.b1wfjfrxrno1sga9zbdwiqldk.0yvtx01.rcgu.o:(.debug_ranges)
     2b8      2b8        0     1                 .L0 
     2b8      2b8        0     1                 $d
     2d0      2d0        0     1                 .L0 
     2f0      2f0        0     1                 .L0 
     310      310        0     1                 .L0 
     330      330        0     1                 .L0 
     348      348        0     1                 .L0 
     360      360        0     1                 .L0 
     380      380        0     1                 .L0 
     3a0      3a0        0     1                 .L0 
     3b8      3b8        0     1                 .L0 
     3d0      3d0       48     1         /home/famous282/1000linesOS/kernel/target/riscv32imac-unknown-none-elf/debug/deps/kernel-dfa3df23995ef8b4.bd4aykr3vnli855y8j4uib0hb.0yvtx01.rcgu.o:(.debug_ranges)
     3d0      3d0        0     1                 .L0 
     3d0      3d0        0     1                 $d
     3e8      3e8        0     1                 .L0 
     400      400        0     1                 .L0 
     418      418     af70     1         /home/famous282/.rustup/toolchains/stable-x86_64-unknown-linux-gnu/lib/rustlib/riscv32imac-unknown-none-elf/lib/libcore-36e1cca942c0a58a.rlib(core-36e1cca942c0a58a.core.283c90c5601d86be-cgu.0.rcgu.o):(.debug_ranges)
     418      418        0     1                 .L0 
     418      418        0     1                 $d
     430      430        0     1                 .L0 
     450      450        0     1                 .L0 
     470      470        0     1                 .L0 
     488      488        0     1                 .L0 
     4a8      4a8        0     1                 .L0 
     4c8      4c8        0     1                 .L0 
     4e0      4e0        0     1                 .L0 
     4f8      4f8        0     1                 .L0 
     510      510        0     1                 .L0 
     530      530        0     1                 .L0 
     550      550        0     1                 .L0 
     570      570        0     1                 .L0 
     588      588        0     1                 .L0 
     5a0      5a0        0     1                 .L0 
     5b8      5b8        0     1                 .L0 
     5d0      5d0        0     1                 .L0 
     5e8      5e8        0     1                 .L0 
     600      600        0     1                 .L0 
     618      618        0     1                 .L0 
     630      630        0     1                 .L0 
     658      658        0     1                 .L0 
     680      680        0     1                 .L0 
     6a8      6a8        0     1                 .L0 
     6c8      6c8        0     1                 .L0 
     6e0      6e0        0     1                 .L0 
     6f8      6f8        0     1                 .L0 
     710      710        0     1                 .L0 
     728      728        0     1                 .L0 
     748      748        0     1                 .L0 
     760      760        0     1                 .L0 
     780      780        0     1                 .L0 
     7a0      7a0        0     1                 .L0 
     7b8      7b8        0     1                 .L0 
     7d0      7d0        0     1                 .L0 
     7f0      7f0        0     1                 .L0 
     808      808        0     1                 .L0 
     820      820        0     1                 .L0 
     838      838        0     1                 .L0 
     850      850        0     1                 .L0 
     868      868        0     1                 .L0 
     880      880        0     1                 .L0 
     898      898        0     1                 .L0 
     8b8      8b8        0     1                 .L0 
     8e0      8e0        0     1                 .L0 
     900      900        0     1                 .L0 
     918      918        0     1                 .L0 
     930      930        0     1                 .L0 
     948      948        0     1                 .L0 
     960      960        0     1                 .L0 
     980      980        0     1                 .L0 
     9a8      9a8        0     1                 .L0 
     9c0      9c0        0     1                 .L0 
     9d8      9d8        0     1                 .L0 
     9f0      9f0        0     1                 .L0 
     a08      a08        0     1                 .L0 
     a20      a20        0     1                 .L0 
     a38      a38        0     1                 .L0 
     a58      a58        0     1                 .L0 
     a70      a70        0     1                 .L0 
     a98      a98        0     1                 .L0 
     ac0      ac0        0     1                 .L0 
     ae8      ae8        0     1                 .L0 
     b10      b10        0     1                 .L0 
     b28      b28        0     1                 .L0 
     b48      b48        0     1                 .L0 
     b70      b70        0     1                 .L0 
     b98      b98        0     1                 .L0 
     bc0      bc0        0     1                 .L0 
     be8      be8        0     1                 .L0 
     c00      c00        0     1                 .L0 
     c20      c20        0     1                 .L0 
     c38      c38        0     1                 .L0 
     c58      c58        0     1                 .L0 
     c78      c78        0     1                 .L0 
     c90      c90        0     1                 .L0 
     ca8      ca8        0     1                 .L0 
     cc0      cc0        0     1                 .L0 
     cd8      cd8        0     1                 .L0 
     cf0      cf0        0     1                 .L0 
     d08      d08        0     1                 .L0 
     d20      d20        0     1                 .L0 
     d48      d48        0     1                 .L0 
     d68      d68        0     1                 .L0 
     d88      d88        0     1                 .L0 
     da8      da8        0     1                 .L0 
     dc0      dc0        0     1                 .L0 
     dd8      dd8        0     1                 .L0 
     df0      df0        0     1                 .L0 
     e08      e08        0     1                 .L0 
     e20      e20        0     1                 .L0 
     e38      e38        0     1                 .L0 
     e50      e50        0     1                 .L0 
     e68      e68        0     1                 .L0 
     e80      e80        0     1                 .L0 
     e98      e98        0     1                 .L0 
     eb8      eb8        0     1                 .L0 
     ed8      ed8        0     1                 .L0 
     ef8      ef8        0     1                 .L0 
     f18      f18        0     1                 .L0 
     f30      f30        0     1                 .L0 
     f50      f50        0     1                 .L0 
     f70      f70        0     1                 .L0 
     f88      f88        0     1                 .L0 
     fa0      fa0        0     1                 .L0 
     fb8      fb8        0     1                 .L0 
     fd0      fd0        0     1                 .L0 
     fe8      fe8        0     1                 .L0 
    1000     1000        0     1                 .L0 
    1020     1020        0     1                 .L0 
    1038     1038        0     1                 .L0 
    1060     1060        0     1                 .L0 
    1078     1078        0     1                 .L0 
    1090     1090        0     1                 .L0 
    10a8     10a8        0     1                 .L0 
    10c0     10c0        0     1                 .L0 
    10d8     10d8        0     1                 .L0 
    10f0     10f0        0     1                 .L0 
    1108     1108        0     1                 .L0 
    1130     1130        0     1                 .L0 
    1150     1150        0     1                 .L0 
    1168     1168        0     1                 .L0 
    1190     1190        0     1                 .L0 
    11a8     11a8        0     1                 .L0 
    11c0     11c0        0     1                 .L0 
    11d8     11d8        0     1                 .L0 
    11f0     11f0        0     1                 .L0 
    1218     1218        0     1                 .L0 
    1230     1230        0     1                 .L0 
    1248     1248        0     1                 .L0 
    1260     1260        0     1                 .L0 
    1278     1278        0     1                 .L0 
    1290     1290        0     1                 .L0 
    12a8     12a8        0     1                 .L0 
    12d0     12d0        0     1                 .L0 
    12e8     12e8        0     1                 .L0 
    1300     1300        0     1                 .L0 
    1318     1318        0     1                 .L0 
    1330     1330        0     1                 .L0 
    1348     1348        0     1                 .L0 
    1360     1360        0     1                 .L0 
    1378     1378        0     1                 .L0 
    13a8     13a8        0     1                 .L0 
    13d8     13d8        0     1                 .L0 
    13f0     13f0        0     1                 .L0 
    1408     1408        0     1                 .L0 
    1430     1430        0     1                 .L0 
    1458     1458        0     1                 .L0 
    1470     1470        0     1                 .L0 
    1488     1488        0     1                 .L0 
    14a0     14a0        0     1                 .L0 
    14c0     14c0        0     1                 .L0 
    14f0     14f0        0     1                 .L0 
    1508     1508        0     1                 .L0 
    1520     1520        0     1                 .L0 
    1540     1540        0     1                 .L0 
    1568     1568        0     1                 .L0 
    1580     1580        0     1                 .L0 
    15a0     15a0        0     1                 .L0 
    15c8     15c8        0     1                 .L0 
    15e0     15e0        0     1                 .L0 
    1600     1600        0     1                 .L0 
    1628     1628        0     1                 .L0 
    1640     1640        0     1                 .L0 
    1660     1660        0     1                 .L0 
    1688     1688        0     1                 .L0 
    16a0     16a0        0     1                 .L0 
    16b8     16b8        0     1                 .L0 
    16d8     16d8        0     1                 .L0 
    16f0     16f0        0     1                 .L0 
    1718     1718        0     1                 .L0 
    1730     1730        0     1                 .L0 
    1748     1748        0     1                 .L0 
    1760     1760        0     1                 .L0 
    1788     1788        0     1                 .L0 
    17b0     17b0        0     1                 .L0 
    17c8     17c8        0     1                 .L0 
    17e0     17e0        0     1                 .L0 
    1800     1800        0     1                 .L0 
    1818     1818        0     1                 .L0 
    1840     1840        0     1                 .L0 
    1858     1858        0     1                 .L0 
    1870     1870        0     1                 .L0 
    1898     1898        0     1                 .L0 
    18b0     18b0        0     1                 .L0 
    18d8     18d8        0     1                 .L0 
    1900     1900        0     1                 .L0 
    1920     1920        0     1                 .L0 
    1938     1938        0     1                 .L0 
    1960     1960        0     1                 .L0 
    1978     1978        0     1                 .L0 
    1990     1990        0     1                 .L0 
    19b8     19b8        0     1                 .L0 
    19e0     19e0        0     1                 .L0 
    19f8     19f8        0     1                 .L0 
    1a10     1a10        0     1                 .L0 
    1a28     1a28        0     1                 .L0 
    1a48     1a48        0     1                 .L0 
    1a60     1a60        0     1                 .L0 
    1a88     1a88        0     1                 .L0 
    1aa0     1aa0        0     1                 .L0 
    1ab8     1ab8        0     1                 .L0 
    1ad0     1ad0        0     1                 .L0 
    1af0     1af0        0     1                 .L0 
    1b08     1b08        0     1                 .L0 
    1b30     1b30        0     1                 .L0 
    1b48     1b48        0     1                 .L0 
    1b60     1b60        0     1                 .L0 
    1b78     1b78        0     1                 .L0 
    1b90     1b90        0     1                 .L0 
    1bb8     1bb8        0     1                 .L0 
    1be0     1be0        0     1                 .L0 
    1bf8     1bf8        0     1                 .L0 
    1c20     1c20        0     1                 .L0 
    1c38     1c38        0     1                 .L0 
    1c50     1c50        0     1                 .L0 
    1c70     1c70        0     1                 .L0 
    1c88     1c88        0     1                 .L0 
    1cb0     1cb0        0     1                 .L0 
    1cc8     1cc8        0     1                 .L0 
    1cf0     1cf0        0     1                 .L0 
    1d08     1d08        0     1                 .L0 
    1d20     1d20        0     1                 .L0 
    1d40     1d40        0     1                 .L0 
    1d58     1d58        0     1                 .L0 
    1d80     1d80        0     1                 .L0 
    1d98     1d98        0     1                 .L0 
    1dc0     1dc0        0     1                 .L0 
    1dd8     1dd8        0     1                 .L0 
    1df0     1df0        0     1                 .L0 
    1e10     1e10        0     1                 .L0 
    1e28     1e28        0     1                 .L0 
    1e40     1e40        0     1                 .L0 
    1e60     1e60        0     1                 .L0 
    1e78     1e78        0     1                 .L0 
    1e90     1e90        0     1                 .L0 
    1eb0     1eb0        0     1                 .L0 
    1ec8     1ec8        0     1                 .L0 
    1ee0     1ee0        0     1                 .L0 
    1f00     1f00        0     1                 .L0 
    1f18     1f18        0     1                 .L0 
    1f30     1f30        0     1                 .L0 
    1f50     1f50        0     1                 .L0 
    1f68     1f68        0     1                 .L0 
    1f80     1f80        0     1                 .L0 
    1fa0     1fa0        0     1                 .L0 
    1fb8     1fb8        0     1                 .L0 
    1fd0     1fd0        0     1                 .L0 
    1ff0     1ff0        0     1                 .L0 
    2008     2008        0     1                 .L0 
    2020     2020        0     1                 .L0 
    2040     2040        0     1                 .L0 
    2058     2058        0     1                 .L0 
    2070     2070        0     1                 .L0 
    2090     2090        0     1                 .L0 
    20a8     20a8        0     1                 .L0 
    20c0     20c0        0     1                 .L0 
    20e0     20e0        0     1                 .L0 
    20f8     20f8        0     1                 .L0 
    2110     2110        0     1                 .L0 
    2130     2130        0     1                 .L0 
    2148     2148        0     1                 .L0 
    2160     2160        0     1                 .L0 
    2180     2180        0     1                 .L0 
    2198     2198        0     1                 .L0 
    21b0     21b0        0     1                 .L0 
    21c8     21c8        0     1                 .L0 
    21e0     21e0        0     1                 .L0 
    21f8     21f8        0     1                 .L0 
    2210     2210        0     1                 .L0 
    2228     2228        0     1                 .L0 
    2240     2240        0     1                 .L0 
    2258     2258        0     1                 .L0 
    2270     2270        0     1                 .L0 
    2290     2290        0     1                 .L0 
    22a8     22a8        0     1                 .L0 
    22c0     22c0        0     1                 .L0 
    22d8     22d8        0     1                 .L0 
    22f0     22f0        0     1                 .L0 
    2308     2308        0     1                 .L0 
    2320     2320        0     1                 .L0 
    2338     2338        0     1                 .L0 
    2350     2350        0     1                 .L0 
    2368     2368        0     1                 .L0 
    2380     2380        0     1                 .L0 
    2398     2398        0     1                 .L0 
    23b0     23b0        0     1                 .L0 
    23c8     23c8        0     1                 .L0 
    23e0     23e0        0     1                 .L0 
    23f8     23f8        0     1                 .L0 
    2410     2410        0     1                 .L0 
    2428     2428        0     1                 .L0 
    2440     2440        0     1                 .L0 
    2458     2458        0     1                 .L0 
    2480     2480        0     1                 .L0 
    24a0     24a0        0     1                 .L0 
    24b8     24b8        0     1                 .L0 
    24d8     24d8        0     1                 .L0 
    24f0     24f0        0     1                 .L0 
    2508     2508        0     1                 .L0 
    2520     2520        0     1                 .L0 
    2540     2540        0     1                 .L0 
    2558     2558        0     1                 .L0 
    2570     2570        0     1                 .L0 
    2588     2588        0     1                 .L0 
    25a0     25a0        0     1                 .L0 
    25b8     25b8        0     1                 .L0 
    25d8     25d8        0     1                 .L0 
    25f8     25f8        0     1                 .L0 
    2610     2610        0     1                 .L0 
    2628     2628        0     1                 .L0 
    2640     2640        0     1                 .L0 
    2658     2658        0     1                 .L0 
    2678     2678        0     1                 .L0 
    2690     2690        0     1                 .L0 
    26a8     26a8        0     1                 .L0 
    26c0     26c0        0     1                 .L0 
    26d8     26d8        0     1                 .L0 
    26f0     26f0        0     1                 .L0 
    2710     2710        0     1                 .L0 
    2728     2728        0     1                 .L0 
    2740     2740        0     1                 .L0 
    2758     2758        0     1                 .L0 
    2770     2770        0     1                 .L0 
    2790     2790        0     1                 .L0 
    27a8     27a8        0     1                 .L0 
    27c8     27c8        0     1                 .L0 
    27e0     27e0        0     1                 .L0 
    27f8     27f8        0     1                 .L0 
    2810     2810        0     1                 .L0 
    2830     2830        0     1                 .L0 
    2848     2848        0     1                 .L0 
    2860     2860        0     1                 .L0 
    2878     2878        0     1                 .L0 
    2890     2890        0     1                 .L0 
    28b0     28b0        0     1                 .L0 
    28c8     28c8        0     1                 .L0 
    28e0     28e0        0     1                 .L0 
    28f8     28f8        0     1                 .L0 
    2910     2910        0     1                 .L0 
    2928     2928        0     1                 .L0 
    2948     2948        0     1                 .L0 
    2960     2960        0     1                 .L0 
    2978     2978        0     1                 .L0 
    2990     2990        0     1                 .L0 
    29a8     29a8        0     1                 .L0 
    29c0     29c0        0     1                 .L0 
    29d8     29d8        0     1                 .L0 
    29f8     29f8        0     1                 .L0 
    2a10     2a10        0     1                 .L0 
    2a28     2a28        0     1                 .L0 
    2a40     2a40        0     1                 .L0 
    2a58     2a58        0     1                 .L0 
    2a70     2a70        0     1                 .L0 
    2a88     2a88        0     1                 .L0 
    2aa0     2aa0        0     1                 .L0 
    2ac0     2ac0        0     1                 .L0 
    2ae8     2ae8        0     1                 .L0 
    2b08     2b08        0     1                 .L0 
    2b20     2b20        0     1                 .L0 
    2b38     2b38        0     1                 .L0 
    2b50     2b50        0     1                 .L0 
    2b88     2b88        0     1                 .L0 
    2ba0     2ba0        0     1                 .L0 
    2bd8     2bd8        0     1                 .L0 
    2bf0     2bf0        0     1                 .L0 
    2c08     2c08        0     1                 .L0 
    2c20     2c20        0     1                 .L0 
    2c38     2c38        0     1                 .L0 
    2c50     2c50        0     1                 .L0 
    2c68     2c68        0     1                 .L0 
    2c88     2c88        0     1                 .L0 
    2ca0     2ca0        0     1                 .L0 
    2cb8     2cb8        0     1                 .L0 
    2cd0     2cd0        0     1                 .L0 
    2cf0     2cf0        0     1                 .L0 
    2d08     2d08        0     1                 .L0 
    2d20     2d20        0     1                 .L0 
    2d40     2d40        0     1                 .L0 
    2d58     2d58        0     1                 .L0 
    2d70     2d70        0     1                 .L0 
    2d88     2d88        0     1                 .L0 
    2da0     2da0        0     1                 .L0 
    2db8     2db8        0     1                 .L0 
    2de0     2de0        0     1                 .L0 
    2e08     2e08        0     1                 .L0 
    2e20     2e20        0     1                 .L0 
    2e38     2e38        0     1                 .L0 
    2e58     2e58        0     1                 .L0 
    2e70     2e70        0     1                 .L0 
    2e88     2e88        0     1                 .L0 
    2ea0     2ea0        0     1                 .L0 
    2ec0     2ec0        0     1                 .L0 
    2ed8     2ed8        0     1                 .L0 
    2ef8     2ef8        0     1                 .L0 
    2f18     2f18        0     1                 .L0 
    2f38     2f38        0     1                 .L0 
    2f50     2f50        0     1                 .L0 
    2f68     2f68        0     1                 .L0 
    2f80     2f80        0     1                 .L0 
    2f98     2f98        0     1                 .L0 
    2fb0     2fb0        0     1                 .L0 
    2fc8     2fc8        0     1                 .L0 
    2fe8     2fe8        0     1                 .L0 
    3000     3000        0     1                 .L0 
    3018     3018        0     1                 .L0 
    3030     3030        0     1                 .L0 
    3048     3048        0     1                 .L0 
    3098     3098        0     1                 .L0 
    30e8     30e8        0     1                 .L0 
    3130     3130        0     1                 .L0 
    3158     3158        0     1                 .L0 
    3188     3188        0     1                 .L0 
    31a8     31a8        0     1                 .L0 
    31c0     31c0        0     1                 .L0 
    3200     3200        0     1                 .L0 
    3240     3240        0     1                 .L0 
    3278     3278        0     1                 .L0 
    32a0     32a0        0     1                 .L0 
    32c0     32c0        0     1                 .L0 
    32e0     32e0        0     1                 .L0 
    3308     3308        0     1                 .L0 
    3320     3320        0     1                 .L0 
    3338     3338        0     1                 .L0 
    3350     3350        0     1                 .L0 
    3368     3368        0     1                 .L0 
    3380     3380        0     1                 .L0 
    33a8     33a8        0     1                 .L0 
    33e0     33e0        0     1                 .L0 
    3408     3408        0     1                 .L0 
    3420     3420        0     1                 .L0 
    3448     3448        0     1                 .L0 
    3510     3510        0     1                 .L0 
    35f8     35f8        0     1                 .L0 
    36a8     36a8        0     1                 .L0 
    3730     3730        0     1                 .L0 
    3798     3798        0     1                 .L0 
    37e8     37e8        0     1                 .L0 
    3820     3820        0     1                 .L0 
    3840     3840        0     1                 .L0 
    3868     3868        0     1                 .L0 
    3898     3898        0     1                 .L0 
    38d8     38d8        0     1                 .L0 
    38f0     38f0        0     1                 .L0 
    3908     3908        0     1                 .L0 
    3920     3920        0     1                 .L0 
    3940     3940        0     1                 .L0 
    3958     3958        0     1                 .L0 
    3970     3970        0     1                 .L0 
    3988     3988        0     1                 .L0 
    39a0     39a0        0     1                 .L0 
    39c0     39c0        0     1                 .L0 
    39d8     39d8        0     1                 .L0 
    39f0     39f0        0     1                 .L0 
    3a08     3a08        0     1                 .L0 
    3a20     3a20        0     1                 .L0 
    3a38     3a38        0     1                 .L0 
    3a50     3a50        0     1                 .L0 
    3a68     3a68        0     1                 .L0 
    3a80     3a80        0     1                 .L0 
    3aa0     3aa0        0     1                 .L0 
    3ab8     3ab8        0     1                 .L0 
    3ad0     3ad0        0     1                 .L0 
    3ae8     3ae8        0     1                 .L0 
    3b00     3b00        0     1                 .L0 
    3b18     3b18        0     1                 .L0 
    3b30     3b30        0     1                 .L0 
    3b50     3b50        0     1                 .L0 
    3b70     3b70        0     1                 .L0 
    3b88     3b88        0     1                 .L0 
    3ba0     3ba0        0     1                 .L0 
    3bb8     3bb8        0     1                 .L0 
    3bd0     3bd0        0     1                 .L0 
    3be8     3be8        0     1                 .L0 
    3c00     3c00        0     1                 .L0 
    3c18     3c18        0     1                 .L0 
    3c30     3c30        0     1                 .L0 
    3c50     3c50        0     1                 .L0 
    3c68     3c68        0     1                 .L0 
    3c80     3c80        0     1                 .L0 
    3c98     3c98        0     1                 .L0 
    3cb8     3cb8        0     1                 .L0 
    3cd0     3cd0        0     1                 .L0 
    3ce8     3ce8        0     1                 .L0 
    3d00     3d00        0     1                 .L0 
    3d18     3d18        0     1                 .L0 
    3d30     3d30        0     1                 .L0 
    3d48     3d48        0     1                 .L0 
    3d60     3d60        0     1                 .L0 
    3d88     3d88        0     1                 .L0 
    3da0     3da0        0     1                 .L0 
    3db8     3db8        0     1                 .L0 
    3dd0     3dd0        0     1                 .L0 
    3de8     3de8        0     1                 .L0 
    3e00     3e00        0     1                 .L0 
    3e20     3e20        0     1                 .L0 
    3e38     3e38        0     1                 .L0 
    3e50     3e50        0     1                 .L0 
    3e68     3e68        0     1                 .L0 
    3e80     3e80        0     1                 .L0 
    3e98     3e98        0     1                 .L0 
    3eb8     3eb8        0     1                 .L0 
    3ee0     3ee0        0     1                 .L0 
    3ef8     3ef8        0     1                 .L0 
    3f10     3f10        0     1                 .L0 
    3f28     3f28        0     1                 .L0 
    3f40     3f40        0     1                 .L0 
    3f58     3f58        0     1                 .L0 
    3f70     3f70        0     1                 .L0 
    3f88     3f88        0     1                 .L0 
    3fa0     3fa0        0     1                 .L0 
    3fc0     3fc0        0     1                 .L0 
    3fd8     3fd8        0     1                 .L0 
    3ff0     3ff0        0     1                 .L0 
    4008     4008        0     1                 .L0 
    4020     4020        0     1                 .L0 
    4038     4038        0     1                 .L0 
    4068     4068        0     1                 .L0 
    4088     4088        0     1                 .L0 
    40a8     40a8        0     1                 .L0 
    40c0     40c0        0     1                 .L0 
    40f0     40f0        0     1                 .L0 
    4110     4110        0     1                 .L0 
    4130     4130        0     1                 .L0 
    4150     4150        0     1                 .L0 
    4170     4170        0     1                 .L0 
    4188     4188        0     1                 .L0 
    41a8     41a8        0     1                 .L0 
    41c0     41c0        0     1                 .L0 
    41d8     41d8        0     1                 .L0 
    4200     4200        0     1                 .L0 
    4218     4218        0     1                 .L0 
    4238     4238        0     1                 .L0 
    4250     4250        0     1                 .L0 
    4268     4268        0     1                 .L0 
    4290     4290        0     1                 .L0 
    42b0     42b0        0     1                 .L0 
    42d0     42d0        0     1                 .L0 
    42e8     42e8        0     1                 .L0 
    4300     4300        0     1                 .L0 
    4318     4318        0     1                 .L0 
    4330     4330        0     1                 .L0 
    4350     4350        0     1                 .L0 
    4370     4370        0     1                 .L0 
    4390     4390        0     1                 .L0 
    43b8     43b8        0     1                 .L0 
    43d8     43d8        0     1                 .L0 
    43f0     43f0        0     1                 .L0 
    4410     4410        0     1                 .L0 
    4428     4428        0     1                 .L0 
    4440     4440        0     1                 .L0 
    4468     4468        0     1                 .L0 
    4488     4488        0     1                 .L0 
    44a0     44a0        0     1                 .L0 
    44c8     44c8        0     1                 .L0 
    44e8     44e8        0     1                 .L0 
    4500     4500        0     1                 .L0 
    4518     4518        0     1                 .L0 
    4530     4530        0     1                 .L0 
    4548     4548        0     1                 .L0 
    4560     4560        0     1                 .L0 
    4578     4578        0     1                 .L0 
    45a0     45a0        0     1                 .L0 
    45c8     45c8        0     1                 .L0 
    45e0     45e0        0     1                 .L0 
    45f8     45f8        0     1                 .L0 
    4618     4618        0     1                 .L0 
    4630     4630        0     1                 .L0 
    4648     4648        0     1                 .L0 
    4670     4670        0     1                 .L0 
    4688     4688        0     1                 .L0 
    46a0     46a0        0     1                 .L0 
    46b8     46b8        0     1                 .L0 
    46d8     46d8        0     1                 .L0 
    46f0     46f0        0     1                 .L0 
    4708     4708        0     1                 .L0 
    4728     4728        0     1                 .L0 
    4748     4748        0     1                 .L0 
    4760     4760        0     1                 .L0 
    4778     4778        0     1                 .L0 
    4790     4790        0     1                 .L0 
    47b0     47b0        0     1                 .L0 
    47d0     47d0        0     1                 .L0 
    47e8     47e8        0     1                 .L0 
    4808     4808        0     1                 .L0 
    4830     4830        0     1                 .L0 
    4850     4850        0     1                 .L0 
    4868     4868        0     1                 .L0 
    4888     4888        0     1                 .L0 
    48a0     48a0        0     1                 .L0 
    48b8     48b8        0     1                 .L0 
    48e0     48e0        0     1                 .L0 
    4900     4900        0     1                 .L0 
    4918     4918        0     1                 .L0 
    4940     4940        0     1                 .L0 
    4960     4960        0     1                 .L0 
    4980     4980        0     1                 .L0 
    4998     4998        0     1                 .L0 
    49b0     49b0        0     1                 .L0 
    49d0     49d0        0     1                 .L0 
    49e8     49e8        0     1                 .L0 
    4a10     4a10        0     1                 .L0 
    4a28     4a28        0     1                 .L0 
    4a58     4a58        0     1                 .L0 
    4a70     4a70        0     1                 .L0 
    4a98     4a98        0     1                 .L0 
    4ab0     4ab0        0     1                 .L0 
    4ac8     4ac8        0     1                 .L0 
    4ae0     4ae0        0     1                 .L0 
    4b00     4b00        0     1                 .L0 
    4b20     4b20        0     1                 .L0 
    4b38     4b38        0     1                 .L0 
    4b50     4b50        0     1                 .L0 
    4b70     4b70        0     1                 .L0 
    4b88     4b88        0     1                 .L0 
    4ba0     4ba0        0     1                 .L0 
    4bc8     4bc8        0     1                 .L0 
    4be0     4be0        0     1                 .L0 
    4bf8     4bf8        0     1                 .L0 
    4c18     4c18        0     1                 .L0 
    4c38     4c38        0     1                 .L0 
    4c58     4c58        0     1                 .L0 
    4c78     4c78        0     1                 .L0 
    4c90     4c90        0     1                 .L0 
    4ca8     4ca8        0     1                 .L0 
    4cc0     4cc0        0     1                 .L0 
    4cd8     4cd8        0     1                 .L0 
    4cf8     4cf8        0     1                 .L0 
    4d18     4d18        0     1                 .L0 
    4d38     4d38        0     1                 .L0 
    4d50     4d50        0     1                 .L0 
    4d70     4d70        0     1                 .L0 
    4d88     4d88        0     1                 .L0 
    4da8     4da8        0     1                 .L0 
    4dc0     4dc0        0     1                 .L0 
    4dd8     4dd8        0     1                 .L0 
    4df8     4df8        0     1                 .L0 
    4e18     4e18        0     1                 .L0 
    4e30     4e30        0     1                 .L0 
    4e48     4e48        0     1                 .L0 
    4e68     4e68        0     1                 .L0 
    4e88     4e88        0     1                 .L0 
    4ea8     4ea8        0     1                 .L0 
    4ec8     4ec8        0     1                 .L0 
    4ee0     4ee0        0     1                 .L0 
    4ef8     4ef8        0     1                 .L0 
    4f18     4f18        0     1                 .L0 
    4f30     4f30        0     1                 .L0 
    4f50     4f50        0     1                 .L0 
    4f70     4f70        0     1                 .L0 
    4f88     4f88        0     1                 .L0 
    4fa8     4fa8        0     1                 .L0 
    4fc0     4fc0        0     1                 .L0 
    4fd8     4fd8        0     1                 .L0 
    4ff8     4ff8        0     1                 .L0 
    5018     5018        0     1                 .L0 
    5030     5030        0     1                 .L0 
    5050     5050        0     1                 .L0 
    5068     5068        0     1                 .L0 
    5080     5080        0     1                 .L0 
    5098     5098        0     1                 .L0 
    50b8     50b8        0     1                 .L0 
    50e0     50e0        0     1                 .L0 
    50f8     50f8        0     1                 .L0 
    5110     5110        0     1                 .L0 
    5128     5128        0     1                 .L0 
    5140     5140        0     1                 .L0 
    5158     5158        0     1                 .L0 
    5170     5170        0     1                 .L0 
    5188     5188        0     1                 .L0 
    51a0     51a0        0     1                 .L0 
    51b8     51b8        0     1                 .L0 
    51d0     51d0        0     1                 .L0 
    51e8     51e8        0     1                 .L0 
    5200     5200        0     1                 .L0 
    5218     5218        0     1                 .L0 
    5230     5230        0     1                 .L0 
    5248     5248        0     1                 .L0 
    5260     5260        0     1                 .L0 
    5278     5278        0     1                 .L0 
    5290     5290        0     1                 .L0 
    52a8     52a8        0     1                 .L0 
    52c0     52c0        0     1                 .L0 
    52d8     52d8        0     1                 .L0 
    52f0     52f0        0     1                 .L0 
    5308     5308        0     1                 .L0 
    5320     5320        0     1                 .L0 
    5338     5338        0     1                 .L0 
    5350     5350        0     1                 .L0 
    5368     5368        0     1                 .L0 
    5380     5380        0     1                 .L0 
    53a0     53a0        0     1                 .L0 
    53c8     53c8        0     1                 .L0 
    53f8     53f8        0     1                 .L0 
    5438     5438        0     1                 .L0 
    5468     5468        0     1                 .L0 
    5488     5488        0     1                 .L0 
    54a0     54a0        0     1                 .L0 
    54c8     54c8        0     1                 .L0 
    5520     5520        0     1                 .L0 
    5560     5560        0     1                 .L0 
    5598     5598        0     1                 .L0 
    55d0     55d0        0     1                 .L0 
    5608     5608        0     1                 .L0 
    5620     5620        0     1                 .L0 
    5640     5640        0     1                 .L0 
    5678     5678        0     1                 .L0 
    56a0     56a0        0     1                 .L0 
    56c8     56c8        0     1                 .L0 
    56e0     56e0        0     1                 .L0 
    56f8     56f8        0     1                 .L0 
    5718     5718        0     1                 .L0 
    5740     5740        0     1                 .L0 
    5758     5758        0     1                 .L0 
    5770     5770        0     1                 .L0 
    5788     5788        0     1                 .L0 
    57b0     57b0        0     1                 .L0 
    57c8     57c8        0     1                 .L0 
    57e0     57e0        0     1                 .L0 
    5808     5808        0     1                 .L0 
    5820     5820        0     1                 .L0 
    5838     5838        0     1                 .L0 
    5858     5858        0     1                 .L0 
    5878     5878        0     1                 .L0 
    58a0     58a0        0     1                 .L0 
    58c0     58c0        0     1                 .L0 
    58d8     58d8        0     1                 .L0 
    58f0     58f0        0     1                 .L0 
    5918     5918        0     1                 .L0 
    5938     5938        0     1                 .L0 
    5950     5950        0     1                 .L0 
    5968     5968        0     1                 .L0 
    5980     5980        0     1                 .L0 
    59a0     59a0        0     1                 .L0 
    59b8     59b8        0     1                 .L0 
    59d0     59d0        0     1                 .L0 
    59e8     59e8        0     1                 .L0 
    5a00     5a00        0     1                 .L0 
    5a18     5a18        0     1                 .L0 
    5a30     5a30        0     1                 .L0 
    5a50     5a50        0     1                 .L0 
    5a70     5a70        0     1                 .L0 
    5a98     5a98        0     1                 .L0 
    5ab8     5ab8        0     1                 .L0 
    5ad0     5ad0        0     1                 .L0 
    5ae8     5ae8        0     1                 .L0 
    5b08     5b08        0     1                 .L0 
    5b28     5b28        0     1                 .L0 
    5b48     5b48        0     1                 .L0 
    5b60     5b60        0     1                 .L0 
    5b78     5b78        0     1                 .L0 
    5b98     5b98        0     1                 .L0 
    5bb8     5bb8        0     1                 .L0 
    5bd8     5bd8        0     1                 .L0 
    5bf0     5bf0        0     1                 .L0 
    5c08     5c08        0     1                 .L0 
    5c28     5c28        0     1                 .L0 
    5c48     5c48        0     1                 .L0 
    5c70     5c70        0     1                 .L0 
    5c90     5c90        0     1                 .L0 
    5cb0     5cb0        0     1                 .L0 
    5cc8     5cc8        0     1                 .L0 
    5ce0     5ce0        0     1                 .L0 
    5d08     5d08        0     1                 .L0 
    5d28     5d28        0     1                 .L0 
    5d58     5d58        0     1                 .L0 
    5d80     5d80        0     1                 .L0 
    5d98     5d98        0     1                 .L0 
    5db0     5db0        0     1                 .L0 
    5dc8     5dc8        0     1                 .L0 
    5de8     5de8        0     1                 .L0 
    5e08     5e08        0     1                 .L0 
    5e28     5e28        0     1                 .L0 
    5e40     5e40        0     1                 .L0 
    5e58     5e58        0     1                 .L0 
    5e80     5e80        0     1                 .L0 
    5ea0     5ea0        0     1                 .L0 
    5ec0     5ec0        0     1                 .L0 
    5ed8     5ed8        0     1                 .L0 
    5f00     5f00        0     1                 .L0 
    5f20     5f20        0     1                 .L0 
    5f48     5f48        0     1                 .L0 
    5f68     5f68        0     1                 .L0 
    5f80     5f80        0     1                 .L0 
    5f98     5f98        0     1                 .L0 
    5fb8     5fb8        0     1                 .L0 
    5fd8     5fd8        0     1                 .L0 
    6000     6000        0     1                 .L0 
    6020     6020        0     1                 .L0 
    6038     6038        0     1                 .L0 
    6050     6050        0     1                 .L0 
    6070     6070        0     1                 .L0 
    6090     6090        0     1                 .L0 
    60b0     60b0        0     1                 .L0 
    60c8     60c8        0     1                 .L0 
    60e0     60e0        0     1                 .L0 
    6100     6100        0     1                 .L0 
    6120     6120        0     1                 .L0 
    6148     6148        0     1                 .L0 
    6168     6168        0     1                 .L0 
    6180     6180        0     1                 .L0 
    6198     6198        0     1                 .L0 
    61b8     61b8        0     1                 .L0 
    61d8     61d8        0     1                 .L0 
    61f8     61f8        0     1                 .L0 
    6218     6218        0     1                 .L0 
    6238     6238        0     1                 .L0 
    6250     6250        0     1                 .L0 
    6268     6268        0     1                 .L0 
    6288     6288        0     1                 .L0 
    62a0     62a0        0     1                 .L0 
    62c0     62c0        0     1                 .L0 
    62d8     62d8        0     1                 .L0 
    62f8     62f8        0     1                 .L0 
    6310     6310        0     1                 .L0 
    6328     6328        0     1                 .L0 
    6340     6340        0     1                 .L0 
    6358     6358        0     1                 .L0 
    6370     6370        0     1                 .L0 
    6398     6398        0     1                 .L0 
    63b8     63b8        0     1                 .L0 
    63e0     63e0        0     1                 .L0 
    6400     6400        0     1                 .L0 
    6420     6420        0     1                 .L0 
    6438     6438        0     1                 .L0 
    6450     6450        0     1                 .L0 
    6468     6468        0     1                 .L0 
    6480     6480        0     1                 .L0 
    6498     6498        0     1                 .L0 
    64b0     64b0        0     1                 .L0 
    64c8     64c8        0     1                 .L0 
    64e0     64e0        0     1                 .L0 
    6508     6508        0     1                 .L0 
    6520     6520        0     1                 .L0 
    6538     6538        0     1                 .L0 
    6550     6550        0     1                 .L0 
    6588     6588        0     1                 .L0 
    65a0     65a0        0     1                 .L0 
    65b8     65b8        0     1                 .L0 
    65d0     65d0        0     1                 .L0 
    6630     6630        0     1                 .L0 
    6648     6648        0     1                 .L0 
    6660     6660        0     1                 .L0 
    6678     6678        0     1                 .L0 
    66a0     66a0        0     1                 .L0 
    66c0     66c0        0     1                 .L0 
    66d8     66d8        0     1                 .L0 
    66f0     66f0        0     1                 .L0 
    6730     6730        0     1                 .L0 
    6768     6768        0     1                 .L0 
    6780     6780        0     1                 .L0 
    67b0     67b0        0     1                 .L0 
    67e0     67e0        0     1                 .L0 
    6808     6808        0     1                 .L0 
    6820     6820        0     1                 .L0 
    6838     6838        0     1                 .L0 
    6850     6850        0     1                 .L0 
    6868     6868        0     1                 .L0 
    6888     6888        0     1                 .L0 
    68a0     68a0        0     1                 .L0 
    68b8     68b8        0     1                 .L0 
    68d0     68d0        0     1                 .L0 
    68e8     68e8        0     1                 .L0 
    6900     6900        0     1                 .L0 
    6918     6918        0     1                 .L0 
    6938     6938        0     1                 .L0 
    6958     6958        0     1                 .L0 
    6978     6978        0     1                 .L0 
    6998     6998        0     1                 .L0 
    69b0     69b0        0     1                 .L0 
    69c8     69c8        0     1                 .L0 
    69e8     69e8        0     1                 .L0 
    6a00     6a00        0     1                 .L0 
    6a18     6a18        0     1                 .L0 
    6a30     6a30        0     1                 .L0 
    6a68     6a68        0     1                 .L0 
    6a98     6a98        0     1                 .L0 
    6ad0     6ad0        0     1                 .L0 
    6b00     6b00        0     1                 .L0 
    6b20     6b20        0     1                 .L0 
    6b80     6b80        0     1                 .L0 
    6be0     6be0        0     1                 .L0 
    6c38     6c38        0     1                 .L0 
    6c90     6c90        0     1                 .L0 
    6cf0     6cf0        0     1                 .L0 
    6d48     6d48        0     1                 .L0 
    6d60     6d60        0     1                 .L0 
    6d78     6d78        0     1                 .L0 
    6d90     6d90        0     1                 .L0 
    6dc8     6dc8        0     1                 .L0 
    6df0     6df0        0     1                 .L0 
    6e28     6e28        0     1                 .L0 
    6e58     6e58        0     1                 .L0 
    6e78     6e78        0     1                 .L0 
    6e90     6e90        0     1                 .L0 
    6ec8     6ec8        0     1                 .L0 
    6f00     6f00        0     1                 .L0 
    6f18     6f18        0     1                 .L0 
    6f48     6f48        0     1                 .L0 
    6f68     6f68        0     1                 .L0 
    6f80     6f80        0     1                 .L0 
    6fb8     6fb8        0     1                 .L0 
    6ff0     6ff0        0     1                 .L0 
    7028     7028        0     1                 .L0 
    7058     7058        0     1                 .L0 
    7078     7078        0     1                 .L0 
    7090     7090        0     1                 .L0 
    70c8     70c8        0     1                 .L0 
    70f8     70f8        0     1                 .L0 
    7128     7128        0     1                 .L0 
    7150     7150        0     1                 .L0 
    7170     7170        0     1                 .L0 
    7190     7190        0     1                 .L0 
    71b0     71b0        0     1                 .L0 
    71d0     71d0        0     1                 .L0 
    71e8     71e8        0     1                 .L0 
    7200     7200        0     1                 .L0 
    7218     7218        0     1                 .L0 
    7230     7230        0     1                 .L0 
    7248     7248        0     1                 .L0 
    7260     7260        0     1                 .L0 
    7278     7278        0     1                 .L0 
    7298     7298        0     1                 .L0 
    72b0     72b0        0     1                 .L0 
    72c8     72c8        0     1                 .L0 
    72e0     72e0        0     1                 .L0 
    72f8     72f8        0     1                 .L0 
    7310     7310        0     1                 .L0 
    7328     7328        0     1                 .L0 
    7340     7340        0     1                 .L0 
    7358     7358        0     1                 .L0 
    7370     7370        0     1                 .L0 
    7388     7388        0     1                 .L0 
    73a8     73a8        0     1                 .L0 
    73c0     73c0        0     1                 .L0 
    73d8     73d8        0     1                 .L0 
    73f0     73f0        0     1                 .L0 
    7420     7420        0     1                 .L0 
    7450     7450        0     1                 .L0 
    7470     7470        0     1                 .L0 
    7498     7498        0     1                 .L0 
    74b0     74b0        0     1                 .L0 
    74d0     74d0        0     1                 .L0 
    74f8     74f8        0     1                 .L0 
    7510     7510        0     1                 .L0 
    7528     7528        0     1                 .L0 
    7540     7540        0     1                 .L0 
    7558     7558        0     1                 .L0 
    7570     7570        0     1                 .L0 
    7588     7588        0     1                 .L0 
    75a8     75a8        0     1                 .L0 
    75c0     75c0        0     1                 .L0 
    75e0     75e0        0     1                 .L0 
    75f8     75f8        0     1                 .L0 
    7610     7610        0     1                 .L0 
    7640     7640        0     1                 .L0 
    7658     7658        0     1                 .L0 
    7678     7678        0     1                 .L0 
    7690     7690        0     1                 .L0 
    76a8     76a8        0     1                 .L0 
    76c0     76c0        0     1                 .L0 
    76d8     76d8        0     1                 .L0 
    76f8     76f8        0     1                 .L0 
    7710     7710        0     1                 .L0 
    7728     7728        0     1                 .L0 
    7740     7740        0     1                 .L0 
    7758     7758        0     1                 .L0 
    7778     7778        0     1                 .L0 
    7790     7790        0     1                 .L0 
    77a8     77a8        0     1                 .L0 
    77c0     77c0        0     1                 .L0 
    77d8     77d8        0     1                 .L0 
    77f0     77f0        0     1                 .L0 
    7808     7808        0     1                 .L0 
    7820     7820        0     1                 .L0 
    7848     7848        0     1                 .L0 
    7860     7860        0     1                 .L0 
    7878     7878        0     1                 .L0 
    7890     7890        0     1                 .L0 
    78b0     78b0        0     1                 .L0 
    78c8     78c8        0     1                 .L0 
    78e8     78e8        0     1                 .L0 
    7900     7900        0     1                 .L0 
    7918     7918        0     1                 .L0 
    7930     7930        0     1                 .L0 
    79a0     79a0        0     1                 .L0 
    79c8     79c8        0     1                 .L0 
    79e8     79e8        0     1                 .L0 
    7a08     7a08        0     1                 .L0 
    7a28     7a28        0     1                 .L0 
    7a50     7a50        0     1                 .L0 
    7ac0     7ac0        0     1                 .L0 
    7af0     7af0        0     1                 .L0 
    7b18     7b18        0     1                 .L0 
    7b30     7b30        0     1                 .L0 
    7b48     7b48        0     1                 .L0 
    7b70     7b70        0     1                 .L0 
    7b88     7b88        0     1                 .L0 
    7ba0     7ba0        0     1                 .L0 
    7bb8     7bb8        0     1                 .L0 
    7bd0     7bd0        0     1                 .L0 
    7be8     7be8        0     1                 .L0 
    7c00     7c00        0     1                 .L0 
    7c28     7c28        0     1                 .L0 
    7c40     7c40        0     1                 .L0 
    7c58     7c58        0     1                 .L0 
    7c70     7c70        0     1                 .L0 
    7c90     7c90        0     1                 .L0 
    7ca8     7ca8        0     1                 .L0 
    7cc0     7cc0        0     1                 .L0 
    7ce8     7ce8        0     1                 .L0 
    7d10     7d10        0     1                 .L0 
    7d38     7d38        0     1                 .L0 
    7d50     7d50        0     1                 .L0 
    7d68     7d68        0     1                 .L0 
    7d80     7d80        0     1                 .L0 
    7d98     7d98        0     1                 .L0 
    7db0     7db0        0     1                 .L0 
    7dc8     7dc8        0     1                 .L0 
    7df0     7df0        0     1                 .L0 
    7e08     7e08        0     1                 .L0 
    7e20     7e20        0     1                 .L0 
    7e38     7e38        0     1                 .L0 
    7e50     7e50        0     1                 .L0 
    7e68     7e68        0     1                 .L0 
    7e88     7e88        0     1                 .L0 
    7ee8     7ee8        0     1                 .L0 
    7f40     7f40        0     1                 .L0 
    7f60     7f60        0     1                 .L0 
    7f80     7f80        0     1                 .L0 
    7fa0     7fa0        0     1                 .L0 
    7fc0     7fc0        0     1                 .L0 
    7fe0     7fe0        0     1                 .L0 
    8000     8000        0     1                 .L0 
    8030     8030        0     1                 .L0 
    8060     8060        0     1                 .L0 
    80d8     80d8        0     1                 .L0 
    8110     8110        0     1                 .L0 
    8130     8130        0     1                 .L0 
    8148     8148        0     1                 .L0 
    8160     8160        0     1                 .L0 
    8178     8178        0     1                 .L0 
    8190     8190        0     1                 .L0 
    81d0     81d0        0     1                 .L0 
    81f8     81f8        0     1                 .L0 
    8210     8210        0     1                 .L0 
    8228     8228        0     1                 .L0 
    8240     8240        0     1                 .L0 
    8268     8268        0     1                 .L0 
    8280     8280        0     1                 .L0 
    8298     8298        0     1                 .L0 
    82b0     82b0        0     1                 .L0 
    82c8     82c8        0     1                 .L0 
    82e0     82e0        0     1                 .L0 
    82f8     82f8        0     1                 .L0 
    8318     8318        0     1                 .L0 
    8330     8330        0     1                 .L0 
    8348     8348        0     1                 .L0 
    8360     8360        0     1                 .L0 
    8378     8378        0     1                 .L0 
    8390     8390        0     1                 .L0 
    83a8     83a8        0     1                 .L0 
    83c8     83c8        0     1                 .L0 
    83e0     83e0        0     1                 .L0 
    83f8     83f8        0     1                 .L0 
    8410     8410        0     1                 .L0 
    8428     8428        0     1                 .L0 
    8448     8448        0     1                 .L0 
    8468     8468        0     1                 .L0 
    8480     8480        0     1                 .L0 
    8498     8498        0     1                 .L0 
    84b0     84b0        0     1                 .L0 
    84c8     84c8        0     1                 .L0 
    84e0     84e0        0     1                 .L0 
    84f8     84f8        0     1                 .L0 
    8510     8510        0     1                 .L0 
    8538     8538        0     1                 .L0 
    8558     8558        0     1                 .L0 
    8570     8570        0     1                 .L0 
    8588     8588        0     1                 .L0 
    85a0     85a0        0     1                 .L0 
    85b8     85b8        0     1                 .L0 
    85d0     85d0        0     1                 .L0 
    85e8     85e8        0     1                 .L0 
    8600     8600        0     1                 .L0 
    8618     8618        0     1                 .L0 
    8630     8630        0     1                 .L0 
    8648     8648        0     1                 .L0 
    8668     8668        0     1                 .L0 
    8688     8688        0     1                 .L0 
    86b8     86b8        0     1                 .L0 
    86e0     86e0        0     1                 .L0 
    86f8     86f8        0     1                 .L0 
    8710     8710        0     1                 .L0 
    8728     8728        0     1                 .L0 
    8740     8740        0     1                 .L0 
    8758     8758        0     1                 .L0 
    8770     8770        0     1                 .L0 
    8788     8788        0     1                 .L0 
    87a0     87a0        0     1                 .L0 
    87b8     87b8        0     1                 .L0 
    87d0     87d0        0     1                 .L0 
    87e8     87e8        0     1                 .L0 
    8800     8800        0     1                 .L0 
    8820     8820        0     1                 .L0 
    8840     8840        0     1                 .L0 
    8858     8858        0     1                 .L0 
    8870     8870        0     1                 .L0 
    8890     8890        0     1                 .L0 
    88b0     88b0        0     1                 .L0 
    88c8     88c8        0     1                 .L0 
    88e0     88e0        0     1                 .L0 
    88f8     88f8        0     1                 .L0 
    8910     8910        0     1                 .L0 
    8928     8928        0     1                 .L0 
    8940     8940        0     1                 .L0 
    8958     8958        0     1                 .L0 
    8970     8970        0     1                 .L0 
    8988     8988        0     1                 .L0 
    89a0     89a0        0     1                 .L0 
    89b8     89b8        0     1                 .L0 
    89d0     89d0        0     1                 .L0 
    89e8     89e8        0     1                 .L0 
    8a00     8a00        0     1                 .L0 
    8a18     8a18        0     1                 .L0 
    8a30     8a30        0     1                 .L0 
    8a50     8a50        0     1                 .L0 
    8a68     8a68        0     1                 .L0 
    8a88     8a88        0     1                 .L0 
    8aa0     8aa0        0     1                 .L0 
    8ac0     8ac0        0     1                 .L0 
    8af0     8af0        0     1                 .L0 
    8b30     8b30        0     1                 .L0 
    8b70     8b70        0     1                 .L0 
    8bb0     8bb0        0     1                 .L0 
    8bf0     8bf0        0     1                 .L0 
    8c08     8c08        0     1                 .L0 
    8c48     8c48        0     1                 .L0 
    8c68     8c68        0     1                 .L0 
    8c80     8c80        0     1                 .L0 
    8c98     8c98        0     1                 .L0 
    8cb0     8cb0        0     1                 .L0 
    8cd0     8cd0        0     1                 .L0 
    8ce8     8ce8        0     1                 .L0 
    8d10     8d10        0     1                 .L0 
    8d50     8d50        0     1                 .L0 
    8d70     8d70        0     1                 .L0 
    8d88     8d88        0     1                 .L0 
    8da0     8da0        0     1                 .L0 
    8dc8     8dc8        0     1                 .L0 
    8df0     8df0        0     1                 .L0 
    8e08     8e08        0     1                 .L0 
    8e20     8e20        0     1                 .L0 
    8e38     8e38        0     1                 .L0 
    8e50     8e50        0     1                 .L0 
    8e68     8e68        0     1                 .L0 
    8e90     8e90        0     1                 .L0 
    8eb8     8eb8        0     1                 .L0 
    8ed0     8ed0        0     1                 .L0 
    8ef8     8ef8        0     1                 .L0 
    8f20     8f20        0     1                 .L0 
    8f48     8f48        0     1                 .L0 
    8f60     8f60        0     1                 .L0 
    8f88     8f88        0     1                 .L0 
    8fa0     8fa0        0     1                 .L0 
    8fc8     8fc8        0     1                 .L0 
    8ff0     8ff0        0     1                 .L0 
    9008     9008        0     1                 .L0 
    9030     9030        0     1                 .L0 
    9060     9060        0     1                 .L0 
    9078     9078        0     1                 .L0 
    90a8     90a8        0     1                 .L0 
    90e0     90e0        0     1                 .L0 
    9100     9100        0     1                 .L0 
    9120     9120        0     1                 .L0 
    9138     9138        0     1                 .L0 
    9150     9150        0     1                 .L0 
    9170     9170        0     1                 .L0 
    9188     9188        0     1                 .L0 
    91a0     91a0        0     1                 .L0 
    91c8     91c8        0     1                 .L0 
    91f0     91f0        0     1                 .L0 
    9208     9208        0     1                 .L0 
    9220     9220        0     1                 .L0 
    9248     9248        0     1                 .L0 
    9260     9260        0     1                 .L0 
    9278     9278        0     1                 .L0 
    9290     9290        0     1                 .L0 
    92a8     92a8        0     1                 .L0 
    92c0     92c0        0     1                 .L0 
    92e0     92e0        0     1                 .L0 
    92f8     92f8        0     1                 .L0 
    9310     9310        0     1                 .L0 
    9330     9330        0     1                 .L0 
    9348     9348        0     1                 .L0 
    9360     9360        0     1                 .L0 
    9378     9378        0     1                 .L0 
    93a0     93a0        0     1                 .L0 
    93c0     93c0        0     1                 .L0 
    93d8     93d8        0     1                 .L0 
    9408     9408        0     1                 .L0 
    9430     9430        0     1                 .L0 
    9468     9468        0     1                 .L0 
    9488     9488        0     1                 .L0 
    94c0     94c0        0     1                 .L0 
    94d8     94d8        0     1                 .L0 
    94f0     94f0        0     1                 .L0 
    9510     9510        0     1                 .L0 
    9530     9530        0     1                 .L0 
    9560     9560        0     1                 .L0 
    9578     9578        0     1                 .L0 
    9598     9598        0     1                 .L0 
    95b0     95b0        0     1                 .L0 
    95c8     95c8        0     1                 .L0 
    95e8     95e8        0     1                 .L0 
    9600     9600        0     1                 .L0 
    9630     9630        0     1                 .L0 
    9658     9658        0     1                 .L0 
    9678     9678        0     1                 .L0 
    9698     9698        0     1                 .L0 
    96b0     96b0        0     1                 .L0 
    96c8     96c8        0     1                 .L0 
    96e0     96e0        0     1                 .L0 
    9700     9700        0     1                 .L0 
    9718     9718        0     1                 .L0 
    9730     9730        0     1                 .L0 
    9748     9748        0     1                 .L0 
    9768     9768        0     1                 .L0 
    9788     9788        0     1                 .L0 
    97a0     97a0        0     1                 .L0 
    97b8     97b8        0     1                 .L0 
    97d0     97d0        0     1                 .L0 
    97e8     97e8        0     1                 .L0 
    9800     9800        0     1                 .L0 
    9818     9818        0     1                 .L0 
    9830     9830        0     1                 .L0 
    9848     9848        0     1                 .L0 
    9860     9860        0     1                 .L0 
    9878     9878        0     1                 .L0 
    9890     9890        0     1                 .L0 
    98a8     98a8        0     1                 .L0 
    98c0     98c0        0     1                 .L0 
    98d8     98d8        0     1                 .L0 
    98f0     98f0        0     1                 .L0 
    9908     9908        0     1                 .L0 
    9920     9920        0     1                 .L0 
    9938     9938        0     1                 .L0 
    9950     9950        0     1                 .L0 
    9968     9968        0     1                 .L0 
    9980     9980        0     1                 .L0 
    9998     9998        0     1                 .L0 
    99b0     99b0        0     1                 .L0 
    99c8     99c8        0     1                 .L0 
    99e0     99e0        0     1                 .L0 
    99f8     99f8        0     1                 .L0 
    9a10     9a10        0     1                 .L0 
    9a28     9a28        0     1                 .L0 
    9a40     9a40        0     1                 .L0 
    9a58     9a58        0     1                 .L0 
    9a78     9a78        0     1                 .L0 
    9a90     9a90        0     1                 .L0 
    9aa8     9aa8        0     1                 .L0 
    9ac0     9ac0        0     1                 .L0 
    9ad8     9ad8        0     1                 .L0 
    9af0     9af0        0     1                 .L0 
    9b08     9b08        0     1                 .L0 
    9b20     9b20        0     1                 .L0 
    9b38     9b38        0     1                 .L0 
    9b50     9b50        0     1                 .L0 
    9b68     9b68        0     1                 .L0 
    9b80     9b80        0     1                 .L0 
    9bc0     9bc0        0     1                 .L0 
    9bd8     9bd8        0     1                 .L0 
    9bf0     9bf0        0     1                 .L0 
    9c08     9c08        0     1                 .L0 
    9c48     9c48        0     1                 .L0 
    9c70     9c70        0     1                 .L0 
    9c88     9c88        0     1                 .L0 
    9ca0     9ca0        0     1                 .L0 
    9cb8     9cb8        0     1                 .L0 
    9ce0     9ce0        0     1                 .L0 
    9cf8     9cf8        0     1                 .L0 
    9d20     9d20        0     1                 .L0 
    9d38     9d38        0     1                 .L0 
    9d68     9d68        0     1                 .L0 
    9d80     9d80        0     1                 .L0 
    9da8     9da8        0     1                 .L0 
    9dc0     9dc0        0     1                 .L0 
    9dd8     9dd8        0     1                 .L0 
    9df0     9df0        0     1                 .L0 
    9e20     9e20        0     1                 .L0 
    9e38     9e38        0     1                 .L0 
    9e60     9e60        0     1                 .L0 
    9e78     9e78        0     1                 .L0 
    9e90     9e90        0     1                 .L0 
    9eb8     9eb8        0     1                 .L0 
    9ed0     9ed0        0     1                 .L0 
    9f00     9f00        0     1                 .L0 
    9f18     9f18        0     1                 .L0 
    9f40     9f40        0     1                 .L0 
    9f58     9f58        0     1                 .L0 
    9f70     9f70        0     1                 .L0 
    9fa0     9fa0        0     1                 .L0 
    9fb8     9fb8        0     1                 .L0 
    9fd0     9fd0        0     1                 .L0 
    9fe8     9fe8        0     1                 .L0 
    a000     a000        0     1                 .L0 
    a018     a018        0     1                 .L0 
    a030     a030        0     1                 .L0 
    a048     a048        0     1                 .L0 
    a060     a060        0     1                 .L0 
    a078     a078        0     1                 .L0 
    a090     a090        0     1                 .L0 
    a0b8     a0b8        0     1                 .L0 
    a0d0     a0d0        0     1                 .L0 
    a0f0     a0f0        0     1                 .L0 
    a110     a110        0     1                 .L0 
    a138     a138        0     1                 .L0 
    a150     a150        0     1                 .L0 
    a178     a178        0     1                 .L0 
    a190     a190        0     1                 .L0 
    a1a8     a1a8        0     1                 .L0 
    a1d8     a1d8        0     1                 .L0 
    a1f0     a1f0        0     1                 .L0 
    a208     a208        0     1                 .L0 
    a220     a220        0     1                 .L0 
    a238     a238        0     1                 .L0 
    a258     a258        0     1                 .L0 
    a270     a270        0     1                 .L0 
    a290     a290        0     1                 .L0 
    a2a8     a2a8        0     1                 .L0 
    a2c0     a2c0        0     1                 .L0 
    a2d8     a2d8        0     1                 .L0 
    a2f0     a2f0        0     1                 .L0 
    a308     a308        0     1                 .L0 
    a320     a320        0     1                 .L0 
    b388     b388       18     1         /home/famous282/.rustup/toolchains/stable-x86_64-unknown-linux-gnu/lib/rustlib/riscv32imac-unknown-none-elf/lib/libcompiler_builtins-5525e237063e5553.rlib(compiler_builtins-5525e237063e5553.compiler_builtins.8129c65e379068d4-cgu.107.rcgu.o):(.debug_ranges)
    b388     b388        0     1                 .L0 
    b388     b388        0     1                 $d
    b3a0     b3a0      168     1         /home/famous282/.rustup/toolchains/stable-x86_64-unknown-linux-gnu/lib/rustlib/riscv32imac-unknown-none-elf/lib/libcompiler_builtins-5525e237063e5553.rlib(compiler_builtins-5525e237063e5553.compiler_builtins.8129c65e379068d4-cgu.017.rcgu.o):(.debug_ranges)
    b3a0     b3a0        0     1                 .L0 
    b3a0     b3a0        0     1                 $d
    b3b8     b3b8        0     1                 .L0 
    b3d8     b3d8        0     1                 .L0 
    b3f0     b3f0        0     1                 .L0 
    b408     b408        0     1                 .L0 
    b420     b420        0     1                 .L0 
    b440     b440        0     1                 .L0 
    b460     b460        0     1                 .L0 
    b478     b478        0     1                 .L0 
    b490     b490        0     1                 .L0 
    b4a8     b4a8        0     1                 .L0 
    b4c0     b4c0        0     1                 .L0 
    b4d8     b4d8        0     1                 .L0 
    b4f0     b4f0        0     1                 .L0 
    b508     b508       18     1         /home/famous282/.rustup/toolchains/stable-x86_64-unknown-linux-gnu/lib/rustlib/riscv32imac-unknown-none-elf/lib/libcompiler_builtins-5525e237063e5553.rlib(compiler_builtins-5525e237063e5553.compiler_builtins.8129c65e379068d4-cgu.173.rcgu.o):(.debug_ranges)
    b508     b508        0     1                 .L0 
    b508     b508        0     1                 $d
    b520     b520      620     1         /home/famous282/.rustup/toolchains/stable-x86_64-unknown-linux-gnu/lib/rustlib/riscv32imac-unknown-none-elf/lib/libcompiler_builtins-5525e237063e5553.rlib(compiler_builtins-5525e237063e5553.compiler_builtins.8129c65e379068d4-cgu.003.rcgu.o):(.debug_ranges)
    b520     b520        0     1                 .L0 
    b520     b520        0     1                 $d
    b538     b538        0     1                 .L0 
    b550     b550        0     1                 .L0 
    b568     b568        0     1                 .L0 
    b580     b580        0     1                 .L0 
    b598     b598        0     1                 .L0 
    b5b0     b5b0        0     1                 .L0 
    b5c8     b5c8        0     1                 .L0 
    b5e0     b5e0        0     1                 .L0 
    b5f8     b5f8        0     1                 .L0 
    b610     b610        0     1                 .L0 
    b628     b628        0     1                 .L0 
    b640     b640        0     1                 .L0 
    b658     b658        0     1                 .L0 
    b688     b688        0     1                 .L0 
    b6d0     b6d0        0     1                 .L0 
    b728     b728        0     1                 .L0 
    b778     b778        0     1                 .L0 
    b790     b790        0     1                 .L0 
    b7c0     b7c0        0     1                 .L0 
    b7d8     b7d8        0     1                 .L0 
    b7f0     b7f0        0     1                 .L0 
    b808     b808        0     1                 .L0 
    b820     b820        0     1                 .L0 
    b868     b868        0     1                 .L0 
    b880     b880        0     1                 .L0 
    b898     b898        0     1                 .L0 
    b8b8     b8b8        0     1                 .L0 
    b8d0     b8d0        0     1                 .L0 
    b8e8     b8e8        0     1                 .L0 
    b910     b910        0     1                 .L0 
    b950     b950        0     1                 .L0 
    b968     b968        0     1                 .L0 
    b988     b988        0     1                 .L0 
    b9b0     b9b0        0     1                 .L0 
    b9c8     b9c8        0     1                 .L0 
    b9e0     b9e0        0     1                 .L0 
    b9f8     b9f8        0     1                 .L0 
    ba10     ba10        0     1                 .L0 
    ba28     ba28        0     1                 .L0 
    ba40     ba40        0     1                 .L0 
    ba88     ba88        0     1                 .L0 
    baa0     baa0        0     1                 .L0 
    bab8     bab8        0     1                 .L0 
    bad0     bad0        0     1                 .L0 
    bae8     bae8        0     1                 .L0 
    bb00     bb00        0     1                 .L0 
    bb18     bb18        0     1                 .L0 
    bb40     bb40      1f0     1         /home/famous282/.rustup/toolchains/stable-x86_64-unknown-linux-gnu/lib/rustlib/riscv32imac-unknown-none-elf/lib/libcompiler_builtins-5525e237063e5553.rlib(compiler_builtins-5525e237063e5553.compiler_builtins.8129c65e379068d4-cgu.019.rcgu.o):(.debug_ranges)
    bb40     bb40        0     1                 .L0 
    bb40     bb40        0     1                 $d
    bb68     bb68        0     1                 .L0 
    bbb8     bbb8        0     1                 .L0 
    bc08     bc08        0     1                 .L0 
    bc60     bc60        0     1                 .L0 
    bca0     bca0        0     1                 .L0 
    bce0     bce0        0     1                 .L0 
    bd30     bd30       78     1         /home/famous282/.rustup/toolchains/stable-x86_64-unknown-linux-gnu/lib/rustlib/riscv32imac-unknown-none-elf/lib/libcompiler_builtins-5525e237063e5553.rlib(compiler_builtins-5525e237063e5553.compiler_builtins.8129c65e379068d4-cgu.178.rcgu.o):(.debug_ranges)
    bd30     bd30        0     1                 .L0 
    bd30     bd30        0     1                 $d
    bd60     bd60        0     1                 .L0 
    bd78     bd78        0     1                 .L0 
    bd90     bd90        0     1                 .L0 
    bda8     bda8      d30     1         /home/famous282/.rustup/toolchains/stable-x86_64-unknown-linux-gnu/lib/rustlib/riscv32imac-unknown-none-elf/lib/libcompiler_builtins-5525e237063e5553.rlib(compiler_builtins-5525e237063e5553.compiler_builtins.8129c65e379068d4-cgu.000.rcgu.o):(.debug_ranges)
    bda8     bda8        0     1                 .L0 
    bda8     bda8        0     1                 $d
    bdc0     bdc0        0     1                 .L0 
    bdd8     bdd8        0     1                 .L0 
    bdf8     bdf8        0     1                 .L0 
    be18     be18        0     1                 .L0 
    be38     be38        0     1                 .L0 
    beb8     beb8        0     1                 .L0 
    bf38     bf38        0     1                 .L0 
    bfe0     bfe0        0     1                 .L0 
    c088     c088        0     1                 .L0 
    c0a0     c0a0        0     1                 .L0 
    c0e0     c0e0        0     1                 .L0 
    c128     c128        0     1                 .L0 
    c158     c158        0     1                 .L0 
    c198     c198        0     1                 .L0 
    c200     c200        0     1                 .L0 
    c238     c238        0     1                 .L0 
    c268     c268        0     1                 .L0 
    c290     c290        0     1                 .L0 
    c2b0     c2b0        0     1                 .L0 
    c2d0     c2d0        0     1                 .L0 
    c2f0     c2f0        0     1                 .L0 
    c308     c308        0     1                 .L0 
    c340     c340        0     1                 .L0 
    c380     c380        0     1                 .L0 
    c3a8     c3a8        0     1                 .L0 
    c3c8     c3c8        0     1                 .L0 
    c400     c400        0     1                 .L0 
    c418     c418        0     1                 .L0 
    c458     c458        0     1                 .L0 
    c470     c470        0     1                 .L0 
    c488     c488        0     1                 .L0 
    c4a8     c4a8        0     1                 .L0 
    c4c8     c4c8        0     1                 .L0 
    c4e0     c4e0        0     1                 .L0 
    c508     c508        0     1                 .L0 
    c530     c530        0     1                 .L0 
    c548     c548        0     1                 .L0 
    c598     c598        0     1                 .L0 
    c5b0     c5b0        0     1                 .L0 
    c5c8     c5c8        0     1                 .L0 
    c5e8     c5e8        0     1                 .L0 
    c600     c600        0     1                 .L0 
    c620     c620        0     1                 .L0 
    c648     c648        0     1                 .L0 
    c668     c668        0     1                 .L0 
    c680     c680        0     1                 .L0 
    c698     c698        0     1                 .L0 
    c6b0     c6b0        0     1                 .L0 
    c6c8     c6c8        0     1                 .L0 
    c6e0     c6e0        0     1                 .L0 
    c720     c720        0     1                 .L0 
    c750     c750        0     1                 .L0 
    c770     c770        0     1                 .L0 
    c788     c788        0     1                 .L0 
    c7a0     c7a0        0     1                 .L0 
    c7b8     c7b8        0     1                 .L0 
    c7d8     c7d8        0     1                 .L0 
    c7f8     c7f8        0     1                 .L0 
    c818     c818        0     1                 .L0 
    c838     c838        0     1                 .L0 
    c858     c858        0     1                 .L0 
    c870     c870        0     1                 .L0 
    c888     c888        0     1                 .L0 
    c8a0     c8a0        0     1                 .L0 
    c8b8     c8b8        0     1                 .L0 
    c8e0     c8e0        0     1                 .L0 
    c900     c900        0     1                 .L0 
    c918     c918        0     1                 .L0 
    c960     c960        0     1                 .L0 
    c978     c978        0     1                 .L0 
    c990     c990        0     1                 .L0 
    c9a8     c9a8        0     1                 .L0 
    c9c0     c9c0        0     1                 .L0 
    c9d8     c9d8        0     1                 .L0 
    c9f0     c9f0        0     1                 .L0 
    ca08     ca08        0     1                 .L0 
    ca20     ca20        0     1                 .L0 
    ca38     ca38        0     1                 .L0 
    ca50     ca50        0     1                 .L0 
    ca68     ca68        0     1                 .L0 
    ca80     ca80        0     1                 .L0 
    ca98     ca98        0     1                 .L0 
    cab8     cab8        0     1                 .L0 
    cad8     cad8       48     1         /home/famous282/.rustup/toolchains/stable-x86_64-unknown-linux-gnu/lib/rustlib/riscv32imac-unknown-none-elf/lib/libcompiler_builtins-5525e237063e5553.rlib(compiler_builtins-5525e237063e5553.compiler_builtins.8129c65e379068d4-cgu.193.rcgu.o):(.debug_ranges)
    cad8     cad8        0     1                 .L0 
    cad8     cad8        0     1                 $d
    caf0     caf0        0     1                 .L0 
    cb08     cb08        0     1                 .L0 
    cb20     cb20       98     1         /home/famous282/.rustup/toolchains/stable-x86_64-unknown-linux-gnu/lib/rustlib/riscv32imac-unknown-none-elf/lib/libcompiler_builtins-5525e237063e5553.rlib(compiler_builtins-5525e237063e5553.compiler_builtins.8129c65e379068d4-cgu.205.rcgu.o):(.debug_ranges)
    cb20     cb20        0     1                 .L0 
    cb20     cb20        0     1                 $d
    cb40     cb40        0     1                 .L0 
    cb60     cb60        0     1                 .L0 
    cb80     cb80        0     1                 .L0 
    cba0     cba0        0     1                 .L0 
    cbb8     cbb8       20     1         /home/famous282/.rustup/toolchains/stable-x86_64-unknown-linux-gnu/lib/rustlib/riscv32imac-unknown-none-elf/lib/libcompiler_builtins-5525e237063e5553.rlib(compiler_builtins-5525e237063e5553.compiler_builtins.8129c65e379068d4-cgu.221.rcgu.o):(.debug_ranges)
    cbb8     cbb8        0     1                 .L0 
    cbb8     cbb8        0     1                 $d
    cbd8     cbd8       58     1         /home/famous282/.rustup/toolchains/stable-x86_64-unknown-linux-gnu/lib/rustlib/riscv32imac-unknown-none-elf/lib/libcompiler_builtins-5525e237063e5553.rlib(compiler_builtins-5525e237063e5553.compiler_builtins.8129c65e379068d4-cgu.248.rcgu.o):(.debug_ranges)
    cbd8     cbd8        0     1                 .L0 
    cbd8     cbd8        0     1                 $d
    cbf0     cbf0        0     1                 .L0 
    cc10     cc10        0     1                 .L0 
    cc30     cc30       60     1         /home/famous282/.rustup/toolchains/stable-x86_64-unknown-linux-gnu/lib/rustlib/riscv32imac-unknown-none-elf/lib/libcompiler_builtins-5525e237063e5553.rlib(compiler_builtins-5525e237063e5553.compiler_builtins.8129c65e379068d4-cgu.249.rcgu.o):(.debug_ranges)
    cc30     cc30        0     1                 .L0 
    cc30     cc30        0     1                 $d
    cc48     cc48        0     1                 .L0 
    cc60     cc60        0     1                 .L0 
    cc78     cc78        0     1                 .L0 
    cc90     cc90      3b0     1         /home/famous282/.rustup/toolchains/stable-x86_64-unknown-linux-gnu/lib/rustlib/riscv32imac-unknown-none-elf/lib/libcompiler_builtins-5525e237063e5553.rlib(compiler_builtins-5525e237063e5553.compiler_builtins.8129c65e379068d4-cgu.012.rcgu.o):(.debug_ranges)
    cc90     cc90        0     1                 .L0 
    cc90     cc90        0     1                 $d
    cca8     cca8        0     1                 .L0 
    ccc0     ccc0        0     1                 .L0 
    cce0     cce0        0     1                 .L0 
    cd00     cd00        0     1                 .L0 
    cd18     cd18        0     1                 .L0 
    cd30     cd30        0     1                 .L0 
    cd48     cd48        0     1                 .L0 
    cd60     cd60        0     1                 .L0 
    cd78     cd78        0     1                 .L0 
    cd90     cd90        0     1                 .L0 
    cda8     cda8        0     1                 .L0 
    cdc0     cdc0        0     1                 .L0 
    cdf0     cdf0        0     1                 .L0 
    ce08     ce08        0     1                 .L0 
    ce28     ce28        0     1                 .L0 
    ce50     ce50        0     1                 .L0 
    ce70     ce70        0     1                 .L0 
    ce90     ce90        0     1                 .L0 
    cea8     cea8        0     1                 .L0 
    cec0     cec0        0     1                 .L0 
    cee0     cee0        0     1                 .L0 
    cf00     cf00        0     1                 .L0 
    cf28     cf28        0     1                 .L0 
    cf40     cf40        0     1                 .L0 
    cf58     cf58        0     1                 .L0 
    cf78     cf78        0     1                 .L0 
    cf98     cf98        0     1                 .L0 
    cfb0     cfb0        0     1                 .L0 
    cfc8     cfc8        0     1                 .L0 
    cfe0     cfe0        0     1                 .L0 
    d000     d000        0     1                 .L0 
    d020     d020        0     1                 .L0 
    d040     d040       68     1         /home/famous282/.rustup/toolchains/stable-x86_64-unknown-linux-gnu/lib/rustlib/riscv32imac-unknown-none-elf/lib/libcompiler_builtins-5525e237063e5553.rlib(compiler_builtins-5525e237063e5553.compiler_builtins.8129c65e379068d4-cgu.295.rcgu.o):(.debug_ranges)
    d040     d040        0     1                 .L0 
    d040     d040        0     1                 $d
    d060     d060        0     1                 .L0 
    d078     d078        0     1                 .L0 
    d090     d090        0     1                 .L0 
    d0a8     d0a8       78     1         /home/famous282/.rustup/toolchains/stable-x86_64-unknown-linux-gnu/lib/rustlib/riscv32imac-unknown-none-elf/lib/libcompiler_builtins-5525e237063e5553.rlib(compiler_builtins-5525e237063e5553.compiler_builtins.8129c65e379068d4-cgu.314.rcgu.o):(.debug_ranges)
    d0a8     d0a8        0     1                 .L0 
    d0a8     d0a8        0     1                 $d
    d0d8     d0d8        0     1                 .L0 
    d0f0     d0f0        0     1                 .L0 
    d108     d108        0     1                 .L0 
    d120     d120       20     1         /home/famous282/.rustup/toolchains/stable-x86_64-unknown-linux-gnu/lib/rustlib/riscv32imac-unknown-none-elf/lib/libcompiler_builtins-5525e237063e5553.rlib(compiler_builtins-5525e237063e5553.compiler_builtins.8129c65e379068d4-cgu.326.rcgu.o):(.debug_ranges)
    d120     d120        0     1                 .L0 
    d120     d120        0     1                 $d
    d140     d140       20     1         /home/famous282/.rustup/toolchains/stable-x86_64-unknown-linux-gnu/lib/rustlib/riscv32imac-unknown-none-elf/lib/libcompiler_builtins-5525e237063e5553.rlib(compiler_builtins-5525e237063e5553.compiler_builtins.8129c65e379068d4-cgu.328.rcgu.o):(.debug_ranges)
    d140     d140        0     1                 .L0 
    d140     d140        0     1                 $d
    d160     d160       d8     1         /home/famous282/.rustup/toolchains/stable-x86_64-unknown-linux-gnu/lib/rustlib/riscv32imac-unknown-none-elf/lib/libcompiler_builtins-5525e237063e5553.rlib(compiler_builtins-5525e237063e5553.compiler_builtins.8129c65e379068d4-cgu.330.rcgu.o):(.debug_ranges)
    d160     d160        0     1                 .L0 
    d160     d160        0     1                 $d
    d1a0     d1a0        0     1                 .L0 
    d1e0     d1e0        0     1                 .L0 
    d220     d220        0     1                 .L0 
       0        0    4316c     1 .debug_str
       0        0    4316c     1         <internal>:(.debug_str)
       0        0       8b     1 .comment
       0        0       8b     1         <internal>:(.comment)
       0        0       4e     1 .riscv.attributes
       0        0       4e     1         <internal>:(.riscv.attributes)
       0        0      1e8     4 .debug_frame
       0        0       7c     4         /home/famous282/1000linesOS/kernel/target/riscv32imac-unknown-none-elf/debug/deps/kernel-dfa3df23995ef8b4.24qdkavsqt2e6ckh6joba0u2j.0yvtx01.rcgu.o:(.debug_frame)
       0        0        0     1                 .L0 
       0        0        0     1                 $d
      7c       7c       40     4         /home/famous282/1000linesOS/kernel/target/riscv32imac-unknown-none-elf/debug/deps/kernel-dfa3df23995ef8b4.3lszhsxzyn1vde1rs4win02um.0yvtx01.rcgu.o:(.debug_frame)
      7c       7c        0     1                 .L0 
      7c       7c        0     1                 $d
      bc       bc       24     4         /home/famous282/1000linesOS/kernel/target/riscv32imac-unknown-none-elf/debug/deps/kernel-dfa3df23995ef8b4.4ftrnxq5k2ijxu6ko4fxfrcj8.0yvtx01.rcgu.o:(.debug_frame)
      bc       bc        0     1                 .L0 
      bc       bc        0     1                 $d
      e0       e0       4c     4         /home/famous282/1000linesOS/kernel/target/riscv32imac-unknown-none-elf/debug/deps/kernel-dfa3df23995ef8b4.63ptxjvpldbz03i077ow9897u.0yvtx01.rcgu.o:(.debug_frame)
      e0       e0        0     1                 .L0 
      e0       e0        0     1                 $d
     12c      12c       2c     4         /home/famous282/1000linesOS/kernel/target/riscv32imac-unknown-none-elf/debug/deps/kernel-dfa3df23995ef8b4.aqtcxbzy89ozo9dgld6fn0q5h.0yvtx01.rcgu.o:(.debug_frame)
     12c      12c        0     1                 .L0 
     12c      12c        0     1                 $d
     158      158       58     4         /home/famous282/1000linesOS/kernel/target/riscv32imac-unknown-none-elf/debug/deps/kernel-dfa3df23995ef8b4.b1wfjfrxrno1sga9zbdwiqldk.0yvtx01.rcgu.o:(.debug_frame)
     158      158        0     1                 .L0 
     158      158        0     1                 $d
     1b0      1b0       38     4         /home/famous282/1000linesOS/kernel/target/riscv32imac-unknown-none-elf/debug/deps/kernel-dfa3df23995ef8b4.bd4aykr3vnli855y8j4uib0hb.0yvtx01.rcgu.o:(.debug_frame)
     1b0      1b0        0     1                 .L0 
     1b0      1b0        0     1                 $d
       0        0    237d7     1 .debug_line
       0        0      47b     1         /home/famous282/1000linesOS/kernel/target/riscv32imac-unknown-none-elf/debug/deps/kernel-dfa3df23995ef8b4.24qdkavsqt2e6ckh6joba0u2j.0yvtx01.rcgu.o:(.debug_line)
       0        0        0     1                 .Lline_table_start0
       0        0        0     1                 $d
     3b9      3b9        0     1                 .Lline_table_start1
     44e      44e        0     1                 .Lline_table_start2
     47b      47b      1d6     1         /home/famous282/1000linesOS/kernel/target/riscv32imac-unknown-none-elf/debug/deps/kernel-dfa3df23995ef8b4.3lszhsxzyn1vde1rs4win02um.0yvtx01.rcgu.o:(.debug_line)
     47b      47b        0     1                 .Lline_table_start0
     47b      47b        0     1                 $d
     651      651       ac     1         /home/famous282/1000linesOS/kernel/target/riscv32imac-unknown-none-elf/debug/deps/kernel-dfa3df23995ef8b4.4ftrnxq5k2ijxu6ko4fxfrcj8.0yvtx01.rcgu.o:(.debug_line)
     651      651        0     1                 .Lline_table_start0
     651      651        0     1                 $d
     6fd      6fd      501     1         /home/famous282/1000linesOS/kernel/target/riscv32imac-unknown-none-elf/debug/deps/kernel-dfa3df23995ef8b4.63ptxjvpldbz03i077ow9897u.0yvtx01.rcgu.o:(.debug_line)
     6fd      6fd        0     1                 .Lline_table_start0
     6fd      6fd        0     1                 $d
     ad0      ad0        0     1                 .Lline_table_start1
     bfe      bfe      17e     1         /home/famous282/1000linesOS/kernel/target/riscv32imac-unknown-none-elf/debug/deps/kernel-dfa3df23995ef8b4.aqtcxbzy89ozo9dgld6fn0q5h.0yvtx01.rcgu.o:(.debug_line)
     bfe      bfe        0     1                 .Lline_table_start0
     bfe      bfe        0     1                 $d
     ce7      ce7        0     1                 .Lline_table_start1
     d7c      d7c      3fd     1         /home/famous282/1000linesOS/kernel/target/riscv32imac-unknown-none-elf/debug/deps/kernel-dfa3df23995ef8b4.b1wfjfrxrno1sga9zbdwiqldk.0yvtx01.rcgu.o:(.debug_line)
     d7c      d7c        0     1                 .Lline_table_start0
     d7c      d7c        0     1                 $d
    1179     1179       88     1         /home/famous282/1000linesOS/kernel/target/riscv32imac-unknown-none-elf/debug/deps/kernel-dfa3df23995ef8b4.bd4aykr3vnli855y8j4uib0hb.0yvtx01.rcgu.o:(.debug_line)
    1179     1179        0     1                 .Lline_table_start0
    1179     1179        0     1                 $d
    1201     1201    1bb15     1         /home/famous282/.rustup/toolchains/stable-x86_64-unknown-linux-gnu/lib/rustlib/riscv32imac-unknown-none-elf/lib/libcore-36e1cca942c0a58a.rlib(core-36e1cca942c0a58a.core.283c90c5601d86be-cgu.0.rcgu.o):(.debug_line)
    1201     1201        0     1                 .Lline_table_start0
    1201     1201        0     1                 $d
   1cd16    1cd16       eb     1         /home/famous282/.rustup/toolchains/stable-x86_64-unknown-linux-gnu/lib/rustlib/riscv32imac-unknown-none-elf/lib/libcompiler_builtins-5525e237063e5553.rlib(compiler_builtins-5525e237063e5553.compiler_builtins.8129c65e379068d4-cgu.107.rcgu.o):(.debug_line)
   1cd16    1cd16        0     1                 .Lline_table_start0
   1cd16    1cd16        0     1                 $d
   1ce01    1ce01      11d     1         /home/famous282/.rustup/toolchains/stable-x86_64-unknown-linux-gnu/lib/rustlib/riscv32imac-unknown-none-elf/lib/libcompiler_builtins-5525e237063e5553.rlib(compiler_builtins-5525e237063e5553.compiler_builtins.8129c65e379068d4-cgu.163.rcgu.o):(.debug_line)
   1ce01    1ce01        0     1                 .Lline_table_start0
   1ce01    1ce01        0     1                 $d
   1cec3    1cec3        0     1                 .Lline_table_start1
   1cf1e    1cf1e      a08     1         /home/famous282/.rustup/toolchains/stable-x86_64-unknown-linux-gnu/lib/rustlib/riscv32imac-unknown-none-elf/lib/libcompiler_builtins-5525e237063e5553.rlib(compiler_builtins-5525e237063e5553.compiler_builtins.8129c65e379068d4-cgu.017.rcgu.o):(.debug_line)
   1cf1e    1cf1e        0     1                 .Lline_table_start0
   1cf1e    1cf1e        0     1                 $d
   1d926    1d926      230     1         /home/famous282/.rustup/toolchains/stable-x86_64-unknown-linux-gnu/lib/rustlib/riscv32imac-unknown-none-elf/lib/libcompiler_builtins-5525e237063e5553.rlib(compiler_builtins-5525e237063e5553.compiler_builtins.8129c65e379068d4-cgu.173.rcgu.o):(.debug_line)
   1d926    1d926        0     1                 .Lline_table_start0
   1d926    1d926        0     1                 $d
   1da81    1da81        0     1                 .Lline_table_start1
   1db56    1db56       6e     1         /home/famous282/.rustup/toolchains/stable-x86_64-unknown-linux-gnu/lib/rustlib/riscv32imac-unknown-none-elf/lib/libcompiler_builtins-5525e237063e5553.rlib(compiler_builtins-5525e237063e5553.compiler_builtins.8129c65e379068d4-cgu.177.rcgu.o):(.debug_line)
   1db56    1db56        0     1                 .Lline_table_start0
   1db56    1db56        0     1                 $d
   1dbc4    1dbc4     125d     1         /home/famous282/.rustup/toolchains/stable-x86_64-unknown-linux-gnu/lib/rustlib/riscv32imac-unknown-none-elf/lib/libcompiler_builtins-5525e237063e5553.rlib(compiler_builtins-5525e237063e5553.compiler_builtins.8129c65e379068d4-cgu.003.rcgu.o):(.debug_line)
   1dbc4    1dbc4        0     1                 .Lline_table_start0
   1dbc4    1dbc4        0     1                 $d
   1ecda    1ecda        0     1                 .Lline_table_start1
   1ed39    1ed39        0     1                 .Lline_table_start2
   1edc3    1edc3        0     1                 .Lline_table_start3
   1ee21    1ee21      6ae     1         /home/famous282/.rustup/toolchains/stable-x86_64-unknown-linux-gnu/lib/rustlib/riscv32imac-unknown-none-elf/lib/libcompiler_builtins-5525e237063e5553.rlib(compiler_builtins-5525e237063e5553.compiler_builtins.8129c65e379068d4-cgu.019.rcgu.o):(.debug_line)
   1ee21    1ee21        0     1                 .Lline_table_start0
   1ee21    1ee21        0     1                 $d
   1f471    1f471        0     1                 .Lline_table_start1
   1f4cf    1f4cf      2d2     1         /home/famous282/.rustup/toolchains/stable-x86_64-unknown-linux-gnu/lib/rustlib/riscv32imac-unknown-none-elf/lib/libcompiler_builtins-5525e237063e5553.rlib(compiler_builtins-5525e237063e5553.compiler_builtins.8129c65e379068d4-cgu.178.rcgu.o):(.debug_line)
   1f4cf    1f4cf        0     1                 .Lline_table_start0
   1f4cf    1f4cf        0     1                 $d
   1f6cc    1f6cc        0     1                 .Lline_table_start1
   1f7a1    1f7a1      118     1         /home/famous282/.rustup/toolchains/stable-x86_64-unknown-linux-gnu/lib/rustlib/riscv32imac-unknown-none-elf/lib/libcompiler_builtins-5525e237063e5553.rlib(compiler_builtins-5525e237063e5553.compiler_builtins.8129c65e379068d4-cgu.184.rcgu.o):(.debug_line)
   1f7a1    1f7a1        0     1                 .Lline_table_start0
   1f7a1    1f7a1        0     1                 $d
   1f85e    1f85e        0     1                 .Lline_table_start1
   1f8b9    1f8b9       6e     1         /home/famous282/.rustup/toolchains/stable-x86_64-unknown-linux-gnu/lib/rustlib/riscv32imac-unknown-none-elf/lib/libcompiler_builtins-5525e237063e5553.rlib(compiler_builtins-5525e237063e5553.compiler_builtins.8129c65e379068d4-cgu.192.rcgu.o):(.debug_line)
   1f8b9    1f8b9        0     1                 .Lline_table_start0
   1f8b9    1f8b9        0     1                 $d
   1f927    1f927     14de     1         /home/famous282/.rustup/toolchains/stable-x86_64-unknown-linux-gnu/lib/rustlib/riscv32imac-unknown-none-elf/lib/libcompiler_builtins-5525e237063e5553.rlib(compiler_builtins-5525e237063e5553.compiler_builtins.8129c65e379068d4-cgu.000.rcgu.o):(.debug_line)
   1f927    1f927        0     1                 .Lline_table_start0
   1f927    1f927        0     1                 $d
   20da9    20da9        0     1                 .Lline_table_start1
   20e05    20e05      2f6     1         /home/famous282/.rustup/toolchains/stable-x86_64-unknown-linux-gnu/lib/rustlib/riscv32imac-unknown-none-elf/lib/libcompiler_builtins-5525e237063e5553.rlib(compiler_builtins-5525e237063e5553.compiler_builtins.8129c65e379068d4-cgu.193.rcgu.o):(.debug_line)
   20e05    20e05        0     1                 .Lline_table_start0
   20e05    20e05        0     1                 $d
   20ff0    20ff0        0     1                 .Lline_table_start1
   210fb    210fb      3a2     1         /home/famous282/.rustup/toolchains/stable-x86_64-unknown-linux-gnu/lib/rustlib/riscv32imac-unknown-none-elf/lib/libcompiler_builtins-5525e237063e5553.rlib(compiler_builtins-5525e237063e5553.compiler_builtins.8129c65e379068d4-cgu.205.rcgu.o):(.debug_line)
   210fb    210fb        0     1                 .Lline_table_start0
   210fb    210fb        0     1                 $d
   2136a    2136a        0     1                 .Lline_table_start1
   2149d    2149d      245     1         /home/famous282/.rustup/toolchains/stable-x86_64-unknown-linux-gnu/lib/rustlib/riscv32imac-unknown-none-elf/lib/libcompiler_builtins-5525e237063e5553.rlib(compiler_builtins-5525e237063e5553.compiler_builtins.8129c65e379068d4-cgu.221.rcgu.o):(.debug_line)
   2149d    2149d        0     1                 .Lline_table_start0
   2149d    2149d        0     1                 $d
   2160d    2160d        0     1                 .Lline_table_start1
   216e2    216e2      118     1         /home/famous282/.rustup/toolchains/stable-x86_64-unknown-linux-gnu/lib/rustlib/riscv32imac-unknown-none-elf/lib/libcompiler_builtins-5525e237063e5553.rlib(compiler_builtins-5525e237063e5553.compiler_builtins.8129c65e379068d4-cgu.247.rcgu.o):(.debug_line)
   216e2    216e2        0     1                 .Lline_table_start0
   216e2    216e2        0     1                 $d
   2179f    2179f        0     1                 .Lline_table_start1
   217fa    217fa      2c0     1         /home/famous282/.rustup/toolchains/stable-x86_64-unknown-linux-gnu/lib/rustlib/riscv32imac-unknown-none-elf/lib/libcompiler_builtins-5525e237063e5553.rlib(compiler_builtins-5525e237063e5553.compiler_builtins.8129c65e379068d4-cgu.248.rcgu.o):(.debug_line)
   217fa    217fa        0     1                 .Lline_table_start0
   217fa    217fa        0     1                 $d
   219ae    219ae        0     1                 .Lline_table_start1
   21a5f    21a5f        0     1                 .Lline_table_start2
   21aba    21aba      2b9     1         /home/famous282/.rustup/toolchains/stable-x86_64-unknown-linux-gnu/lib/rustlib/riscv32imac-unknown-none-elf/lib/libcompiler_builtins-5525e237063e5553.rlib(compiler_builtins-5525e237063e5553.compiler_builtins.8129c65e379068d4-cgu.249.rcgu.o):(.debug_line)
   21aba    21aba        0     1                 .Lline_table_start0
   21aba    21aba        0     1                 $d
   21c67    21c67        0     1                 .Lline_table_start1
   21d18    21d18        0     1                 .Lline_table_start2
   21d73    21d73      11d     1         /home/famous282/.rustup/toolchains/stable-x86_64-unknown-linux-gnu/lib/rustlib/riscv32imac-unknown-none-elf/lib/libcompiler_builtins-5525e237063e5553.rlib(compiler_builtins-5525e237063e5553.compiler_builtins.8129c65e379068d4-cgu.256.rcgu.o):(.debug_line)
   21d73    21d73        0     1                 .Lline_table_start0
   21d73    21d73        0     1                 $d
   21e35    21e35        0     1                 .Lline_table_start1
   21e90    21e90       6e     1         /home/famous282/.rustup/toolchains/stable-x86_64-unknown-linux-gnu/lib/rustlib/riscv32imac-unknown-none-elf/lib/libcompiler_builtins-5525e237063e5553.rlib(compiler_builtins-5525e237063e5553.compiler_builtins.8129c65e379068d4-cgu.264.rcgu.o):(.debug_line)
   21e90    21e90        0     1                 .Lline_table_start0
   21e90    21e90        0     1                 $d
   21efe    21efe      971     1         /home/famous282/.rustup/toolchains/stable-x86_64-unknown-linux-gnu/lib/rustlib/riscv32imac-unknown-none-elf/lib/libcompiler_builtins-5525e237063e5553.rlib(compiler_builtins-5525e237063e5553.compiler_builtins.8129c65e379068d4-cgu.012.rcgu.o):(.debug_line)
   21efe    21efe        0     1                 .Lline_table_start0
   21efe    21efe        0     1                 $d
   2286f    2286f      2bc     1         /home/famous282/.rustup/toolchains/stable-x86_64-unknown-linux-gnu/lib/rustlib/riscv32imac-unknown-none-elf/lib/libcompiler_builtins-5525e237063e5553.rlib(compiler_builtins-5525e237063e5553.compiler_builtins.8129c65e379068d4-cgu.295.rcgu.o):(.debug_line)
   2286f    2286f        0     1                 .Lline_table_start0
   2286f    2286f        0     1                 $d
   22a56    22a56        0     1                 .Lline_table_start1
   22b2b    22b2b      2d2     1         /home/famous282/.rustup/toolchains/stable-x86_64-unknown-linux-gnu/lib/rustlib/riscv32imac-unknown-none-elf/lib/libcompiler_builtins-5525e237063e5553.rlib(compiler_builtins-5525e237063e5553.compiler_builtins.8129c65e379068d4-cgu.314.rcgu.o):(.debug_line)
   22b2b    22b2b        0     1                 .Lline_table_start0
   22b2b    22b2b        0     1                 $d
   22d28    22d28        0     1                 .Lline_table_start1
   22dfd    22dfd       6e     1         /home/famous282/.rustup/toolchains/stable-x86_64-unknown-linux-gnu/lib/rustlib/riscv32imac-unknown-none-elf/lib/libcompiler_builtins-5525e237063e5553.rlib(compiler_builtins-5525e237063e5553.compiler_builtins.8129c65e379068d4-cgu.322.rcgu.o):(.debug_line)
   22dfd    22dfd        0     1                 .Lline_table_start0
   22dfd    22dfd        0     1                 $d
   22e6b    22e6b      245     1         /home/famous282/.rustup/toolchains/stable-x86_64-unknown-linux-gnu/lib/rustlib/riscv32imac-unknown-none-elf/lib/libcompiler_builtins-5525e237063e5553.rlib(compiler_builtins-5525e237063e5553.compiler_builtins.8129c65e379068d4-cgu.326.rcgu.o):(.debug_line)
   22e6b    22e6b        0     1                 .Lline_table_start0
   22e6b    22e6b        0     1                 $d
   22fdb    22fdb        0     1                 .Lline_table_start1
   230b0    230b0      245     1         /home/famous282/.rustup/toolchains/stable-x86_64-unknown-linux-gnu/lib/rustlib/riscv32imac-unknown-none-elf/lib/libcompiler_builtins-5525e237063e5553.rlib(compiler_builtins-5525e237063e5553.compiler_builtins.8129c65e379068d4-cgu.328.rcgu.o):(.debug_line)
   230b0    230b0        0     1                 .Lline_table_start0
   230b0    230b0        0     1                 $d
   23220    23220        0     1                 .Lline_table_start1
   232f5    232f5      474     1         /home/famous282/.rustup/toolchains/stable-x86_64-unknown-linux-gnu/lib/rustlib/riscv32imac-unknown-none-elf/lib/libcompiler_builtins-5525e237063e5553.rlib(compiler_builtins-5525e237063e5553.compiler_builtins.8129c65e379068d4-cgu.330.rcgu.o):(.debug_line)
   232f5    232f5        0     1                 .Lline_table_start0
   232f5    232f5        0     1                 $d
   23637    23637        0     1                 .Lline_table_start1
   23769    23769       6e     1         /home/famous282/.rustup/toolchains/stable-x86_64-unknown-linux-gnu/lib/rustlib/riscv32imac-unknown-none-elf/lib/libcompiler_builtins-5525e237063e5553.rlib(compiler_builtins-5525e237063e5553.compiler_builtins.8129c65e379068d4-cgu.336.rcgu.o):(.debug_line)
   23769    23769        0     1                 .Lline_table_start0
   23769    23769        0     1                 $d
       0        0     bdd0     4 .symtab
       0        0     bdd0     4         <internal>:(.symtab)
       0        0       b9     1 .shstrtab
       0        0       b9     1         <internal>:(.shstrtab)
       0        0     5052     1 .strtab
       0        0     5052     1         <internal>:(.strtab)
