     VMA      LMA     Size Align Out     In      Symbol
       0        0 80200000     1 . = 0x80200000
80200000 80200000      bf6     4 .text
80200000 80200000        c     4         /home/famous282/1000linesOS/kernel/target/riscv32imac-unknown-none-elf/debug/deps/kernel-e423684175293233.7hqkh35l985iompa8en7ayj8i.0x2lq71.rcgu.o:(.text.boot)
80200000 80200000        0     1                 .Lpcrel_hi0
80200000 80200000        0     1                 $x
80200000 80200000        c     1                 boot
8020000c 8020000c       8e     2         /home/famous282/1000linesOS/kernel/target/riscv32imac-unknown-none-elf/debug/deps/kernel-e423684175293233.1gy28gr8yncw9yg4wm3kw95ip.0x2lq71.rcgu.o:(.text._ZN4core3fmt5Write10write_char17h31e0d6cdd98ca089E.llvm.5278507534116890449)
8020000c 8020000c        0     1                 .L0 
8020000c 8020000c        0     1                 .L0 
8020000c 8020000c        0     1                 $x
8020000c 8020000c        0     1                 .L0 
8020000c 8020000c       8e     1                 core::fmt::Write::write_char::h31e0d6cdd98ca089 (.llvm.5278507534116890449)
80200016 80200016        0     1                 .L0 
80200016 80200016        0     1                 .L0 
8020001a 8020001a        0     1                 .L0 
8020001a 8020001a        0     1                 .L0 
80200020 80200020        0     1                 .L0 
80200022 80200022        0     1                 .L0 
80200022 80200022        0     1                 .L0 
80200026 80200026        0     1                 .L0 
8020002e 8020002e        0     1                 .L0 
80200032 80200032        0     1                 .L0 
80200032 80200032        0     1                 .L0 
80200034 80200034        0     1                 .L0 
80200042 80200042        0     1                 .L0 
80200044 80200044        0     1                 .L0 
80200048 80200048        0     1                 .L0 
80200048 80200048        0     1                 .L0 
8020004c 8020004c        0     1                 .L0 
80200054 80200054        0     1                 .L0 
80200054 80200054        0     1                 .L0 
80200056 80200056        0     1                 .L0 
80200068 80200068        0     1                 .L0 
8020006a 8020006a        0     1                 .L0 
80200078 80200078        0     1                 .L0 
80200078 80200078        0     1                 .L0 
8020008a 8020008a        0     1                 .L0 
8020009a 8020009a        0     1                 .L0 
8020009a 8020009a       14     2         /home/famous282/1000linesOS/kernel/target/riscv32imac-unknown-none-elf/debug/deps/kernel-e423684175293233.1gy28gr8yncw9yg4wm3kw95ip.0x2lq71.rcgu.o:(.text._ZN4core3fmt5Write9write_fmt17h62d4561b3b4ed37dE)
8020009a 8020009a        0     1                 .L0 
8020009a 8020009a        0     1                 .L0 
8020009a 8020009a        0     1                 $x
8020009a 8020009a        0     1                 .L0 
8020009a 8020009a       14     1                 core::fmt::Write::write_fmt::h62d4561b3b4ed37d
8020009e 8020009e        0     1                 .L0 
802000ae 802000ae        0     1                 .L0 
802000ae 802000ae        2     2         /home/famous282/1000linesOS/kernel/target/riscv32imac-unknown-none-elf/debug/deps/kernel-e423684175293233.1zwa976huie3oeuiu5py3i96v.0x2lq71.rcgu.o:(.text._RNvCshXwFllX56pT_7___rustc17rust_begin_unwind)
802000ae 802000ae        0     1                 .L0 
802000ae 802000ae        0     1                 .L0 
802000ae 802000ae        0     1                 $x
802000ae 802000ae        0     1                 .L0 
802000ae 802000ae        2     1                 __rustc::rust_begin_unwind
802000b0 802000b0        0     1                 .L0 
802000b0 802000b0       14     2         /home/famous282/1000linesOS/kernel/target/riscv32imac-unknown-none-elf/debug/deps/kernel-e423684175293233.7hqkh35l985iompa8en7ayj8i.0x2lq71.rcgu.o:(.text._ZN6kernel6kernel7putchar17hfb6a7f57326cea56E)
802000b0 802000b0        0     1                 .L0 
802000b0 802000b0        0     1                 .L0 
802000b0 802000b0        0     1                 $x
802000b0 802000b0        0     1                 .L0 
802000b0 802000b0       14     1                 kernel::kernel::putchar::hfb6a7f57326cea56
802000c4 802000c4        0     1                 .L0 
802000c4 802000c4       66     2         /home/famous282/1000linesOS/kernel/target/riscv32imac-unknown-none-elf/debug/deps/kernel-e423684175293233.7hqkh35l985iompa8en7ayj8i.0x2lq71.rcgu.o:(.text.kernel_main)
802000c4 802000c4        0     1                 .L0 
802000c4 802000c4        0     1                 .L0 
802000c4 802000c4        0     1                 $x
802000c4 802000c4        0     1                 .L0 
802000c4 802000c4       66     1                 kernel_main
802000c8 802000c8        0     1                 .L0 
802000de 802000de        0     1                 .L0 
80200106 80200106        0     1                 .L0 
80200124 80200124        0     1                 .L0 
8020012a 8020012a        0     1                 .L0 
8020012a 8020012a       18     2         /home/famous282/1000linesOS/kernel/target/riscv32imac-unknown-none-elf/debug/deps/kernel-e423684175293233.7wj5zoa8xxs3t0yy1onealpk8.0x2lq71.rcgu.o:(.text.unlikely._ZN4core4hint21unreachable_unchecked18precondition_check17h553eca9260945490E.llvm.15488555660417600824)
8020012a 8020012a        0     1                 .L0 
8020012a 8020012a        0     1                 .L0 
8020012a 8020012a        0     1                 $x
8020012a 8020012a        0     1                 .L0 
8020012a 8020012a       18     1                 core::hint::unreachable_unchecked::precondition_check::h553eca9260945490 (.llvm.15488555660417600824)
8020012c 8020012c        0     1                 .L0 
80200142 80200142        0     1                 .L0 
80200142 80200142      116     2         /home/famous282/1000linesOS/kernel/target/riscv32imac-unknown-none-elf/debug/deps/kernel-e423684175293233.7wj5zoa8xxs3t0yy1onealpk8.0x2lq71.rcgu.o:(.text._ZN60_$LT$kernel..common..Console$u20$as$u20$core..fmt..Write$GT$9write_str17h29cb7a28077f2031E)
80200142 80200142        0     1                 .L0 
80200142 80200142        0     1                 .L0 
80200142 80200142        0     1                 $x
80200142 80200142        0     1                 .L0 
80200142 80200142      116     1                 _$LT$kernel..common..Console$u20$as$u20$core..fmt..Write$GT$::write_str::h29cb7a28077f2031
80200154 80200154        0     1                 .L0 
80200154 80200154        0     1                 .L0 
80200156 80200156        0     1                 .L0 
80200156 80200156        0     1                 .L0 
80200174 80200174        0     1                 .L0 
80200178 80200178        0     1                 .L0 
8020017c 8020017c        0     1                 .L0 
8020017c 8020017c        0     1                 .L0 
80200180 80200180        0     1                 .L0 
80200182 80200182        0     1                 .L0 
80200184 80200184        0     1                 .L0 
80200184 80200184        0     1                 .L0 
80200188 80200188        0     1                 .L0 
80200188 80200188        0     1                 .L0 
80200190 80200190        0     1                 .L0 
80200194 80200194        0     1                 .L0 
80200198 80200198        0     1                 .L0 
80200198 80200198        0     1                 .L0 
8020019c 8020019c        0     1                 .L0 
8020019c 8020019c        0     1                 .L0 
802001a0 802001a0        0     1                 .L0 
802001a4 802001a4        0     1                 .L0 
802001a8 802001a8        0     1                 .L0 
802001b0 802001b0        0     1                 .L0 
802001b0 802001b0        0     1                 .L0 
802001b4 802001b4        0     1                 .L0 
802001b4 802001b4        0     1                 .L0 
802001b8 802001b8        0     1                 .L0 
802001bc 802001bc        0     1                 .L0 
802001c2 802001c2        0     1                 .L0 
802001cc 802001cc        0     1                 .L0 
802001ce 802001ce        0     1                 .L0 
802001d6 802001d6        0     1                 .L0 
802001dc 802001dc        0     1                 .L0 
802001de 802001de        0     1                 .L0 
802001de 802001de        0     1                 .L0 
802001e8 802001e8        0     1                 .L0 
802001e8 802001e8        0     1                 .L0 
802001f0 802001f0        0     1                 .L0 
802001f0 802001f0        0     1                 .L0 
802001f4 802001f4        0     1                 .L0 
802001f4 802001f4        0     1                 .L0 
8020020a 8020020a        0     1                 .L0 
80200228 80200228        0     1                 .L0 
80200238 80200238        0     1                 .L0 
80200248 80200248        0     1                 .L0 
80200258 80200258        0     1                 .L0 
80200258 80200258        0     1                 .L0 
80200258 80200258      1ee     2         /home/famous282/.rustup/toolchains/stable-x86_64-unknown-linux-gnu/lib/rustlib/riscv32imac-unknown-none-elf/lib/libcore-c6eeea32d188506f.rlib(core-c6eeea32d188506f.core.f2b050c2002e39f1-cgu.0.rcgu.o):(.text._ZN4core3fmt3num3imp21_$LT$impl$u20$u32$GT$10_fmt_inner17h798662ed11497e6fE)
80200258 80200258      1ee     1                 core::fmt::num::imp::_$LT$impl$u20$u32$GT$::_fmt_inner::h798662ed11497e6f
80200258 80200258        0     1                 .L0 
80200258 80200258        0     1                 .L0 
80200258 80200258        0     1                 $x
80200258 80200258        0     1                 .L0 
80200276 80200276        0     1                 .L0 
8020027a 8020027a        0     1                 .L0 
802002b8 802002b8        0     1                 .L0 
802002bc 802002bc        0     1                 .L0 
802002ec 802002ec        0     1                 .L0 
802002f0 802002f0        0     1                 .L0 
802002f4 802002f4        0     1                 .L0 
802002fc 802002fc        0     1                 .L0 
80200300 80200300        0     1                 .L0 
80200304 80200304        0     1                 .L0 
80200316 80200316        0     1                 .L0 
8020031a 8020031a        0     1                 .L0 
8020031e 8020031e        0     1                 .L0 
80200326 80200326        0     1                 .L0 
8020032a 8020032a        0     1                 .L0 
80200330 80200330        0     1                 .L0 
80200336 80200336        0     1                 .L0 
8020033a 8020033a        0     1                 .L0 
8020033e 8020033e        0     1                 .L0 
80200342 80200342        0     1                 .L0 
8020037a 8020037a        0     1                 .L0 
8020037e 8020037e        0     1                 .L0 
80200382 80200382        0     1                 .L0 
80200388 80200388        0     1                 .L0 
8020038c 8020038c        0     1                 .L0 
80200390 80200390        0     1                 .L0 
80200394 80200394        0     1                 .L0 
80200398 80200398        0     1                 .L0 
8020039e 8020039e        0     1                 .L0 
802003b0 802003b0        0     1                 .L0 
80200446 80200446        0     1                 .L0 
80200446 80200446       60     2         /home/famous282/.rustup/toolchains/stable-x86_64-unknown-linux-gnu/lib/rustlib/riscv32imac-unknown-none-elf/lib/libcore-c6eeea32d188506f.rlib(core-c6eeea32d188506f.core.f2b050c2002e39f1-cgu.0.rcgu.o):(.text._ZN4core3fmt3num3imp52_$LT$impl$u20$core..fmt..Display$u20$for$u20$i32$GT$3fmt17h7fcaa7f27ac9886bE)
80200446 80200446        0     1                 .L0 
80200446 80200446        0     1                 .L0 
80200446 80200446        0     1                 $x
80200446 80200446        0     1                 .L0 
80200446 80200446       60     1                 core::fmt::num::imp::_$LT$impl$u20$core..fmt..Display$u20$for$u20$i32$GT$::fmt::h7fcaa7f27ac9886b
80200446 80200446       60     1                 core::fmt::num::imp::_$LT$impl$u20$core..fmt..Display$u20$for$u20$isize$GT$::fmt::h35e770ba9e04d84a
8020045a 8020045a        0     1                 .L0 
8020046a 8020046a        0     1                 .L0 
8020047a 8020047a        0     1                 .L0 
8020047e 8020047e        0     1                 .L0 
802004a6 802004a6        0     1                 .L0 
802004a6 802004a6       4c     2         /home/famous282/.rustup/toolchains/stable-x86_64-unknown-linux-gnu/lib/rustlib/riscv32imac-unknown-none-elf/lib/libcore-c6eeea32d188506f.rlib(core-c6eeea32d188506f.core.f2b050c2002e39f1-cgu.0.rcgu.o):(.text._ZN4core3fmt3num3imp52_$LT$impl$u20$core..fmt..Display$u20$for$u20$u32$GT$3fmt17h3a3b01c2c200e3dfE)
802004a6 802004a6        0     1                 .L0 
802004a6 802004a6        0     1                 .L0 
802004a6 802004a6        0     1                 $x
802004a6 802004a6        0     1                 .L0 
802004a6 802004a6       4c     1                 core::fmt::num::imp::_$LT$impl$u20$core..fmt..Display$u20$for$u20$u32$GT$::fmt::h3a3b01c2c200e3df
802004a6 802004a6       4c     1                 core::fmt::num::imp::_$LT$impl$u20$core..fmt..Display$u20$for$u20$usize$GT$::fmt::h27b9f38dab907a22
802004bc 802004bc        0     1                 .L0 
802004cc 802004cc        0     1                 .L0 
802004d0 802004d0        0     1                 .L0 
802004f2 802004f2        0     1                 .L0 
802004f2 802004f2       58     2         /home/famous282/.rustup/toolchains/stable-x86_64-unknown-linux-gnu/lib/rustlib/riscv32imac-unknown-none-elf/lib/libcore-c6eeea32d188506f.rlib(core-c6eeea32d188506f.core.f2b050c2002e39f1-cgu.0.rcgu.o):(.text._ZN4core3fmt3num53_$LT$impl$u20$core..fmt..LowerHex$u20$for$u20$i32$GT$3fmt17hcc2de0230557d044E)
802004f2 802004f2        0     1                 .L0 
802004f2 802004f2        0     1                 .L0 
802004f2 802004f2        0     1                 $x
802004f2 802004f2        0     1                 .L0 
802004f2 802004f2       58     1                 core::fmt::num::_$LT$impl$u20$core..fmt..LowerHex$u20$for$u20$i32$GT$::fmt::hcc2de0230557d044
802004f2 802004f2       58     1                 core::fmt::num::_$LT$impl$u20$core..fmt..LowerHex$u20$for$u20$isize$GT$::fmt::hf13213851c93ef3f
80200500 80200500        0     1                 .L0 
8020051a 8020051a        0     1                 .L0 
8020051e 8020051e        0     1                 .L0 
80200522 80200522        0     1                 .L0 
8020054a 8020054a        0     1                 .L0 
8020054a 8020054a      1d6     2         /home/famous282/.rustup/toolchains/stable-x86_64-unknown-linux-gnu/lib/rustlib/riscv32imac-unknown-none-elf/lib/libcore-c6eeea32d188506f.rlib(core-c6eeea32d188506f.core.f2b050c2002e39f1-cgu.0.rcgu.o):(.text._ZN4core3fmt5write17h08cf6cd1f1c92632E)
8020054a 8020054a        0     1                 .L0 
8020054a 8020054a        0     1                 .L0 
8020054a 8020054a        0     1                 $x
8020054a 8020054a        0     1                 .L0 
8020054a 8020054a      1d6     1                 core::fmt::write::h08cf6cd1f1c92632
8020056a 8020056a        0     1                 .L0 
80200570 80200570        0     1                 .L0 
80200570 80200570        0     1                 .L0 
80200574 80200574        0     1                 .L0 
80200574 80200574        0     1                 .L0 
80200578 80200578        0     1                 .L0 
80200578 80200578        0     1                 .L0 
8020057c 8020057c        0     1                 .L0 
80200594 80200594        0     1                 .L0 
80200594 80200594        0     1                 .L0 
8020059c 8020059c        0     1                 .L0 
802005a0 802005a0        0     1                 .L0 
802005b0 802005b0        0     1                 .L0 
802005b6 802005b6        0     1                 .L0 
802005b6 802005b6        0     1                 .L0 
802005ba 802005ba        0     1                 .L0 
802005bc 802005bc        0     1                 .L0 
802005c2 802005c2        0     1                 .L0 
802005c2 802005c2        0     1                 .L0 
802005c6 802005c6        0     1                 .L0 
802005ca 802005ca        0     1                 .L0 
802005ce 802005ce        0     1                 .L0 
802005d2 802005d2        0     1                 .L0 
802005da 802005da        0     1                 .L0 
802005de 802005de        0     1                 .L0 
802005e0 802005e0        0     1                 .L0 
802005e2 802005e2        0     1                 .L0 
802005ea 802005ea        0     1                 .L0 
802005f2 802005f2        0     1                 .L0 
802005f2 802005f2        0     1                 .L0 
80200610 80200610        0     1                 .L0 
80200614 80200614        0     1                 .L0 
8020061a 8020061a        0     1                 .L0 
8020061c 8020061c        0     1                 .L0 
80200622 80200622        0     1                 .L0 
80200622 80200622        0     1                 .L0 
8020062e 8020062e        0     1                 .L0 
80200630 80200630        0     1                 .L0 
80200638 80200638        0     1                 .L0 
80200638 80200638        0     1                 .L0 
80200646 80200646        0     1                 .L0 
80200652 80200652        0     1                 .L0 
80200654 80200654        0     1                 .L0 
80200656 80200656        0     1                 .L0 
80200658 80200658        0     1                 .L0 
80200658 80200658        0     1                 .L0 
80200664 80200664        0     1                 .L0 
80200666 80200666        0     1                 .L0 
8020066c 8020066c        0     1                 .L0 
8020066e 8020066e        0     1                 .L0 
80200674 80200674        0     1                 .L0 
80200674 80200674        0     1                 .L0 
80200682 80200682        0     1                 .L0 
80200684 80200684        0     1                 .L0 
8020068a 8020068a        0     1                 .L0 
80200690 80200690        0     1                 .L0 
80200690 80200690        0     1                 .L0 
80200694 80200694        0     1                 .L0 
80200698 80200698        0     1                 .L0 
802006a0 802006a0        0     1                 .L0 
802006a4 802006a4        0     1                 .L0 
802006b8 802006b8        0     1                 .L0 
802006be 802006be        0     1                 .L0 
802006be 802006be        0     1                 .L0 
802006c4 802006c4        0     1                 .L0 
802006c4 802006c4        0     1                 .L0 
802006c8 802006c8        0     1                 .L0 
802006cc 802006cc        0     1                 .L0 
802006d4 802006d4        0     1                 .L0 
802006d8 802006d8        0     1                 .L0 
802006dc 802006dc        0     1                 .L0 
802006fe 802006fe        0     1                 .L0 
80200704 80200704        0     1                 .L0 
80200720 80200720        0     1                 .L0 
80200720 80200720       60     2         /home/famous282/.rustup/toolchains/stable-x86_64-unknown-linux-gnu/lib/rustlib/riscv32imac-unknown-none-elf/lib/libcore-c6eeea32d188506f.rlib(core-c6eeea32d188506f.core.f2b050c2002e39f1-cgu.0.rcgu.o):(.text._ZN4core3fmt9Formatter12pad_integral12write_prefix17hbefd4732ff2afbc6E)
80200720 80200720       60     1                 core::fmt::Formatter::pad_integral::write_prefix::hbefd4732ff2afbc6
80200720 80200720        0     1                 .L0 
80200720 80200720        0     1                 .L0 
80200720 80200720        0     1                 $x
80200720 80200720        0     1                 .L0 
8020073a 8020073a        0     1                 .L0 
8020073e 8020073e        0     1                 .L0 
8020074c 8020074c        0     1                 .L0 
8020074c 8020074c        0     1                 .L0 
8020074e 8020074e        0     1                 .L0 
80200750 80200750        0     1                 .L0 
80200752 80200752        0     1                 .L0 
80200756 80200756        0     1                 .L0 
80200780 80200780        0     1                 .L0 
80200780 80200780      25e     2         /home/famous282/.rustup/toolchains/stable-x86_64-unknown-linux-gnu/lib/rustlib/riscv32imac-unknown-none-elf/lib/libcore-c6eeea32d188506f.rlib(core-c6eeea32d188506f.core.f2b050c2002e39f1-cgu.0.rcgu.o):(.text._ZN4core3fmt9Formatter12pad_integral17hadb0409c6de42a5cE)
80200780 80200780        0     1                 .L0 
80200780 80200780        0     1                 .L0 
80200780 80200780        0     1                 $x
80200780 80200780        0     1                 .L0 
80200780 80200780      25e     1                 core::fmt::Formatter::pad_integral::hadb0409c6de42a5c
802007a8 802007a8        0     1                 .L0 
802007aa 802007aa        0     1                 .L0 
802007aa 802007aa        0     1                 .L0 
802007b8 802007b8        0     1                 .L0 
802007ba 802007ba        0     1                 .L0 
802007c4 802007c4        0     1                 .L0 
802007cc 802007cc        0     1                 .L0 
802007ce 802007ce        0     1                 .L0 
802007ce 802007ce        0     1                 .L0 
802007d2 802007d2        0     1                 .L0 
802007d4 802007d4        0     1                 .L0 
802007d4 802007d4        0     1                 .L0 
802007d8 802007d8        0     1                 .L0 
802007e4 802007e4        0     1                 .L0 
802007ec 802007ec        0     1                 .L0 
802007ee 802007ee        0     1                 .L0 
802007f2 802007f2        0     1                 .L0 
802007f2 802007f2        0     1                 .L0 
802007f8 802007f8        0     1                 .L0 
802007fc 802007fc        0     1                 .L0 
80200808 80200808        0     1                 .L0 
8020080c 8020080c        0     1                 .L0 
80200814 80200814        0     1                 .L0 
80200816 80200816        0     1                 .L0 
80200816 80200816        0     1                 .L0 
8020081e 8020081e        0     1                 .L0 
80200820 80200820        0     1                 .L0 
80200822 80200822        0     1                 .L0 
80200822 80200822        0     1                 .L0 
8020082e 8020082e        0     1                 .L0 
80200836 80200836        0     1                 .L0 
8020083c 8020083c        0     1                 .L0 
80200840 80200840        0     1                 .L0 
8020085a 8020085a        0     1                 .L0 
8020085a 8020085a        0     1                 .L0 
8020085e 8020085e        0     1                 .L0 
80200884 80200884        0     1                 .L0 
80200890 80200890        0     1                 .L0 
80200896 80200896        0     1                 .L0 
8020089c 8020089c        0     1                 .L0 
802008b4 802008b4        0     1                 .L0 
802008bc 802008bc        0     1                 .L0 
802008c2 802008c2        0     1                 .L0 
802008d8 802008d8        0     1                 .L0 
802008ea 802008ea        0     1                 .L0 
802008ea 802008ea        0     1                 .L0 
802008f2 802008f2        0     1                 .L0 
802008f2 802008f2        0     1                 .L0 
802008f6 802008f6        0     1                 .L0 
802008f8 802008f8        0     1                 .L0 
80200900 80200900        0     1                 .L0 
80200900 80200900        0     1                 .L0 
80200904 80200904        0     1                 .L0 
80200908 80200908        0     1                 .L0 
80200908 80200908        0     1                 .L0 
8020090c 8020090c        0     1                 .L0 
8020090c 8020090c        0     1                 .L0 
80200916 80200916        0     1                 .L0 
80200916 80200916        0     1                 .L0 
80200924 80200924        0     1                 .L0 
80200926 80200926        0     1                 .L0 
80200928 80200928        0     1                 .L0 
80200936 80200936        0     1                 .L0 
80200952 80200952        0     1                 .L0 
80200956 80200956        0     1                 .L0 
8020095a 8020095a        0     1                 .L0 
8020095a 8020095a        0     1                 .L0 
8020095e 8020095e        0     1                 .L0 
80200960 80200960        0     1                 .L0 
80200966 80200966        0     1                 .L0 
80200966 80200966        0     1                 .L0 
80200968 80200968        0     1                 .L0 
80200968 80200968        0     1                 .L0 
8020098a 8020098a        0     1                 .L0 
802009a0 802009a0        0     1                 .L0 
802009ae 802009ae        0     1                 .L0 
802009b0 802009b0        0     1                 .L0 
802009c2 802009c2        0     1                 .L0 
802009ca 802009ca        0     1                 .L0 
802009ce 802009ce        0     1                 .L0 
802009ce 802009ce        0     1                 .L0 
802009d2 802009d2        0     1                 .L0 
802009d4 802009d4        0     1                 .L0 
802009da 802009da        0     1                 .L0 
802009da 802009da        0     1                 .L0 
802009de 802009de        0     1                 .L0 
802009de 802009de      17e     2         /home/famous282/.rustup/toolchains/stable-x86_64-unknown-linux-gnu/lib/rustlib/riscv32imac-unknown-none-elf/lib/libcore-c6eeea32d188506f.rlib(core-c6eeea32d188506f.core.f2b050c2002e39f1-cgu.0.rcgu.o):(.text._ZN4core3str5count14do_count_chars17ha085528f26cab3c8E)
802009de 802009de        0     1                 .L0 
802009de 802009de        0     1                 .L0 
802009de 802009de        0     1                 $x
802009de 802009de        0     1                 .L0 
802009de 802009de      17e     1                 core::str::count::do_count_chars::ha085528f26cab3c8
802009e4 802009e4        0     1                 .L0 
802009ec 802009ec        0     1                 .L0 
802009f0 802009f0        0     1                 .L0 
802009f0 802009f0        0     1                 .L0 
802009f2 802009f2        0     1                 .L0 
802009f2 802009f2        0     1                 .L0 
802009f4 802009f4        0     1                 .L0 
802009fc 802009fc        0     1                 .L0 
80200a04 80200a04        0     1                 .L0 
80200a06 80200a06        0     1                 .L0 
80200a0a 80200a0a        0     1                 .L0 
80200a10 80200a10        0     1                 .L0 
80200a14 80200a14        0     1                 .L0 
80200a18 80200a18        0     1                 .L0 
80200a18 80200a18        0     1                 .L0 
80200a1c 80200a1c        0     1                 .L0 
80200a26 80200a26        0     1                 .L0 
80200a26 80200a26        0     1                 .L0 
80200a2a 80200a2a        0     1                 .L0 
80200a30 80200a30        0     1                 .L0 
80200a38 80200a38        0     1                 .L0 
80200a3a 80200a3a        0     1                 .L0 
80200a3e 80200a3e        0     1                 .L0 
80200a40 80200a40        0     1                 .L0 
80200a40 80200a40        0     1                 .L0 
80200a42 80200a42        0     1                 .L0 
80200a54 80200a54        0     1                 .L0 
80200a5c 80200a5c        0     1                 .L0 
80200a5e 80200a5e        0     1                 .L0 
80200a62 80200a62        0     1                 .L0 
80200a72 80200a72        0     1                 .L0 
80200a76 80200a76        0     1                 .L0 
80200a80 80200a80        0     1                 .L0 
80200a8e 80200a8e        0     1                 .L0 
80200a96 80200a96        0     1                 .L0 
80200a9a 80200a9a        0     1                 .L0 
80200aae 80200aae        0     1                 .L0 
80200aae 80200aae        0     1                 .L0 
80200ab4 80200ab4        0     1                 .L0 
80200ab4 80200ab4        0     1                 .L0 
80200aba 80200aba        0     1                 .L0 
80200ac8 80200ac8        0     1                 .L0 
80200afa 80200afa        0     1                 .L0 
80200afc 80200afc        0     1                 .L0 
80200afe 80200afe        0     1                 .L0 
80200b0a 80200b0a        0     1                 .L0 
80200b12 80200b12        0     1                 .L0 
80200b12 80200b12        0     1                 .L0 
80200b18 80200b18        0     1                 .L0 
80200b18 80200b18        0     1                 .L0 
80200b22 80200b22        0     1                 .L0 
80200b2a 80200b2a        0     1                 .L0 
80200b2c 80200b2c        0     1                 .L0 
80200b3a 80200b3a        0     1                 .L0 
80200b3c 80200b3c        0     1                 .L0 
80200b3c 80200b3c        0     1                 .L0 
80200b40 80200b40        0     1                 .L0 
80200b40 80200b40        0     1                 .L0 
80200b4c 80200b4c        0     1                 .L0 
80200b5c 80200b5c        0     1                 .L0 
80200b5c 80200b5c       3c     2         /home/famous282/.rustup/toolchains/stable-x86_64-unknown-linux-gnu/lib/rustlib/riscv32imac-unknown-none-elf/lib/libcore-c6eeea32d188506f.rlib(core-c6eeea32d188506f.core.f2b050c2002e39f1-cgu.0.rcgu.o):(.text.unlikely._ZN4core9panicking18panic_bounds_check17h8c475dbd9aaa9c2fE)
80200b5c 80200b5c        0     1                 .L0 
80200b5c 80200b5c        0     1                 .L0 
80200b5c 80200b5c        0     1                 $x
80200b5c 80200b5c        0     1                 .L0 
80200b5c 80200b5c       3c     1                 core::panicking::panic_bounds_check::h8c475dbd9aaa9c2f
80200b98 80200b98        0     1                 .L0 
80200b98 80200b98       30     2         /home/famous282/.rustup/toolchains/stable-x86_64-unknown-linux-gnu/lib/rustlib/riscv32imac-unknown-none-elf/lib/libcore-c6eeea32d188506f.rlib(core-c6eeea32d188506f.core.f2b050c2002e39f1-cgu.0.rcgu.o):(.text.unlikely._ZN4core9panicking18panic_nounwind_fmt17hbca8acd98a7f1dccE)
80200b98 80200b98        0     1                 .L0 
80200b98 80200b98        0     1                 .L0 
80200b98 80200b98        0     1                 $x
80200b98 80200b98        0     1                 .L0 
80200b98 80200b98       30     1                 core::panicking::panic_nounwind_fmt::hbca8acd98a7f1dcc
80200bac 80200bac        0     1                 .L0 
80200bc8 80200bc8        0     1                 .L0 
80200bc8 80200bc8       2e     2         /home/famous282/.rustup/toolchains/stable-x86_64-unknown-linux-gnu/lib/rustlib/riscv32imac-unknown-none-elf/lib/libcore-c6eeea32d188506f.rlib(core-c6eeea32d188506f.core.f2b050c2002e39f1-cgu.0.rcgu.o):(.text.unlikely._ZN4core9panicking9panic_fmt17hf2b467cfc0e561d3E)
80200bc8 80200bc8        0     1                 .L0 
80200bc8 80200bc8        0     1                 .L0 
80200bc8 80200bc8        0     1                 $x
80200bc8 80200bc8        0     1                 .L0 
80200bc8 80200bc8       2e     1                 core::panicking::panic_fmt::hf2b467cfc0e561d3
80200bde 80200bde        0     1                 .L0 
80200bf6 80200bf6        0     1                 .L0 
80200bf8 80200bf8      42e     4 .rodata
80200bf8 80200bf8       18     4         /home/famous282/1000linesOS/kernel/target/riscv32imac-unknown-none-elf/debug/deps/kernel-e423684175293233.1gy28gr8yncw9yg4wm3kw95ip.0x2lq71.rcgu.o:(.rodata.anon.115b1549741a66689ede8b6afce1a372.0.llvm.5278507534116890449)
80200bf8 80200bf8        0     1                 $d
80200bf8 80200bf8       18     1                 anon.115b1549741a66689ede8b6afce1a372.0.llvm.5278507534116890449
80200c10 80200c10        f     1         /home/famous282/1000linesOS/kernel/target/riscv32imac-unknown-none-elf/debug/deps/kernel-e423684175293233.7hqkh35l985iompa8en7ayj8i.0x2lq71.rcgu.o:(.rodata..Lanon.a4f2901f9d648e2ce06a4e08b4f358ce.0)
80200c10 80200c10        f     1                 .Lanon.a4f2901f9d648e2ce06a4e08b4f358ce.0
80200c10 80200c10        0     1                 $d
80200c20 80200c20        8     4         <internal>:(.rodata.cst4)
80200c28 80200c28      15a     1         <internal>:(.rodata.str1.1)
80200d84 80200d84       10     4         /home/famous282/1000linesOS/kernel/target/riscv32imac-unknown-none-elf/debug/deps/kernel-e423684175293233.7wj5zoa8xxs3t0yy1onealpk8.0x2lq71.rcgu.o:(.rodata.anon.04ccc33b5066ea8aff05e46f4f19a542.1.llvm.15488555660417600824)
80200d84 80200d84        0     1                 $d
80200d84 80200d84       10     1                 anon.04ccc33b5066ea8aff05e46f4f19a542.1.llvm.15488555660417600824
80200d94 80200d94       10     4         /home/famous282/1000linesOS/kernel/target/riscv32imac-unknown-none-elf/debug/deps/kernel-e423684175293233.7wj5zoa8xxs3t0yy1onealpk8.0x2lq71.rcgu.o:(.rodata.anon.04ccc33b5066ea8aff05e46f4f19a542.2.llvm.15488555660417600824)
80200d94 80200d94        0     1                 $d
80200d94 80200d94       10     1                 anon.04ccc33b5066ea8aff05e46f4f19a542.2.llvm.15488555660417600824
80200da4 80200da4       10     4         /home/famous282/1000linesOS/kernel/target/riscv32imac-unknown-none-elf/debug/deps/kernel-e423684175293233.7wj5zoa8xxs3t0yy1onealpk8.0x2lq71.rcgu.o:(.rodata.anon.04ccc33b5066ea8aff05e46f4f19a542.3.llvm.15488555660417600824)
80200da4 80200da4        0     1                 $d
80200da4 80200da4       10     1                 anon.04ccc33b5066ea8aff05e46f4f19a542.3.llvm.15488555660417600824
80200db4 80200db4       ae     1         /home/famous282/1000linesOS/kernel/target/riscv32imac-unknown-none-elf/debug/deps/kernel-e423684175293233.7wj5zoa8xxs3t0yy1onealpk8.0x2lq71.rcgu.o:(.rodata.anon.04ccc33b5066ea8aff05e46f4f19a542.4.llvm.15488555660417600824)
80200db4 80200db4        0     1                 $d
80200db4 80200db4       ae     1                 anon.04ccc33b5066ea8aff05e46f4f19a542.4.llvm.15488555660417600824
80200e62 80200e62       c7     1         /home/famous282/1000linesOS/kernel/target/riscv32imac-unknown-none-elf/debug/deps/kernel-e423684175293233.7wj5zoa8xxs3t0yy1onealpk8.0x2lq71.rcgu.o:(.rodata.anon.04ccc33b5066ea8aff05e46f4f19a542.5.llvm.15488555660417600824)
80200e62 80200e62        0     1                 $d
80200e62 80200e62       c7     1                 anon.04ccc33b5066ea8aff05e46f4f19a542.5.llvm.15488555660417600824
80200f2c 80200f2c       10     4         /home/famous282/1000linesOS/kernel/target/riscv32imac-unknown-none-elf/debug/deps/kernel-e423684175293233.7wj5zoa8xxs3t0yy1onealpk8.0x2lq71.rcgu.o:(.rodata.anon.04ccc33b5066ea8aff05e46f4f19a542.7.llvm.15488555660417600824)
80200f2c 80200f2c        0     1                 $d
80200f2c 80200f2c       10     1                 anon.04ccc33b5066ea8aff05e46f4f19a542.7.llvm.15488555660417600824
80200f3c 80200f3c       c8     1         /home/famous282/.rustup/toolchains/stable-x86_64-unknown-linux-gnu/lib/rustlib/riscv32imac-unknown-none-elf/lib/libcore-c6eeea32d188506f.rlib(core-c6eeea32d188506f.core.f2b050c2002e39f1-cgu.0.rcgu.o):(.rodata..Lanon.f74838b38e70b6e7b417ca0660cf6a38.14)
80200f3c 80200f3c       c8     1                 .Lanon.f74838b38e70b6e7b417ca0660cf6a38.14
80200f3c 80200f3c        0     1                 $d
80201004 80201004       10     4         /home/famous282/.rustup/toolchains/stable-x86_64-unknown-linux-gnu/lib/rustlib/riscv32imac-unknown-none-elf/lib/libcore-c6eeea32d188506f.rlib(core-c6eeea32d188506f.core.f2b050c2002e39f1-cgu.0.rcgu.o):(.rodata..Lanon.f74838b38e70b6e7b417ca0660cf6a38.26)
80201004 80201004       10     1                 .Lanon.f74838b38e70b6e7b417ca0660cf6a38.26
80201004 80201004        0     1                 $d
80201014 80201014       10     2         <internal>:(.rodata.cst16)
80201024 80201024        2     1         /home/famous282/.rustup/toolchains/stable-x86_64-unknown-linux-gnu/lib/rustlib/riscv32imac-unknown-none-elf/lib/libcore-c6eeea32d188506f.rlib(core-c6eeea32d188506f.core.f2b050c2002e39f1-cgu.0.rcgu.o):(.rodata..Lanon.f74838b38e70b6e7b417ca0660cf6a38.37)
80201024 80201024        2     1                 .Lanon.f74838b38e70b6e7b417ca0660cf6a38.37
80201024 80201024        0     1                 $d
80201028 80201028      27c     4 .eh_frame
80201028 80201028       14     1         /home/famous282/.rustup/toolchains/stable-x86_64-unknown-linux-gnu/lib/rustlib/riscv32imac-unknown-none-elf/lib/libcore-c6eeea32d188506f.rlib(core-c6eeea32d188506f.core.f2b050c2002e39f1-cgu.0.rcgu.o):(.eh_frame+0x0)
8020103c 8020103c       44     1         /home/famous282/.rustup/toolchains/stable-x86_64-unknown-linux-gnu/lib/rustlib/riscv32imac-unknown-none-elf/lib/libcore-c6eeea32d188506f.rlib(core-c6eeea32d188506f.core.f2b050c2002e39f1-cgu.0.rcgu.o):(.eh_frame+0x7b0)
80201080 80201080       34     1         /home/famous282/.rustup/toolchains/stable-x86_64-unknown-linux-gnu/lib/rustlib/riscv32imac-unknown-none-elf/lib/libcore-c6eeea32d188506f.rlib(core-c6eeea32d188506f.core.f2b050c2002e39f1-cgu.0.rcgu.o):(.eh_frame+0x97c)
802010b4 802010b4       30     1         /home/famous282/.rustup/toolchains/stable-x86_64-unknown-linux-gnu/lib/rustlib/riscv32imac-unknown-none-elf/lib/libcore-c6eeea32d188506f.rlib(core-c6eeea32d188506f.core.f2b050c2002e39f1-cgu.0.rcgu.o):(.eh_frame+0xa0c)
802010e4 802010e4       28     1         /home/famous282/.rustup/toolchains/stable-x86_64-unknown-linux-gnu/lib/rustlib/riscv32imac-unknown-none-elf/lib/libcore-c6eeea32d188506f.rlib(core-c6eeea32d188506f.core.f2b050c2002e39f1-cgu.0.rcgu.o):(.eh_frame+0x1244)
8020110c 8020110c       60     1         /home/famous282/.rustup/toolchains/stable-x86_64-unknown-linux-gnu/lib/rustlib/riscv32imac-unknown-none-elf/lib/libcore-c6eeea32d188506f.rlib(core-c6eeea32d188506f.core.f2b050c2002e39f1-cgu.0.rcgu.o):(.eh_frame+0x1b3c)
8020116c 8020116c       ac     1         /home/famous282/.rustup/toolchains/stable-x86_64-unknown-linux-gnu/lib/rustlib/riscv32imac-unknown-none-elf/lib/libcore-c6eeea32d188506f.rlib(core-c6eeea32d188506f.core.f2b050c2002e39f1-cgu.0.rcgu.o):(.eh_frame+0x1fe0)
80201218 80201218       28     1         /home/famous282/.rustup/toolchains/stable-x86_64-unknown-linux-gnu/lib/rustlib/riscv32imac-unknown-none-elf/lib/libcore-c6eeea32d188506f.rlib(core-c6eeea32d188506f.core.f2b050c2002e39f1-cgu.0.rcgu.o):(.eh_frame+0x3838)
80201240 80201240       40     1         /home/famous282/.rustup/toolchains/stable-x86_64-unknown-linux-gnu/lib/rustlib/riscv32imac-unknown-none-elf/lib/libcore-c6eeea32d188506f.rlib(core-c6eeea32d188506f.core.f2b050c2002e39f1-cgu.0.rcgu.o):(.eh_frame+0x41b8)
80201280 80201280       20     1         /home/famous282/.rustup/toolchains/stable-x86_64-unknown-linux-gnu/lib/rustlib/riscv32imac-unknown-none-elf/lib/libcore-c6eeea32d188506f.rlib(core-c6eeea32d188506f.core.f2b050c2002e39f1-cgu.0.rcgu.o):(.eh_frame+0x42d8)
802012a4 802012a4        0     4 .bss
802012a4 802012a4        0     1         __bss = .
802012a4 802012a4        0     1         __bss_end = .
802012a4 802012a4        0     1 . = ALIGN(4)
802012a4 802012a4    20000     1 . += 128 * 1024
802212a4 802212a4        0     1 __stack_top = .
       0        0      7d4     1 .debug_loc
       0        0      29a     1         /home/famous282/1000linesOS/kernel/target/riscv32imac-unknown-none-elf/debug/deps/kernel-e423684175293233.1gy28gr8yncw9yg4wm3kw95ip.0x2lq71.rcgu.o:(.debug_loc)
       0        0        0     1                 .L0 
       0        0        0     1                 $d
      1b       1b        0     1                 .L0 
      4c       4c        0     1                 .L0 
      7d       7d        0     1                 .L0 
      a0       a0        0     1                 .L0 
      d1       d1        0     1                 .L0 
     102      102        0     1                 .L0 
     125      125        0     1                 .L0 
     141      141        0     1                 .L0 
     172      172        0     1                 .L0 
     19c      19c        0     1                 .L0 
     1b8      1b8        0     1                 .L0 
     1e9      1e9        0     1                 .L0 
     204      204        0     1                 .L0 
     21f      21f        0     1                 .L0 
     23a      23a        0     1                 .L0 
     27a      27a        0     1                 .L0 
     29a      29a      17e     1         /home/famous282/1000linesOS/kernel/target/riscv32imac-unknown-none-elf/debug/deps/kernel-e423684175293233.7hqkh35l985iompa8en7ayj8i.0x2lq71.rcgu.o:(.debug_loc)
     29a      29a        0     1                 .L0 
     29a      29a        0     1                 $d
     2b5      2b5        0     1                 .L0 
     2f6      2f6        0     1                 .L0 
     337      337        0     1                 .L0 
     378      378        0     1                 .L0 
     3b2      3b2        0     1                 .L0 
     3e5      3e5        0     1                 .L0 
     418      418      3bc     1         /home/famous282/1000linesOS/kernel/target/riscv32imac-unknown-none-elf/debug/deps/kernel-e423684175293233.7wj5zoa8xxs3t0yy1onealpk8.0x2lq71.rcgu.o:(.debug_loc)
     418      418        0     1                 .L0 
     418      418        0     1                 $d
     45f      45f        0     1                 .L0 
     47a      47a        0     1                 .L0 
     4aa      4aa        0     1                 .L0 
     5a2      5a2        0     1                 .L0 
     5c8      5c8        0     1                 .L0 
     5f9      5f9        0     1                 .L0 
     61f      61f        0     1                 .L0 
     63a      63a        0     1                 .L0 
     655      655        0     1                 .L0 
     670      670        0     1                 .L0 
     6a1      6a1        0     1                 .L0 
     6e1      6e1        0     1                 .L0 
     707      707        0     1                 .L0 
     72d      72d        0     1                 .L0 
     753      753        0     1                 .L0 
     779      779        0     1                 .L0 
     79f      79f        0     1                 .L0 
       0        0     1bae     1 .debug_abbrev
       0        0      1f2     1         /home/famous282/1000linesOS/kernel/target/riscv32imac-unknown-none-elf/debug/deps/kernel-e423684175293233.1gy28gr8yncw9yg4wm3kw95ip.0x2lq71.rcgu.o:(.debug_abbrev)
       0        0        0     1                 $d
     1f2      1f2      106     1         /home/famous282/1000linesOS/kernel/target/riscv32imac-unknown-none-elf/debug/deps/kernel-e423684175293233.1zwa976huie3oeuiu5py3i96v.0x2lq71.rcgu.o:(.debug_abbrev)
     1f2      1f2        0     1                 $d
     2f8      2f8      1b9     1         /home/famous282/1000linesOS/kernel/target/riscv32imac-unknown-none-elf/debug/deps/kernel-e423684175293233.7hqkh35l985iompa8en7ayj8i.0x2lq71.rcgu.o:(.debug_abbrev)
     2f8      2f8        0     1                 $d
     4b1      4b1      273     1         /home/famous282/1000linesOS/kernel/target/riscv32imac-unknown-none-elf/debug/deps/kernel-e423684175293233.7wj5zoa8xxs3t0yy1onealpk8.0x2lq71.rcgu.o:(.debug_abbrev)
     4b1      4b1        0     1                 $d
     724      724      312     1         /home/famous282/.rustup/toolchains/stable-x86_64-unknown-linux-gnu/lib/rustlib/riscv32imac-unknown-none-elf/lib/libcore-c6eeea32d188506f.rlib(core-c6eeea32d188506f.core.f2b050c2002e39f1-cgu.0.rcgu.o):(.debug_abbrev)
     724      724        0     1                 $d
     a36      a36       5b     1         /home/famous282/.rustup/toolchains/stable-x86_64-unknown-linux-gnu/lib/rustlib/riscv32imac-unknown-none-elf/lib/libcompiler_builtins-ad31f96eaed4fe7a.rlib(compiler_builtins-ad31f96eaed4fe7a.compiler_builtins.a8dbbfe33f18591e-cgu.105.rcgu.o):(.debug_abbrev)
     a36      a36        0     1                 $d
     a91      a91       5f     1         /home/famous282/.rustup/toolchains/stable-x86_64-unknown-linux-gnu/lib/rustlib/riscv32imac-unknown-none-elf/lib/libcompiler_builtins-ad31f96eaed4fe7a.rlib(compiler_builtins-ad31f96eaed4fe7a.compiler_builtins.a8dbbfe33f18591e-cgu.157.rcgu.o):(.debug_abbrev)
     a91      a91        0     1                 $d
     af0      af0       a8     1         /home/famous282/.rustup/toolchains/stable-x86_64-unknown-linux-gnu/lib/rustlib/riscv32imac-unknown-none-elf/lib/libcompiler_builtins-ad31f96eaed4fe7a.rlib(compiler_builtins-ad31f96eaed4fe7a.compiler_builtins.a8dbbfe33f18591e-cgu.016.rcgu.o):(.debug_abbrev)
     af0      af0        0     1                 $d
     b98      b98       aa     1         /home/famous282/.rustup/toolchains/stable-x86_64-unknown-linux-gnu/lib/rustlib/riscv32imac-unknown-none-elf/lib/libcompiler_builtins-ad31f96eaed4fe7a.rlib(compiler_builtins-ad31f96eaed4fe7a.compiler_builtins.a8dbbfe33f18591e-cgu.162.rcgu.o):(.debug_abbrev)
     b98      b98        0     1                 $d
     c42      c42       e9     1         /home/famous282/.rustup/toolchains/stable-x86_64-unknown-linux-gnu/lib/rustlib/riscv32imac-unknown-none-elf/lib/libcompiler_builtins-ad31f96eaed4fe7a.rlib(compiler_builtins-ad31f96eaed4fe7a.compiler_builtins.a8dbbfe33f18591e-cgu.199.rcgu.o):(.debug_abbrev)
     c42      c42        0     1                 $d
     d2b      d2b       cf     1         /home/famous282/.rustup/toolchains/stable-x86_64-unknown-linux-gnu/lib/rustlib/riscv32imac-unknown-none-elf/lib/libcompiler_builtins-ad31f96eaed4fe7a.rlib(compiler_builtins-ad31f96eaed4fe7a.compiler_builtins.a8dbbfe33f18591e-cgu.225.rcgu.o):(.debug_abbrev)
     d2b      d2b        0     1                 $d
     dfa      dfa       2e     1         /home/famous282/.rustup/toolchains/stable-x86_64-unknown-linux-gnu/lib/rustlib/riscv32imac-unknown-none-elf/lib/libcompiler_builtins-ad31f96eaed4fe7a.rlib(compiler_builtins-ad31f96eaed4fe7a.compiler_builtins.a8dbbfe33f18591e-cgu.228.rcgu.o):(.debug_abbrev)
     dfa      dfa        0     1                 $d
     e28      e28      134     1         /home/famous282/.rustup/toolchains/stable-x86_64-unknown-linux-gnu/lib/rustlib/riscv32imac-unknown-none-elf/lib/libcompiler_builtins-ad31f96eaed4fe7a.rlib(compiler_builtins-ad31f96eaed4fe7a.compiler_builtins.a8dbbfe33f18591e-cgu.003.rcgu.o):(.debug_abbrev)
     e28      e28        0     1                 $d
     f5c      f5c      181     1         /home/famous282/.rustup/toolchains/stable-x86_64-unknown-linux-gnu/lib/rustlib/riscv32imac-unknown-none-elf/lib/libcompiler_builtins-ad31f96eaed4fe7a.rlib(compiler_builtins-ad31f96eaed4fe7a.compiler_builtins.a8dbbfe33f18591e-cgu.017.rcgu.o):(.debug_abbrev)
     f5c      f5c        0     1                 $d
    10dd     10dd       e0     1         /home/famous282/.rustup/toolchains/stable-x86_64-unknown-linux-gnu/lib/rustlib/riscv32imac-unknown-none-elf/lib/libcompiler_builtins-ad31f96eaed4fe7a.rlib(compiler_builtins-ad31f96eaed4fe7a.compiler_builtins.a8dbbfe33f18591e-cgu.236.rcgu.o):(.debug_abbrev)
    10dd     10dd        0     1                 $d
    11bd     11bd       aa     1         /home/famous282/.rustup/toolchains/stable-x86_64-unknown-linux-gnu/lib/rustlib/riscv32imac-unknown-none-elf/lib/libcompiler_builtins-ad31f96eaed4fe7a.rlib(compiler_builtins-ad31f96eaed4fe7a.compiler_builtins.a8dbbfe33f18591e-cgu.239.rcgu.o):(.debug_abbrev)
    11bd     11bd        0     1                 $d
    1267     1267       2e     1         /home/famous282/.rustup/toolchains/stable-x86_64-unknown-linux-gnu/lib/rustlib/riscv32imac-unknown-none-elf/lib/libcompiler_builtins-ad31f96eaed4fe7a.rlib(compiler_builtins-ad31f96eaed4fe7a.compiler_builtins.a8dbbfe33f18591e-cgu.256.rcgu.o):(.debug_abbrev)
    1267     1267        0     1                 $d
    1295     1295      14e     1         /home/famous282/.rustup/toolchains/stable-x86_64-unknown-linux-gnu/lib/rustlib/riscv32imac-unknown-none-elf/lib/libcompiler_builtins-ad31f96eaed4fe7a.rlib(compiler_builtins-ad31f96eaed4fe7a.compiler_builtins.a8dbbfe33f18591e-cgu.000.rcgu.o):(.debug_abbrev)
    1295     1295        0     1                 $d
    13e3     13e3       b9     1         /home/famous282/.rustup/toolchains/stable-x86_64-unknown-linux-gnu/lib/rustlib/riscv32imac-unknown-none-elf/lib/libcompiler_builtins-ad31f96eaed4fe7a.rlib(compiler_builtins-ad31f96eaed4fe7a.compiler_builtins.a8dbbfe33f18591e-cgu.285.rcgu.o):(.debug_abbrev)
    13e3     13e3        0     1                 $d
    149c     149c       5f     1         /home/famous282/.rustup/toolchains/stable-x86_64-unknown-linux-gnu/lib/rustlib/riscv32imac-unknown-none-elf/lib/libcompiler_builtins-ad31f96eaed4fe7a.rlib(compiler_builtins-ad31f96eaed4fe7a.compiler_builtins.a8dbbfe33f18591e-cgu.287.rcgu.o):(.debug_abbrev)
    149c     149c        0     1                 $d
    14fb     14fb       2e     1         /home/famous282/.rustup/toolchains/stable-x86_64-unknown-linux-gnu/lib/rustlib/riscv32imac-unknown-none-elf/lib/libcompiler_builtins-ad31f96eaed4fe7a.rlib(compiler_builtins-ad31f96eaed4fe7a.compiler_builtins.a8dbbfe33f18591e-cgu.295.rcgu.o):(.debug_abbrev)
    14fb     14fb        0     1                 $d
    1529     1529       b9     1         /home/famous282/.rustup/toolchains/stable-x86_64-unknown-linux-gnu/lib/rustlib/riscv32imac-unknown-none-elf/lib/libcompiler_builtins-ad31f96eaed4fe7a.rlib(compiler_builtins-ad31f96eaed4fe7a.compiler_builtins.a8dbbfe33f18591e-cgu.300.rcgu.o):(.debug_abbrev)
    1529     1529        0     1                 $d
    15e2     15e2       ca     1         /home/famous282/.rustup/toolchains/stable-x86_64-unknown-linux-gnu/lib/rustlib/riscv32imac-unknown-none-elf/lib/libcompiler_builtins-ad31f96eaed4fe7a.rlib(compiler_builtins-ad31f96eaed4fe7a.compiler_builtins.a8dbbfe33f18591e-cgu.303.rcgu.o):(.debug_abbrev)
    15e2     15e2        0     1                 $d
    16ac     16ac       5f     1         /home/famous282/.rustup/toolchains/stable-x86_64-unknown-linux-gnu/lib/rustlib/riscv32imac-unknown-none-elf/lib/libcompiler_builtins-ad31f96eaed4fe7a.rlib(compiler_builtins-ad31f96eaed4fe7a.compiler_builtins.a8dbbfe33f18591e-cgu.308.rcgu.o):(.debug_abbrev)
    16ac     16ac        0     1                 $d
    170b     170b       5f     1         /home/famous282/.rustup/toolchains/stable-x86_64-unknown-linux-gnu/lib/rustlib/riscv32imac-unknown-none-elf/lib/libcompiler_builtins-ad31f96eaed4fe7a.rlib(compiler_builtins-ad31f96eaed4fe7a.compiler_builtins.a8dbbfe33f18591e-cgu.315.rcgu.o):(.debug_abbrev)
    170b     170b        0     1                 $d
    176a     176a       aa     1         /home/famous282/.rustup/toolchains/stable-x86_64-unknown-linux-gnu/lib/rustlib/riscv32imac-unknown-none-elf/lib/libcompiler_builtins-ad31f96eaed4fe7a.rlib(compiler_builtins-ad31f96eaed4fe7a.compiler_builtins.a8dbbfe33f18591e-cgu.325.rcgu.o):(.debug_abbrev)
    176a     176a        0     1                 $d
    1814     1814       2e     1         /home/famous282/.rustup/toolchains/stable-x86_64-unknown-linux-gnu/lib/rustlib/riscv32imac-unknown-none-elf/lib/libcompiler_builtins-ad31f96eaed4fe7a.rlib(compiler_builtins-ad31f96eaed4fe7a.compiler_builtins.a8dbbfe33f18591e-cgu.326.rcgu.o):(.debug_abbrev)
    1814     1814        0     1                 $d
    1842     1842       aa     1         /home/famous282/.rustup/toolchains/stable-x86_64-unknown-linux-gnu/lib/rustlib/riscv32imac-unknown-none-elf/lib/libcompiler_builtins-ad31f96eaed4fe7a.rlib(compiler_builtins-ad31f96eaed4fe7a.compiler_builtins.a8dbbfe33f18591e-cgu.327.rcgu.o):(.debug_abbrev)
    1842     1842        0     1                 $d
    18ec     18ec       b9     1         /home/famous282/.rustup/toolchains/stable-x86_64-unknown-linux-gnu/lib/rustlib/riscv32imac-unknown-none-elf/lib/libcompiler_builtins-ad31f96eaed4fe7a.rlib(compiler_builtins-ad31f96eaed4fe7a.compiler_builtins.a8dbbfe33f18591e-cgu.331.rcgu.o):(.debug_abbrev)
    18ec     18ec        0     1                 $d
    19a5     19a5       aa     1         /home/famous282/.rustup/toolchains/stable-x86_64-unknown-linux-gnu/lib/rustlib/riscv32imac-unknown-none-elf/lib/libcompiler_builtins-ad31f96eaed4fe7a.rlib(compiler_builtins-ad31f96eaed4fe7a.compiler_builtins.a8dbbfe33f18591e-cgu.332.rcgu.o):(.debug_abbrev)
    19a5     19a5        0     1                 $d
    1a4f     1a4f       2e     1         /home/famous282/.rustup/toolchains/stable-x86_64-unknown-linux-gnu/lib/rustlib/riscv32imac-unknown-none-elf/lib/libcompiler_builtins-ad31f96eaed4fe7a.rlib(compiler_builtins-ad31f96eaed4fe7a.compiler_builtins.a8dbbfe33f18591e-cgu.351.rcgu.o):(.debug_abbrev)
    1a4f     1a4f        0     1                 $d
    1a7d     1a7d      131     1         /home/famous282/.rustup/toolchains/stable-x86_64-unknown-linux-gnu/lib/rustlib/riscv32imac-unknown-none-elf/lib/libcompiler_builtins-ad31f96eaed4fe7a.rlib(compiler_builtins-ad31f96eaed4fe7a.compiler_builtins.a8dbbfe33f18591e-cgu.012.rcgu.o):(.debug_abbrev)
    1a7d     1a7d        0     1                 $d
       0        0    284e1     1 .debug_info
       0        0      6e6     1         /home/famous282/1000linesOS/kernel/target/riscv32imac-unknown-none-elf/debug/deps/kernel-e423684175293233.1gy28gr8yncw9yg4wm3kw95ip.0x2lq71.rcgu.o:(.debug_info)
       0        0        0     1                 .L0 
       0        0        0     1                 $d
     6e6      6e6      45c     1         /home/famous282/1000linesOS/kernel/target/riscv32imac-unknown-none-elf/debug/deps/kernel-e423684175293233.1zwa976huie3oeuiu5py3i96v.0x2lq71.rcgu.o:(.debug_info)
     6e6      6e6        0     1                 .L0 
     6e6      6e6        0     1                 $d
     b42      b42      3ee     1         /home/famous282/1000linesOS/kernel/target/riscv32imac-unknown-none-elf/debug/deps/kernel-e423684175293233.7hqkh35l985iompa8en7ayj8i.0x2lq71.rcgu.o:(.debug_info)
     b42      b42        0     1                 .L0 
     b42      b42        0     1                 $d
     f30      f30      bc7     1         /home/famous282/1000linesOS/kernel/target/riscv32imac-unknown-none-elf/debug/deps/kernel-e423684175293233.7wj5zoa8xxs3t0yy1onealpk8.0x2lq71.rcgu.o:(.debug_info)
     f30      f30        0     1                 .L0 
     f30      f30        0     1                 $d
    1af7     1af7    20826     1         /home/famous282/.rustup/toolchains/stable-x86_64-unknown-linux-gnu/lib/rustlib/riscv32imac-unknown-none-elf/lib/libcore-c6eeea32d188506f.rlib(core-c6eeea32d188506f.core.f2b050c2002e39f1-cgu.0.rcgu.o):(.debug_info)
    1af7     1af7        0     1                 .L0 
    1af7     1af7        0     1                 $d
   2231d    2231d       86     1         /home/famous282/.rustup/toolchains/stable-x86_64-unknown-linux-gnu/lib/rustlib/riscv32imac-unknown-none-elf/lib/libcompiler_builtins-ad31f96eaed4fe7a.rlib(compiler_builtins-ad31f96eaed4fe7a.compiler_builtins.a8dbbfe33f18591e-cgu.105.rcgu.o):(.debug_info)
   2231d    2231d        0     1                 .L0 
   2231d    2231d        0     1                 $d
   223a3    223a3       a1     1         /home/famous282/.rustup/toolchains/stable-x86_64-unknown-linux-gnu/lib/rustlib/riscv32imac-unknown-none-elf/lib/libcompiler_builtins-ad31f96eaed4fe7a.rlib(compiler_builtins-ad31f96eaed4fe7a.compiler_builtins.a8dbbfe33f18591e-cgu.157.rcgu.o):(.debug_info)
   223a3    223a3        0     1                 .L0 
   223a3    223a3        0     1                 $d
   22444    22444      419     1         /home/famous282/.rustup/toolchains/stable-x86_64-unknown-linux-gnu/lib/rustlib/riscv32imac-unknown-none-elf/lib/libcompiler_builtins-ad31f96eaed4fe7a.rlib(compiler_builtins-ad31f96eaed4fe7a.compiler_builtins.a8dbbfe33f18591e-cgu.016.rcgu.o):(.debug_info)
   22444    22444        0     1                 .L0 
   22444    22444        0     1                 $d
   2285d    2285d      15e     1         /home/famous282/.rustup/toolchains/stable-x86_64-unknown-linux-gnu/lib/rustlib/riscv32imac-unknown-none-elf/lib/libcompiler_builtins-ad31f96eaed4fe7a.rlib(compiler_builtins-ad31f96eaed4fe7a.compiler_builtins.a8dbbfe33f18591e-cgu.162.rcgu.o):(.debug_info)
   2285d    2285d        0     1                 .L0 
   2285d    2285d        0     1                 $d
   229bb    229bb      2a7     1         /home/famous282/.rustup/toolchains/stable-x86_64-unknown-linux-gnu/lib/rustlib/riscv32imac-unknown-none-elf/lib/libcompiler_builtins-ad31f96eaed4fe7a.rlib(compiler_builtins-ad31f96eaed4fe7a.compiler_builtins.a8dbbfe33f18591e-cgu.199.rcgu.o):(.debug_info)
   229bb    229bb        0     1                 .L0 
   229bb    229bb        0     1                 $d
   22c62    22c62      273     1         /home/famous282/.rustup/toolchains/stable-x86_64-unknown-linux-gnu/lib/rustlib/riscv32imac-unknown-none-elf/lib/libcompiler_builtins-ad31f96eaed4fe7a.rlib(compiler_builtins-ad31f96eaed4fe7a.compiler_builtins.a8dbbfe33f18591e-cgu.225.rcgu.o):(.debug_info)
   22c62    22c62        0     1                 .L0 
   22c62    22c62        0     1                 $d
   22ed5    22ed5       51     1         /home/famous282/.rustup/toolchains/stable-x86_64-unknown-linux-gnu/lib/rustlib/riscv32imac-unknown-none-elf/lib/libcompiler_builtins-ad31f96eaed4fe7a.rlib(compiler_builtins-ad31f96eaed4fe7a.compiler_builtins.a8dbbfe33f18591e-cgu.228.rcgu.o):(.debug_info)
   22ed5    22ed5        0     1                 .L0 
   22ed5    22ed5        0     1                 $d
   22f26    22f26     14d6     1         /home/famous282/.rustup/toolchains/stable-x86_64-unknown-linux-gnu/lib/rustlib/riscv32imac-unknown-none-elf/lib/libcompiler_builtins-ad31f96eaed4fe7a.rlib(compiler_builtins-ad31f96eaed4fe7a.compiler_builtins.a8dbbfe33f18591e-cgu.003.rcgu.o):(.debug_info)
   22f26    22f26        0     1                 .L0 
   22f26    22f26        0     1                 $d
   243fc    243fc      37f     1         /home/famous282/.rustup/toolchains/stable-x86_64-unknown-linux-gnu/lib/rustlib/riscv32imac-unknown-none-elf/lib/libcompiler_builtins-ad31f96eaed4fe7a.rlib(compiler_builtins-ad31f96eaed4fe7a.compiler_builtins.a8dbbfe33f18591e-cgu.017.rcgu.o):(.debug_info)
   243fc    243fc        0     1                 .L0 
   243fc    243fc        0     1                 $d
   2477b    2477b      274     1         /home/famous282/.rustup/toolchains/stable-x86_64-unknown-linux-gnu/lib/rustlib/riscv32imac-unknown-none-elf/lib/libcompiler_builtins-ad31f96eaed4fe7a.rlib(compiler_builtins-ad31f96eaed4fe7a.compiler_builtins.a8dbbfe33f18591e-cgu.236.rcgu.o):(.debug_info)
   2477b    2477b        0     1                 .L0 
   2477b    2477b        0     1                 $d
   249ef    249ef      15e     1         /home/famous282/.rustup/toolchains/stable-x86_64-unknown-linux-gnu/lib/rustlib/riscv32imac-unknown-none-elf/lib/libcompiler_builtins-ad31f96eaed4fe7a.rlib(compiler_builtins-ad31f96eaed4fe7a.compiler_builtins.a8dbbfe33f18591e-cgu.239.rcgu.o):(.debug_info)
   249ef    249ef        0     1                 .L0 
   249ef    249ef        0     1                 $d
   24b4d    24b4d       51     1         /home/famous282/.rustup/toolchains/stable-x86_64-unknown-linux-gnu/lib/rustlib/riscv32imac-unknown-none-elf/lib/libcompiler_builtins-ad31f96eaed4fe7a.rlib(compiler_builtins-ad31f96eaed4fe7a.compiler_builtins.a8dbbfe33f18591e-cgu.256.rcgu.o):(.debug_info)
   24b4d    24b4d        0     1                 .L0 
   24b4d    24b4d        0     1                 $d
   24b9e    24b9e     182c     1         /home/famous282/.rustup/toolchains/stable-x86_64-unknown-linux-gnu/lib/rustlib/riscv32imac-unknown-none-elf/lib/libcompiler_builtins-ad31f96eaed4fe7a.rlib(compiler_builtins-ad31f96eaed4fe7a.compiler_builtins.a8dbbfe33f18591e-cgu.000.rcgu.o):(.debug_info)
   24b9e    24b9e        0     1                 .L0 
   24b9e    24b9e        0     1                 $d
   263ca    263ca      1d8     1         /home/famous282/.rustup/toolchains/stable-x86_64-unknown-linux-gnu/lib/rustlib/riscv32imac-unknown-none-elf/lib/libcompiler_builtins-ad31f96eaed4fe7a.rlib(compiler_builtins-ad31f96eaed4fe7a.compiler_builtins.a8dbbfe33f18591e-cgu.285.rcgu.o):(.debug_info)
   263ca    263ca        0     1                 .L0 
   263ca    263ca        0     1                 $d
   265a2    265a2       a1     1         /home/famous282/.rustup/toolchains/stable-x86_64-unknown-linux-gnu/lib/rustlib/riscv32imac-unknown-none-elf/lib/libcompiler_builtins-ad31f96eaed4fe7a.rlib(compiler_builtins-ad31f96eaed4fe7a.compiler_builtins.a8dbbfe33f18591e-cgu.287.rcgu.o):(.debug_info)
   265a2    265a2        0     1                 .L0 
   265a2    265a2        0     1                 $d
   26643    26643       51     1         /home/famous282/.rustup/toolchains/stable-x86_64-unknown-linux-gnu/lib/rustlib/riscv32imac-unknown-none-elf/lib/libcompiler_builtins-ad31f96eaed4fe7a.rlib(compiler_builtins-ad31f96eaed4fe7a.compiler_builtins.a8dbbfe33f18591e-cgu.295.rcgu.o):(.debug_info)
   26643    26643        0     1                 .L0 
   26643    26643        0     1                 $d
   26694    26694      1d8     1         /home/famous282/.rustup/toolchains/stable-x86_64-unknown-linux-gnu/lib/rustlib/riscv32imac-unknown-none-elf/lib/libcompiler_builtins-ad31f96eaed4fe7a.rlib(compiler_builtins-ad31f96eaed4fe7a.compiler_builtins.a8dbbfe33f18591e-cgu.300.rcgu.o):(.debug_info)
   26694    26694        0     1                 .L0 
   26694    26694        0     1                 $d
   2686c    2686c      377     1         /home/famous282/.rustup/toolchains/stable-x86_64-unknown-linux-gnu/lib/rustlib/riscv32imac-unknown-none-elf/lib/libcompiler_builtins-ad31f96eaed4fe7a.rlib(compiler_builtins-ad31f96eaed4fe7a.compiler_builtins.a8dbbfe33f18591e-cgu.303.rcgu.o):(.debug_info)
   2686c    2686c        0     1                 .L0 
   2686c    2686c        0     1                 $d
   26be3    26be3       a1     1         /home/famous282/.rustup/toolchains/stable-x86_64-unknown-linux-gnu/lib/rustlib/riscv32imac-unknown-none-elf/lib/libcompiler_builtins-ad31f96eaed4fe7a.rlib(compiler_builtins-ad31f96eaed4fe7a.compiler_builtins.a8dbbfe33f18591e-cgu.308.rcgu.o):(.debug_info)
   26be3    26be3        0     1                 .L0 
   26be3    26be3        0     1                 $d
   26c84    26c84       a1     1         /home/famous282/.rustup/toolchains/stable-x86_64-unknown-linux-gnu/lib/rustlib/riscv32imac-unknown-none-elf/lib/libcompiler_builtins-ad31f96eaed4fe7a.rlib(compiler_builtins-ad31f96eaed4fe7a.compiler_builtins.a8dbbfe33f18591e-cgu.315.rcgu.o):(.debug_info)
   26c84    26c84        0     1                 .L0 
   26c84    26c84        0     1                 $d
   26d25    26d25      15e     1         /home/famous282/.rustup/toolchains/stable-x86_64-unknown-linux-gnu/lib/rustlib/riscv32imac-unknown-none-elf/lib/libcompiler_builtins-ad31f96eaed4fe7a.rlib(compiler_builtins-ad31f96eaed4fe7a.compiler_builtins.a8dbbfe33f18591e-cgu.325.rcgu.o):(.debug_info)
   26d25    26d25        0     1                 .L0 
   26d25    26d25        0     1                 $d
   26e83    26e83       51     1         /home/famous282/.rustup/toolchains/stable-x86_64-unknown-linux-gnu/lib/rustlib/riscv32imac-unknown-none-elf/lib/libcompiler_builtins-ad31f96eaed4fe7a.rlib(compiler_builtins-ad31f96eaed4fe7a.compiler_builtins.a8dbbfe33f18591e-cgu.326.rcgu.o):(.debug_info)
   26e83    26e83        0     1                 .L0 
   26e83    26e83        0     1                 $d
   26ed4    26ed4      373     1         /home/famous282/.rustup/toolchains/stable-x86_64-unknown-linux-gnu/lib/rustlib/riscv32imac-unknown-none-elf/lib/libcompiler_builtins-ad31f96eaed4fe7a.rlib(compiler_builtins-ad31f96eaed4fe7a.compiler_builtins.a8dbbfe33f18591e-cgu.327.rcgu.o):(.debug_info)
   26ed4    26ed4        0     1                 .L0 
   26ed4    26ed4        0     1                 $d
   27247    27247      1d8     1         /home/famous282/.rustup/toolchains/stable-x86_64-unknown-linux-gnu/lib/rustlib/riscv32imac-unknown-none-elf/lib/libcompiler_builtins-ad31f96eaed4fe7a.rlib(compiler_builtins-ad31f96eaed4fe7a.compiler_builtins.a8dbbfe33f18591e-cgu.331.rcgu.o):(.debug_info)
   27247    27247        0     1                 .L0 
   27247    27247        0     1                 $d
   2741f    2741f      15e     1         /home/famous282/.rustup/toolchains/stable-x86_64-unknown-linux-gnu/lib/rustlib/riscv32imac-unknown-none-elf/lib/libcompiler_builtins-ad31f96eaed4fe7a.rlib(compiler_builtins-ad31f96eaed4fe7a.compiler_builtins.a8dbbfe33f18591e-cgu.332.rcgu.o):(.debug_info)
   2741f    2741f        0     1                 .L0 
   2741f    2741f        0     1                 $d
   2757d    2757d       4b     1         /home/famous282/.rustup/toolchains/stable-x86_64-unknown-linux-gnu/lib/rustlib/riscv32imac-unknown-none-elf/lib/libcompiler_builtins-ad31f96eaed4fe7a.rlib(compiler_builtins-ad31f96eaed4fe7a.compiler_builtins.a8dbbfe33f18591e-cgu.351.rcgu.o):(.debug_info)
   2757d    2757d        0     1                 .L0 
   2757d    2757d        0     1                 $d
   275c8    275c8      f19     1         /home/famous282/.rustup/toolchains/stable-x86_64-unknown-linux-gnu/lib/rustlib/riscv32imac-unknown-none-elf/lib/libcompiler_builtins-ad31f96eaed4fe7a.rlib(compiler_builtins-ad31f96eaed4fe7a.compiler_builtins.a8dbbfe33f18591e-cgu.012.rcgu.o):(.debug_info)
   275c8    275c8        0     1                 .L0 
   275c8    275c8        0     1                 $d
       0        0     15e0     1 .debug_aranges
       0        0       30     1         /home/famous282/1000linesOS/kernel/target/riscv32imac-unknown-none-elf/debug/deps/kernel-e423684175293233.1gy28gr8yncw9yg4wm3kw95ip.0x2lq71.rcgu.o:(.debug_aranges)
       0        0        0     1                 $d
      30       30       20     1         /home/famous282/1000linesOS/kernel/target/riscv32imac-unknown-none-elf/debug/deps/kernel-e423684175293233.1zwa976huie3oeuiu5py3i96v.0x2lq71.rcgu.o:(.debug_aranges)
      30       30        0     1                 $d
      50       50       28     1         /home/famous282/1000linesOS/kernel/target/riscv32imac-unknown-none-elf/debug/deps/kernel-e423684175293233.7hqkh35l985iompa8en7ayj8i.0x2lq71.rcgu.o:(.debug_aranges)
      50       50        0     1                 $d
      78       78       28     1         /home/famous282/1000linesOS/kernel/target/riscv32imac-unknown-none-elf/debug/deps/kernel-e423684175293233.7wj5zoa8xxs3t0yy1onealpk8.0x2lq71.rcgu.o:(.debug_aranges)
      78       78        0     1                 $d
      a0       a0     1160     1         /home/famous282/.rustup/toolchains/stable-x86_64-unknown-linux-gnu/lib/rustlib/riscv32imac-unknown-none-elf/lib/libcore-c6eeea32d188506f.rlib(core-c6eeea32d188506f.core.f2b050c2002e39f1-cgu.0.rcgu.o):(.debug_aranges)
      a0       a0        0     1                 $d
    1200     1200       20     1         /home/famous282/.rustup/toolchains/stable-x86_64-unknown-linux-gnu/lib/rustlib/riscv32imac-unknown-none-elf/lib/libcompiler_builtins-ad31f96eaed4fe7a.rlib(compiler_builtins-ad31f96eaed4fe7a.compiler_builtins.a8dbbfe33f18591e-cgu.105.rcgu.o):(.debug_aranges)
    1200     1200        0     1                 $d
    1220     1220       20     1         /home/famous282/.rustup/toolchains/stable-x86_64-unknown-linux-gnu/lib/rustlib/riscv32imac-unknown-none-elf/lib/libcompiler_builtins-ad31f96eaed4fe7a.rlib(compiler_builtins-ad31f96eaed4fe7a.compiler_builtins.a8dbbfe33f18591e-cgu.157.rcgu.o):(.debug_aranges)
    1220     1220        0     1                 $d
    1240     1240       28     1         /home/famous282/.rustup/toolchains/stable-x86_64-unknown-linux-gnu/lib/rustlib/riscv32imac-unknown-none-elf/lib/libcompiler_builtins-ad31f96eaed4fe7a.rlib(compiler_builtins-ad31f96eaed4fe7a.compiler_builtins.a8dbbfe33f18591e-cgu.016.rcgu.o):(.debug_aranges)
    1240     1240        0     1                 $d
    1268     1268       20     1         /home/famous282/.rustup/toolchains/stable-x86_64-unknown-linux-gnu/lib/rustlib/riscv32imac-unknown-none-elf/lib/libcompiler_builtins-ad31f96eaed4fe7a.rlib(compiler_builtins-ad31f96eaed4fe7a.compiler_builtins.a8dbbfe33f18591e-cgu.162.rcgu.o):(.debug_aranges)
    1268     1268        0     1                 $d
    1288     1288       20     1         /home/famous282/.rustup/toolchains/stable-x86_64-unknown-linux-gnu/lib/rustlib/riscv32imac-unknown-none-elf/lib/libcompiler_builtins-ad31f96eaed4fe7a.rlib(compiler_builtins-ad31f96eaed4fe7a.compiler_builtins.a8dbbfe33f18591e-cgu.199.rcgu.o):(.debug_aranges)
    1288     1288        0     1                 $d
    12a8     12a8       20     1         /home/famous282/.rustup/toolchains/stable-x86_64-unknown-linux-gnu/lib/rustlib/riscv32imac-unknown-none-elf/lib/libcompiler_builtins-ad31f96eaed4fe7a.rlib(compiler_builtins-ad31f96eaed4fe7a.compiler_builtins.a8dbbfe33f18591e-cgu.225.rcgu.o):(.debug_aranges)
    12a8     12a8        0     1                 $d
    12c8     12c8       20     1         /home/famous282/.rustup/toolchains/stable-x86_64-unknown-linux-gnu/lib/rustlib/riscv32imac-unknown-none-elf/lib/libcompiler_builtins-ad31f96eaed4fe7a.rlib(compiler_builtins-ad31f96eaed4fe7a.compiler_builtins.a8dbbfe33f18591e-cgu.228.rcgu.o):(.debug_aranges)
    12c8     12c8        0     1                 $d
    12e8     12e8       38     1         /home/famous282/.rustup/toolchains/stable-x86_64-unknown-linux-gnu/lib/rustlib/riscv32imac-unknown-none-elf/lib/libcompiler_builtins-ad31f96eaed4fe7a.rlib(compiler_builtins-ad31f96eaed4fe7a.compiler_builtins.a8dbbfe33f18591e-cgu.003.rcgu.o):(.debug_aranges)
    12e8     12e8        0     1                 $d
    1320     1320       60     1         /home/famous282/.rustup/toolchains/stable-x86_64-unknown-linux-gnu/lib/rustlib/riscv32imac-unknown-none-elf/lib/libcompiler_builtins-ad31f96eaed4fe7a.rlib(compiler_builtins-ad31f96eaed4fe7a.compiler_builtins.a8dbbfe33f18591e-cgu.017.rcgu.o):(.debug_aranges)
    1320     1320        0     1                 $d
    1380     1380       20     1         /home/famous282/.rustup/toolchains/stable-x86_64-unknown-linux-gnu/lib/rustlib/riscv32imac-unknown-none-elf/lib/libcompiler_builtins-ad31f96eaed4fe7a.rlib(compiler_builtins-ad31f96eaed4fe7a.compiler_builtins.a8dbbfe33f18591e-cgu.236.rcgu.o):(.debug_aranges)
    1380     1380        0     1                 $d
    13a0     13a0       20     1         /home/famous282/.rustup/toolchains/stable-x86_64-unknown-linux-gnu/lib/rustlib/riscv32imac-unknown-none-elf/lib/libcompiler_builtins-ad31f96eaed4fe7a.rlib(compiler_builtins-ad31f96eaed4fe7a.compiler_builtins.a8dbbfe33f18591e-cgu.239.rcgu.o):(.debug_aranges)
    13a0     13a0        0     1                 $d
    13c0     13c0       20     1         /home/famous282/.rustup/toolchains/stable-x86_64-unknown-linux-gnu/lib/rustlib/riscv32imac-unknown-none-elf/lib/libcompiler_builtins-ad31f96eaed4fe7a.rlib(compiler_builtins-ad31f96eaed4fe7a.compiler_builtins.a8dbbfe33f18591e-cgu.256.rcgu.o):(.debug_aranges)
    13c0     13c0        0     1                 $d
    13e0     13e0       30     1         /home/famous282/.rustup/toolchains/stable-x86_64-unknown-linux-gnu/lib/rustlib/riscv32imac-unknown-none-elf/lib/libcompiler_builtins-ad31f96eaed4fe7a.rlib(compiler_builtins-ad31f96eaed4fe7a.compiler_builtins.a8dbbfe33f18591e-cgu.000.rcgu.o):(.debug_aranges)
    13e0     13e0        0     1                 $d
    1410     1410       20     1         /home/famous282/.rustup/toolchains/stable-x86_64-unknown-linux-gnu/lib/rustlib/riscv32imac-unknown-none-elf/lib/libcompiler_builtins-ad31f96eaed4fe7a.rlib(compiler_builtins-ad31f96eaed4fe7a.compiler_builtins.a8dbbfe33f18591e-cgu.285.rcgu.o):(.debug_aranges)
    1410     1410        0     1                 $d
    1430     1430       20     1         /home/famous282/.rustup/toolchains/stable-x86_64-unknown-linux-gnu/lib/rustlib/riscv32imac-unknown-none-elf/lib/libcompiler_builtins-ad31f96eaed4fe7a.rlib(compiler_builtins-ad31f96eaed4fe7a.compiler_builtins.a8dbbfe33f18591e-cgu.287.rcgu.o):(.debug_aranges)
    1430     1430        0     1                 $d
    1450     1450       20     1         /home/famous282/.rustup/toolchains/stable-x86_64-unknown-linux-gnu/lib/rustlib/riscv32imac-unknown-none-elf/lib/libcompiler_builtins-ad31f96eaed4fe7a.rlib(compiler_builtins-ad31f96eaed4fe7a.compiler_builtins.a8dbbfe33f18591e-cgu.295.rcgu.o):(.debug_aranges)
    1450     1450        0     1                 $d
    1470     1470       20     1         /home/famous282/.rustup/toolchains/stable-x86_64-unknown-linux-gnu/lib/rustlib/riscv32imac-unknown-none-elf/lib/libcompiler_builtins-ad31f96eaed4fe7a.rlib(compiler_builtins-ad31f96eaed4fe7a.compiler_builtins.a8dbbfe33f18591e-cgu.300.rcgu.o):(.debug_aranges)
    1470     1470        0     1                 $d
    1490     1490       20     1         /home/famous282/.rustup/toolchains/stable-x86_64-unknown-linux-gnu/lib/rustlib/riscv32imac-unknown-none-elf/lib/libcompiler_builtins-ad31f96eaed4fe7a.rlib(compiler_builtins-ad31f96eaed4fe7a.compiler_builtins.a8dbbfe33f18591e-cgu.303.rcgu.o):(.debug_aranges)
    1490     1490        0     1                 $d
    14b0     14b0       20     1         /home/famous282/.rustup/toolchains/stable-x86_64-unknown-linux-gnu/lib/rustlib/riscv32imac-unknown-none-elf/lib/libcompiler_builtins-ad31f96eaed4fe7a.rlib(compiler_builtins-ad31f96eaed4fe7a.compiler_builtins.a8dbbfe33f18591e-cgu.308.rcgu.o):(.debug_aranges)
    14b0     14b0        0     1                 $d
    14d0     14d0       20     1         /home/famous282/.rustup/toolchains/stable-x86_64-unknown-linux-gnu/lib/rustlib/riscv32imac-unknown-none-elf/lib/libcompiler_builtins-ad31f96eaed4fe7a.rlib(compiler_builtins-ad31f96eaed4fe7a.compiler_builtins.a8dbbfe33f18591e-cgu.315.rcgu.o):(.debug_aranges)
    14d0     14d0        0     1                 $d
    14f0     14f0       20     1         /home/famous282/.rustup/toolchains/stable-x86_64-unknown-linux-gnu/lib/rustlib/riscv32imac-unknown-none-elf/lib/libcompiler_builtins-ad31f96eaed4fe7a.rlib(compiler_builtins-ad31f96eaed4fe7a.compiler_builtins.a8dbbfe33f18591e-cgu.325.rcgu.o):(.debug_aranges)
    14f0     14f0        0     1                 $d
    1510     1510       20     1         /home/famous282/.rustup/toolchains/stable-x86_64-unknown-linux-gnu/lib/rustlib/riscv32imac-unknown-none-elf/lib/libcompiler_builtins-ad31f96eaed4fe7a.rlib(compiler_builtins-ad31f96eaed4fe7a.compiler_builtins.a8dbbfe33f18591e-cgu.326.rcgu.o):(.debug_aranges)
    1510     1510        0     1                 $d
    1530     1530       20     1         /home/famous282/.rustup/toolchains/stable-x86_64-unknown-linux-gnu/lib/rustlib/riscv32imac-unknown-none-elf/lib/libcompiler_builtins-ad31f96eaed4fe7a.rlib(compiler_builtins-ad31f96eaed4fe7a.compiler_builtins.a8dbbfe33f18591e-cgu.327.rcgu.o):(.debug_aranges)
    1530     1530        0     1                 $d
    1550     1550       20     1         /home/famous282/.rustup/toolchains/stable-x86_64-unknown-linux-gnu/lib/rustlib/riscv32imac-unknown-none-elf/lib/libcompiler_builtins-ad31f96eaed4fe7a.rlib(compiler_builtins-ad31f96eaed4fe7a.compiler_builtins.a8dbbfe33f18591e-cgu.331.rcgu.o):(.debug_aranges)
    1550     1550        0     1                 $d
    1570     1570       20     1         /home/famous282/.rustup/toolchains/stable-x86_64-unknown-linux-gnu/lib/rustlib/riscv32imac-unknown-none-elf/lib/libcompiler_builtins-ad31f96eaed4fe7a.rlib(compiler_builtins-ad31f96eaed4fe7a.compiler_builtins.a8dbbfe33f18591e-cgu.332.rcgu.o):(.debug_aranges)
    1570     1570        0     1                 $d
    1590     1590       20     1         /home/famous282/.rustup/toolchains/stable-x86_64-unknown-linux-gnu/lib/rustlib/riscv32imac-unknown-none-elf/lib/libcompiler_builtins-ad31f96eaed4fe7a.rlib(compiler_builtins-ad31f96eaed4fe7a.compiler_builtins.a8dbbfe33f18591e-cgu.351.rcgu.o):(.debug_aranges)
    1590     1590        0     1                 $d
    15b0     15b0       30     1         /home/famous282/.rustup/toolchains/stable-x86_64-unknown-linux-gnu/lib/rustlib/riscv32imac-unknown-none-elf/lib/libcompiler_builtins-ad31f96eaed4fe7a.rlib(compiler_builtins-ad31f96eaed4fe7a.compiler_builtins.a8dbbfe33f18591e-cgu.012.rcgu.o):(.debug_aranges)
    15b0     15b0        0     1                 $d
       0        0     cf98     1 .debug_ranges
       0        0       a0     1         /home/famous282/1000linesOS/kernel/target/riscv32imac-unknown-none-elf/debug/deps/kernel-e423684175293233.1gy28gr8yncw9yg4wm3kw95ip.0x2lq71.rcgu.o:(.debug_ranges)
       0        0        0     1                 .L0 
       0        0        0     1                 $d
      20       20        0     1                 .L0 
      48       48        0     1                 .L0 
      68       68        0     1                 .L0 
      88       88        0     1                 .L0 
      a0       a0       18     1         /home/famous282/1000linesOS/kernel/target/riscv32imac-unknown-none-elf/debug/deps/kernel-e423684175293233.7hqkh35l985iompa8en7ayj8i.0x2lq71.rcgu.o:(.debug_ranges)
      a0       a0        0     1                 .L0 
      a0       a0        0     1                 $d
      b8       b8      118     1         /home/famous282/1000linesOS/kernel/target/riscv32imac-unknown-none-elf/debug/deps/kernel-e423684175293233.7wj5zoa8xxs3t0yy1onealpk8.0x2lq71.rcgu.o:(.debug_ranges)
      b8       b8        0     1                 .L0 
      b8       b8        0     1                 $d
      d0       d0        0     1                 .L0 
      f0       f0        0     1                 .L0 
     110      110        0     1                 .L0 
     130      130        0     1                 .L0 
     148      148        0     1                 .L0 
     160      160        0     1                 .L0 
     180      180        0     1                 .L0 
     1a0      1a0        0     1                 .L0 
     1b8      1b8        0     1                 .L0 
     1d0      1d0     af18     1         /home/famous282/.rustup/toolchains/stable-x86_64-unknown-linux-gnu/lib/rustlib/riscv32imac-unknown-none-elf/lib/libcore-c6eeea32d188506f.rlib(core-c6eeea32d188506f.core.f2b050c2002e39f1-cgu.0.rcgu.o):(.debug_ranges)
     1d0      1d0        0     1                 .L0 
     1d0      1d0        0     1                 $d
     1e8      1e8        0     1                 .L0 
     208      208        0     1                 .L0 
     228      228        0     1                 .L0 
     240      240        0     1                 .L0 
     260      260        0     1                 .L0 
     280      280        0     1                 .L0 
     298      298        0     1                 .L0 
     2b0      2b0        0     1                 .L0 
     2c8      2c8        0     1                 .L0 
     2e8      2e8        0     1                 .L0 
     308      308        0     1                 .L0 
     328      328        0     1                 .L0 
     340      340        0     1                 .L0 
     358      358        0     1                 .L0 
     370      370        0     1                 .L0 
     388      388        0     1                 .L0 
     3a0      3a0        0     1                 .L0 
     3b8      3b8        0     1                 .L0 
     3d0      3d0        0     1                 .L0 
     3e8      3e8        0     1                 .L0 
     410      410        0     1                 .L0 
     438      438        0     1                 .L0 
     450      450        0     1                 .L0 
     470      470        0     1                 .L0 
     4a0      4a0        0     1                 .L0 
     4c0      4c0        0     1                 .L0 
     4d8      4d8        0     1                 .L0 
     4f0      4f0        0     1                 .L0 
     508      508        0     1                 .L0 
     528      528        0     1                 .L0 
     550      550        0     1                 .L0 
     570      570        0     1                 .L0 
     588      588        0     1                 .L0 
     5a0      5a0        0     1                 .L0 
     5c0      5c0        0     1                 .L0 
     5d8      5d8        0     1                 .L0 
     5f0      5f0        0     1                 .L0 
     608      608        0     1                 .L0 
     620      620        0     1                 .L0 
     640      640        0     1                 .L0 
     668      668        0     1                 .L0 
     688      688        0     1                 .L0 
     6a0      6a0        0     1                 .L0 
     6b8      6b8        0     1                 .L0 
     6d0      6d0        0     1                 .L0 
     6e8      6e8        0     1                 .L0 
     708      708        0     1                 .L0 
     730      730        0     1                 .L0 
     748      748        0     1                 .L0 
     760      760        0     1                 .L0 
     778      778        0     1                 .L0 
     790      790        0     1                 .L0 
     7a8      7a8        0     1                 .L0 
     7c0      7c0        0     1                 .L0 
     7e0      7e0        0     1                 .L0 
     7f8      7f8        0     1                 .L0 
     820      820        0     1                 .L0 
     848      848        0     1                 .L0 
     870      870        0     1                 .L0 
     898      898        0     1                 .L0 
     8b8      8b8        0     1                 .L0 
     8d8      8d8        0     1                 .L0 
     900      900        0     1                 .L0 
     928      928        0     1                 .L0 
     950      950        0     1                 .L0 
     978      978        0     1                 .L0 
     990      990        0     1                 .L0 
     9b0      9b0        0     1                 .L0 
     9c8      9c8        0     1                 .L0 
     9e8      9e8        0     1                 .L0 
     a08      a08        0     1                 .L0 
     a20      a20        0     1                 .L0 
     a38      a38        0     1                 .L0 
     a50      a50        0     1                 .L0 
     a68      a68        0     1                 .L0 
     a80      a80        0     1                 .L0 
     a98      a98        0     1                 .L0 
     ab0      ab0        0     1                 .L0 
     ad8      ad8        0     1                 .L0 
     af8      af8        0     1                 .L0 
     b18      b18        0     1                 .L0 
     b38      b38        0     1                 .L0 
     b50      b50        0     1                 .L0 
     b68      b68        0     1                 .L0 
     b80      b80        0     1                 .L0 
     b98      b98        0     1                 .L0 
     bb0      bb0        0     1                 .L0 
     bc8      bc8        0     1                 .L0 
     be0      be0        0     1                 .L0 
     bf8      bf8        0     1                 .L0 
     c10      c10        0     1                 .L0 
     c28      c28        0     1                 .L0 
     c48      c48        0     1                 .L0 
     c68      c68        0     1                 .L0 
     c88      c88        0     1                 .L0 
     ca8      ca8        0     1                 .L0 
     cc0      cc0        0     1                 .L0 
     ce0      ce0        0     1                 .L0 
     d00      d00        0     1                 .L0 
     d18      d18        0     1                 .L0 
     d30      d30        0     1                 .L0 
     d48      d48        0     1                 .L0 
     d60      d60        0     1                 .L0 
     d78      d78        0     1                 .L0 
     d90      d90        0     1                 .L0 
     db0      db0        0     1                 .L0 
     dc8      dc8        0     1                 .L0 
     de0      de0        0     1                 .L0 
     df8      df8        0     1                 .L0 
     e18      e18        0     1                 .L0 
     e30      e30        0     1                 .L0 
     e48      e48        0     1                 .L0 
     e68      e68        0     1                 .L0 
     e80      e80        0     1                 .L0 
     e98      e98        0     1                 .L0 
     eb0      eb0        0     1                 .L0 
     ec8      ec8        0     1                 .L0 
     ee0      ee0        0     1                 .L0 
     ef8      ef8        0     1                 .L0 
     f10      f10        0     1                 .L0 
     f28      f28        0     1                 .L0 
     f50      f50        0     1                 .L0 
     f70      f70        0     1                 .L0 
     f88      f88        0     1                 .L0 
     fa0      fa0        0     1                 .L0 
     fb8      fb8        0     1                 .L0 
     fd0      fd0        0     1                 .L0 
     fe8      fe8        0     1                 .L0 
    1000     1000        0     1                 .L0 
    1018     1018        0     1                 .L0 
    1030     1030        0     1                 .L0 
    1050     1050        0     1                 .L0 
    1068     1068        0     1                 .L0 
    1090     1090        0     1                 .L0 
    10a8     10a8        0     1                 .L0 
    10c0     10c0        0     1                 .L0 
    10d8     10d8        0     1                 .L0 
    10f0     10f0        0     1                 .L0 
    1108     1108        0     1                 .L0 
    1120     1120        0     1                 .L0 
    1148     1148        0     1                 .L0 
    1160     1160        0     1                 .L0 
    1178     1178        0     1                 .L0 
    1190     1190        0     1                 .L0 
    11a8     11a8        0     1                 .L0 
    11c0     11c0        0     1                 .L0 
    11d8     11d8        0     1                 .L0 
    11f0     11f0        0     1                 .L0 
    1218     1218        0     1                 .L0 
    1240     1240        0     1                 .L0 
    1258     1258        0     1                 .L0 
    1270     1270        0     1                 .L0 
    1298     1298        0     1                 .L0 
    12b8     12b8        0     1                 .L0 
    12e8     12e8        0     1                 .L0 
    1300     1300        0     1                 .L0 
    1318     1318        0     1                 .L0 
    1338     1338        0     1                 .L0 
    1350     1350        0     1                 .L0 
    1368     1368        0     1                 .L0 
    1388     1388        0     1                 .L0 
    13a0     13a0        0     1                 .L0 
    13b8     13b8        0     1                 .L0 
    13d0     13d0        0     1                 .L0 
    13e8     13e8        0     1                 .L0 
    1408     1408        0     1                 .L0 
    1430     1430        0     1                 .L0 
    1448     1448        0     1                 .L0 
    1468     1468        0     1                 .L0 
    1490     1490        0     1                 .L0 
    14a8     14a8        0     1                 .L0 
    14c8     14c8        0     1                 .L0 
    14f0     14f0        0     1                 .L0 
    1508     1508        0     1                 .L0 
    1528     1528        0     1                 .L0 
    1550     1550        0     1                 .L0 
    1568     1568        0     1                 .L0 
    1580     1580        0     1                 .L0 
    15a0     15a0        0     1                 .L0 
    15b8     15b8        0     1                 .L0 
    15e0     15e0        0     1                 .L0 
    15f8     15f8        0     1                 .L0 
    1610     1610        0     1                 .L0 
    1630     1630        0     1                 .L0 
    1648     1648        0     1                 .L0 
    1670     1670        0     1                 .L0 
    1688     1688        0     1                 .L0 
    16a0     16a0        0     1                 .L0 
    16b8     16b8        0     1                 .L0 
    16e0     16e0        0     1                 .L0 
    1708     1708        0     1                 .L0 
    1720     1720        0     1                 .L0 
    1738     1738        0     1                 .L0 
    1760     1760        0     1                 .L0 
    1778     1778        0     1                 .L0 
    17a0     17a0        0     1                 .L0 
    17c8     17c8        0     1                 .L0 
    17e8     17e8        0     1                 .L0 
    1800     1800        0     1                 .L0 
    1828     1828        0     1                 .L0 
    1840     1840        0     1                 .L0 
    1860     1860        0     1                 .L0 
    1878     1878        0     1                 .L0 
    18a0     18a0        0     1                 .L0 
    18b8     18b8        0     1                 .L0 
    18d0     18d0        0     1                 .L0 
    18e8     18e8        0     1                 .L0 
    1900     1900        0     1                 .L0 
    1928     1928        0     1                 .L0 
    1950     1950        0     1                 .L0 
    1968     1968        0     1                 .L0 
    1980     1980        0     1                 .L0 
    1998     1998        0     1                 .L0 
    19b8     19b8        0     1                 .L0 
    19d0     19d0        0     1                 .L0 
    19f8     19f8        0     1                 .L0 
    1a10     1a10        0     1                 .L0 
    1a28     1a28        0     1                 .L0 
    1a40     1a40        0     1                 .L0 
    1a58     1a58        0     1                 .L0 
    1a80     1a80        0     1                 .L0 
    1aa8     1aa8        0     1                 .L0 
    1ac0     1ac0        0     1                 .L0 
    1ae8     1ae8        0     1                 .L0 
    1b00     1b00        0     1                 .L0 
    1b18     1b18        0     1                 .L0 
    1b38     1b38        0     1                 .L0 
    1b50     1b50        0     1                 .L0 
    1b78     1b78        0     1                 .L0 
    1b90     1b90        0     1                 .L0 
    1bb8     1bb8        0     1                 .L0 
    1bd0     1bd0        0     1                 .L0 
    1be8     1be8        0     1                 .L0 
    1c08     1c08        0     1                 .L0 
    1c20     1c20        0     1                 .L0 
    1c48     1c48        0     1                 .L0 
    1c60     1c60        0     1                 .L0 
    1c88     1c88        0     1                 .L0 
    1ca0     1ca0        0     1                 .L0 
    1cd0     1cd0        0     1                 .L0 
    1cf0     1cf0        0     1                 .L0 
    1d08     1d08        0     1                 .L0 
    1d38     1d38        0     1                 .L0 
    1d58     1d58        0     1                 .L0 
    1d70     1d70        0     1                 .L0 
    1da0     1da0        0     1                 .L0 
    1dc0     1dc0        0     1                 .L0 
    1dd8     1dd8        0     1                 .L0 
    1e00     1e00        0     1                 .L0 
    1e20     1e20        0     1                 .L0 
    1e38     1e38        0     1                 .L0 
    1e60     1e60        0     1                 .L0 
    1e80     1e80        0     1                 .L0 
    1e98     1e98        0     1                 .L0 
    1ec0     1ec0        0     1                 .L0 
    1ee0     1ee0        0     1                 .L0 
    1ef8     1ef8        0     1                 .L0 
    1f20     1f20        0     1                 .L0 
    1f40     1f40        0     1                 .L0 
    1f58     1f58        0     1                 .L0 
    1f80     1f80        0     1                 .L0 
    1fa0     1fa0        0     1                 .L0 
    1fb8     1fb8        0     1                 .L0 
    1fe0     1fe0        0     1                 .L0 
    2000     2000        0     1                 .L0 
    2018     2018        0     1                 .L0 
    2040     2040        0     1                 .L0 
    2060     2060        0     1                 .L0 
    2078     2078        0     1                 .L0 
    20a0     20a0        0     1                 .L0 
    20c0     20c0        0     1                 .L0 
    20d8     20d8        0     1                 .L0 
    2100     2100        0     1                 .L0 
    2120     2120        0     1                 .L0 
    2138     2138        0     1                 .L0 
    2150     2150        0     1                 .L0 
    2168     2168        0     1                 .L0 
    2180     2180        0     1                 .L0 
    2198     2198        0     1                 .L0 
    21b0     21b0        0     1                 .L0 
    21c8     21c8        0     1                 .L0 
    21e0     21e0        0     1                 .L0 
    2200     2200        0     1                 .L0 
    2218     2218        0     1                 .L0 
    2230     2230        0     1                 .L0 
    2248     2248        0     1                 .L0 
    2260     2260        0     1                 .L0 
    2278     2278        0     1                 .L0 
    2290     2290        0     1                 .L0 
    22a8     22a8        0     1                 .L0 
    22c0     22c0        0     1                 .L0 
    22d8     22d8        0     1                 .L0 
    22f0     22f0        0     1                 .L0 
    2308     2308        0     1                 .L0 
    2320     2320        0     1                 .L0 
    2338     2338        0     1                 .L0 
    2350     2350        0     1                 .L0 
    2368     2368        0     1                 .L0 
    2380     2380        0     1                 .L0 
    2398     2398        0     1                 .L0 
    23b0     23b0        0     1                 .L0 
    23c8     23c8        0     1                 .L0 
    23e0     23e0        0     1                 .L0 
    23f8     23f8        0     1                 .L0 
    2420     2420        0     1                 .L0 
    2440     2440        0     1                 .L0 
    2458     2458        0     1                 .L0 
    2478     2478        0     1                 .L0 
    2490     2490        0     1                 .L0 
    24a8     24a8        0     1                 .L0 
    24c0     24c0        0     1                 .L0 
    24d8     24d8        0     1                 .L0 
    24f8     24f8        0     1                 .L0 
    2510     2510        0     1                 .L0 
    2528     2528        0     1                 .L0 
    2540     2540        0     1                 .L0 
    2558     2558        0     1                 .L0 
    2570     2570        0     1                 .L0 
    2590     2590        0     1                 .L0 
    25b0     25b0        0     1                 .L0 
    25c8     25c8        0     1                 .L0 
    25e0     25e0        0     1                 .L0 
    25f8     25f8        0     1                 .L0 
    2610     2610        0     1                 .L0 
    2630     2630        0     1                 .L0 
    2648     2648        0     1                 .L0 
    2660     2660        0     1                 .L0 
    2678     2678        0     1                 .L0 
    2690     2690        0     1                 .L0 
    26a8     26a8        0     1                 .L0 
    26c8     26c8        0     1                 .L0 
    26e0     26e0        0     1                 .L0 
    26f8     26f8        0     1                 .L0 
    2710     2710        0     1                 .L0 
    2728     2728        0     1                 .L0 
    2748     2748        0     1                 .L0 
    2760     2760        0     1                 .L0 
    2778     2778        0     1                 .L0 
    2798     2798        0     1                 .L0 
    27b0     27b0        0     1                 .L0 
    27d0     27d0        0     1                 .L0 
    27e8     27e8        0     1                 .L0 
    2800     2800        0     1                 .L0 
    2818     2818        0     1                 .L0 
    2838     2838        0     1                 .L0 
    2850     2850        0     1                 .L0 
    2868     2868        0     1                 .L0 
    2880     2880        0     1                 .L0 
    2898     2898        0     1                 .L0 
    28b8     28b8        0     1                 .L0 
    28d0     28d0        0     1                 .L0 
    28e8     28e8        0     1                 .L0 
    2900     2900        0     1                 .L0 
    2918     2918        0     1                 .L0 
    2930     2930        0     1                 .L0 
    2950     2950        0     1                 .L0 
    2968     2968        0     1                 .L0 
    2980     2980        0     1                 .L0 
    2998     2998        0     1                 .L0 
    29b0     29b0        0     1                 .L0 
    29c8     29c8        0     1                 .L0 
    29e0     29e0        0     1                 .L0 
    2a00     2a00        0     1                 .L0 
    2a18     2a18        0     1                 .L0 
    2a30     2a30        0     1                 .L0 
    2a48     2a48        0     1                 .L0 
    2a60     2a60        0     1                 .L0 
    2a78     2a78        0     1                 .L0 
    2a90     2a90        0     1                 .L0 
    2aa8     2aa8        0     1                 .L0 
    2ac8     2ac8        0     1                 .L0 
    2af0     2af0        0     1                 .L0 
    2b10     2b10        0     1                 .L0 
    2b28     2b28        0     1                 .L0 
    2b40     2b40        0     1                 .L0 
    2b58     2b58        0     1                 .L0 
    2b70     2b70        0     1                 .L0 
    2ba8     2ba8        0     1                 .L0 
    2bc0     2bc0        0     1                 .L0 
    2bf8     2bf8        0     1                 .L0 
    2c10     2c10        0     1                 .L0 
    2c28     2c28        0     1                 .L0 
    2c40     2c40        0     1                 .L0 
    2c58     2c58        0     1                 .L0 
    2c70     2c70        0     1                 .L0 
    2c88     2c88        0     1                 .L0 
    2ca8     2ca8        0     1                 .L0 
    2cc0     2cc0        0     1                 .L0 
    2cd8     2cd8        0     1                 .L0 
    2cf0     2cf0        0     1                 .L0 
    2d10     2d10        0     1                 .L0 
    2d28     2d28        0     1                 .L0 
    2d40     2d40        0     1                 .L0 
    2d60     2d60        0     1                 .L0 
    2d78     2d78        0     1                 .L0 
    2d90     2d90        0     1                 .L0 
    2da8     2da8        0     1                 .L0 
    2dc0     2dc0        0     1                 .L0 
    2dd8     2dd8        0     1                 .L0 
    2e00     2e00        0     1                 .L0 
    2e28     2e28        0     1                 .L0 
    2e40     2e40        0     1                 .L0 
    2e58     2e58        0     1                 .L0 
    2e78     2e78        0     1                 .L0 
    2e90     2e90        0     1                 .L0 
    2ea8     2ea8        0     1                 .L0 
    2ec0     2ec0        0     1                 .L0 
    2ee0     2ee0        0     1                 .L0 
    2ef8     2ef8        0     1                 .L0 
    2f18     2f18        0     1                 .L0 
    2f38     2f38        0     1                 .L0 
    2f58     2f58        0     1                 .L0 
    2f70     2f70        0     1                 .L0 
    2f88     2f88        0     1                 .L0 
    2fa0     2fa0        0     1                 .L0 
    2fb8     2fb8        0     1                 .L0 
    2fd0     2fd0        0     1                 .L0 
    2fe8     2fe8        0     1                 .L0 
    3008     3008        0     1                 .L0 
    3020     3020        0     1                 .L0 
    3038     3038        0     1                 .L0 
    3050     3050        0     1                 .L0 
    3068     3068        0     1                 .L0 
    30b8     30b8        0     1                 .L0 
    3108     3108        0     1                 .L0 
    3150     3150        0     1                 .L0 
    3178     3178        0     1                 .L0 
    31a8     31a8        0     1                 .L0 
    31c8     31c8        0     1                 .L0 
    31e0     31e0        0     1                 .L0 
    3220     3220        0     1                 .L0 
    3260     3260        0     1                 .L0 
    3298     3298        0     1                 .L0 
    32c0     32c0        0     1                 .L0 
    32e0     32e0        0     1                 .L0 
    3300     3300        0     1                 .L0 
    3328     3328        0     1                 .L0 
    3340     3340        0     1                 .L0 
    3358     3358        0     1                 .L0 
    3370     3370        0     1                 .L0 
    3388     3388        0     1                 .L0 
    33a0     33a0        0     1                 .L0 
    33c8     33c8        0     1                 .L0 
    3400     3400        0     1                 .L0 
    3428     3428        0     1                 .L0 
    3440     3440        0     1                 .L0 
    3468     3468        0     1                 .L0 
    3530     3530        0     1                 .L0 
    3618     3618        0     1                 .L0 
    36c8     36c8        0     1                 .L0 
    3750     3750        0     1                 .L0 
    37b8     37b8        0     1                 .L0 
    3808     3808        0     1                 .L0 
    3840     3840        0     1                 .L0 
    3860     3860        0     1                 .L0 
    3888     3888        0     1                 .L0 
    38b8     38b8        0     1                 .L0 
    38f8     38f8        0     1                 .L0 
    3910     3910        0     1                 .L0 
    3928     3928        0     1                 .L0 
    3940     3940        0     1                 .L0 
    3960     3960        0     1                 .L0 
    3978     3978        0     1                 .L0 
    3990     3990        0     1                 .L0 
    39a8     39a8        0     1                 .L0 
    39c0     39c0        0     1                 .L0 
    39e0     39e0        0     1                 .L0 
    39f8     39f8        0     1                 .L0 
    3a10     3a10        0     1                 .L0 
    3a28     3a28        0     1                 .L0 
    3a40     3a40        0     1                 .L0 
    3a58     3a58        0     1                 .L0 
    3a70     3a70        0     1                 .L0 
    3a88     3a88        0     1                 .L0 
    3aa0     3aa0        0     1                 .L0 
    3ac0     3ac0        0     1                 .L0 
    3ad8     3ad8        0     1                 .L0 
    3af0     3af0        0     1                 .L0 
    3b08     3b08        0     1                 .L0 
    3b20     3b20        0     1                 .L0 
    3b48     3b48        0     1                 .L0 
    3b68     3b68        0     1                 .L0 
    3b88     3b88        0     1                 .L0 
    3ba0     3ba0        0     1                 .L0 
    3bb8     3bb8        0     1                 .L0 
    3bd0     3bd0        0     1                 .L0 
    3be8     3be8        0     1                 .L0 
    3c08     3c08        0     1                 .L0 
    3c28     3c28        0     1                 .L0 
    3c48     3c48        0     1                 .L0 
    3c60     3c60        0     1                 .L0 
    3c78     3c78        0     1                 .L0 
    3c98     3c98        0     1                 .L0 
    3cb0     3cb0        0     1                 .L0 
    3cc8     3cc8        0     1                 .L0 
    3ce0     3ce0        0     1                 .L0 
    3cf8     3cf8        0     1                 .L0 
    3d10     3d10        0     1                 .L0 
    3d28     3d28        0     1                 .L0 
    3d40     3d40        0     1                 .L0 
    3d68     3d68        0     1                 .L0 
    3d80     3d80        0     1                 .L0 
    3d98     3d98        0     1                 .L0 
    3db0     3db0        0     1                 .L0 
    3dc8     3dc8        0     1                 .L0 
    3de0     3de0        0     1                 .L0 
    3e00     3e00        0     1                 .L0 
    3e18     3e18        0     1                 .L0 
    3e30     3e30        0     1                 .L0 
    3e48     3e48        0     1                 .L0 
    3e60     3e60        0     1                 .L0 
    3e78     3e78        0     1                 .L0 
    3e98     3e98        0     1                 .L0 
    3ec0     3ec0        0     1                 .L0 
    3ed8     3ed8        0     1                 .L0 
    3ef0     3ef0        0     1                 .L0 
    3f08     3f08        0     1                 .L0 
    3f20     3f20        0     1                 .L0 
    3f38     3f38        0     1                 .L0 
    3f50     3f50        0     1                 .L0 
    3f68     3f68        0     1                 .L0 
    3f80     3f80        0     1                 .L0 
    3fa0     3fa0        0     1                 .L0 
    3fb8     3fb8        0     1                 .L0 
    3fd0     3fd0        0     1                 .L0 
    3fe8     3fe8        0     1                 .L0 
    4000     4000        0     1                 .L0 
    4018     4018        0     1                 .L0 
    4048     4048        0     1                 .L0 
    4068     4068        0     1                 .L0 
    4088     4088        0     1                 .L0 
    40a0     40a0        0     1                 .L0 
    40d0     40d0        0     1                 .L0 
    40f0     40f0        0     1                 .L0 
    4110     4110        0     1                 .L0 
    4130     4130        0     1                 .L0 
    4150     4150        0     1                 .L0 
    4168     4168        0     1                 .L0 
    4188     4188        0     1                 .L0 
    41a0     41a0        0     1                 .L0 
    41b8     41b8        0     1                 .L0 
    41e0     41e0        0     1                 .L0 
    41f8     41f8        0     1                 .L0 
    4218     4218        0     1                 .L0 
    4230     4230        0     1                 .L0 
    4248     4248        0     1                 .L0 
    4270     4270        0     1                 .L0 
    4290     4290        0     1                 .L0 
    42b0     42b0        0     1                 .L0 
    42c8     42c8        0     1                 .L0 
    42e0     42e0        0     1                 .L0 
    42f8     42f8        0     1                 .L0 
    4310     4310        0     1                 .L0 
    4330     4330        0     1                 .L0 
    4358     4358        0     1                 .L0 
    4378     4378        0     1                 .L0 
    4390     4390        0     1                 .L0 
    43b0     43b0        0     1                 .L0 
    43c8     43c8        0     1                 .L0 
    43e0     43e0        0     1                 .L0 
    4408     4408        0     1                 .L0 
    4428     4428        0     1                 .L0 
    4440     4440        0     1                 .L0 
    4458     4458        0     1                 .L0 
    4480     4480        0     1                 .L0 
    44a0     44a0        0     1                 .L0 
    44b8     44b8        0     1                 .L0 
    44d0     44d0        0     1                 .L0 
    44e8     44e8        0     1                 .L0 
    4500     4500        0     1                 .L0 
    4518     4518        0     1                 .L0 
    4530     4530        0     1                 .L0 
    4558     4558        0     1                 .L0 
    4580     4580        0     1                 .L0 
    4598     4598        0     1                 .L0 
    45b0     45b0        0     1                 .L0 
    45d0     45d0        0     1                 .L0 
    45e8     45e8        0     1                 .L0 
    4600     4600        0     1                 .L0 
    4628     4628        0     1                 .L0 
    4640     4640        0     1                 .L0 
    4658     4658        0     1                 .L0 
    4670     4670        0     1                 .L0 
    4690     4690        0     1                 .L0 
    46a8     46a8        0     1                 .L0 
    46c0     46c0        0     1                 .L0 
    46e0     46e0        0     1                 .L0 
    4700     4700        0     1                 .L0 
    4718     4718        0     1                 .L0 
    4730     4730        0     1                 .L0 
    4748     4748        0     1                 .L0 
    4768     4768        0     1                 .L0 
    4780     4780        0     1                 .L0 
    47a8     47a8        0     1                 .L0 
    47c8     47c8        0     1                 .L0 
    47e0     47e0        0     1                 .L0 
    4800     4800        0     1                 .L0 
    4818     4818        0     1                 .L0 
    4830     4830        0     1                 .L0 
    4858     4858        0     1                 .L0 
    4878     4878        0     1                 .L0 
    49b8     49b8        0     1                 .L0 
    49d0     49d0        0     1                 .L0 
    49f8     49f8        0     1                 .L0 
    4a18     4a18        0     1                 .L0 
    4a38     4a38        0     1                 .L0 
    4a50     4a50        0     1                 .L0 
    4a70     4a70        0     1                 .L0 
    4a90     4a90        0     1                 .L0 
    4aa8     4aa8        0     1                 .L0 
    4ad8     4ad8        0     1                 .L0 
    4af0     4af0        0     1                 .L0 
    4b08     4b08        0     1                 .L0 
    4b20     4b20        0     1                 .L0 
    4b38     4b38        0     1                 .L0 
    4b58     4b58        0     1                 .L0 
    4b78     4b78        0     1                 .L0 
    4b90     4b90        0     1                 .L0 
    4ba8     4ba8        0     1                 .L0 
    4bd0     4bd0        0     1                 .L0 
    4be8     4be8        0     1                 .L0 
    4c00     4c00        0     1                 .L0 
    4c20     4c20        0     1                 .L0 
    4c40     4c40        0     1                 .L0 
    4c60     4c60        0     1                 .L0 
    4c80     4c80        0     1                 .L0 
    4c98     4c98        0     1                 .L0 
    4cb0     4cb0        0     1                 .L0 
    4cc8     4cc8        0     1                 .L0 
    4ce0     4ce0        0     1                 .L0 
    4cf8     4cf8        0     1                 .L0 
    4d18     4d18        0     1                 .L0 
    4d38     4d38        0     1                 .L0 
    4d50     4d50        0     1                 .L0 
    4d70     4d70        0     1                 .L0 
    4d90     4d90        0     1                 .L0 
    4db0     4db0        0     1                 .L0 
    4dc8     4dc8        0     1                 .L0 
    4de0     4de0        0     1                 .L0 
    4df8     4df8        0     1                 .L0 
    4e10     4e10        0     1                 .L0 
    4e28     4e28        0     1                 .L0 
    4e48     4e48        0     1                 .L0 
    4e68     4e68        0     1                 .L0 
    4e88     4e88        0     1                 .L0 
    4ea8     4ea8        0     1                 .L0 
    4ec0     4ec0        0     1                 .L0 
    4ed8     4ed8        0     1                 .L0 
    4ef8     4ef8        0     1                 .L0 
    4f10     4f10        0     1                 .L0 
    4f30     4f30        0     1                 .L0 
    4f50     4f50        0     1                 .L0 
    4f68     4f68        0     1                 .L0 
    4f88     4f88        0     1                 .L0 
    4fa0     4fa0        0     1                 .L0 
    4fb8     4fb8        0     1                 .L0 
    4fd8     4fd8        0     1                 .L0 
    4ff8     4ff8        0     1                 .L0 
    5010     5010        0     1                 .L0 
    5030     5030        0     1                 .L0 
    5048     5048        0     1                 .L0 
    5060     5060        0     1                 .L0 
    5078     5078        0     1                 .L0 
    5098     5098        0     1                 .L0 
    50c0     50c0        0     1                 .L0 
    50d8     50d8        0     1                 .L0 
    50f0     50f0        0     1                 .L0 
    5108     5108        0     1                 .L0 
    5120     5120        0     1                 .L0 
    5138     5138        0     1                 .L0 
    5150     5150        0     1                 .L0 
    5168     5168        0     1                 .L0 
    5180     5180        0     1                 .L0 
    5198     5198        0     1                 .L0 
    51b0     51b0        0     1                 .L0 
    51c8     51c8        0     1                 .L0 
    51e0     51e0        0     1                 .L0 
    51f8     51f8        0     1                 .L0 
    5210     5210        0     1                 .L0 
    5228     5228        0     1                 .L0 
    5240     5240        0     1                 .L0 
    5258     5258        0     1                 .L0 
    5270     5270        0     1                 .L0 
    5288     5288        0     1                 .L0 
    52a0     52a0        0     1                 .L0 
    52b8     52b8        0     1                 .L0 
    52d0     52d0        0     1                 .L0 
    52f0     52f0        0     1                 .L0 
    5308     5308        0     1                 .L0 
    5320     5320        0     1                 .L0 
    5338     5338        0     1                 .L0 
    5350     5350        0     1                 .L0 
    5368     5368        0     1                 .L0 
    5380     5380        0     1                 .L0 
    5398     5398        0     1                 .L0 
    53b0     53b0        0     1                 .L0 
    53d0     53d0        0     1                 .L0 
    53f8     53f8        0     1                 .L0 
    5428     5428        0     1                 .L0 
    5468     5468        0     1                 .L0 
    5498     5498        0     1                 .L0 
    54c0     54c0        0     1                 .L0 
    54d8     54d8        0     1                 .L0 
    54f0     54f0        0     1                 .L0 
    5548     5548        0     1                 .L0 
    5588     5588        0     1                 .L0 
    55c0     55c0        0     1                 .L0 
    55f8     55f8        0     1                 .L0 
    5630     5630        0     1                 .L0 
    5648     5648        0     1                 .L0 
    5668     5668        0     1                 .L0 
    56a0     56a0        0     1                 .L0 
    56c8     56c8        0     1                 .L0 
    56f0     56f0        0     1                 .L0 
    5708     5708        0     1                 .L0 
    5720     5720        0     1                 .L0 
    5738     5738        0     1                 .L0 
    5760     5760        0     1                 .L0 
    5778     5778        0     1                 .L0 
    5790     5790        0     1                 .L0 
    57a8     57a8        0     1                 .L0 
    57d0     57d0        0     1                 .L0 
    57e8     57e8        0     1                 .L0 
    5800     5800        0     1                 .L0 
    5820     5820        0     1                 .L0 
    5838     5838        0     1                 .L0 
    5858     5858        0     1                 .L0 
    5878     5878        0     1                 .L0 
    58a0     58a0        0     1                 .L0 
    58c0     58c0        0     1                 .L0 
    58d8     58d8        0     1                 .L0 
    58f0     58f0        0     1                 .L0 
    5918     5918        0     1                 .L0 
    5938     5938        0     1                 .L0 
    5950     5950        0     1                 .L0 
    5968     5968        0     1                 .L0 
    5980     5980        0     1                 .L0 
    59a0     59a0        0     1                 .L0 
    59b8     59b8        0     1                 .L0 
    59d0     59d0        0     1                 .L0 
    59e8     59e8        0     1                 .L0 
    5a00     5a00        0     1                 .L0 
    5a18     5a18        0     1                 .L0 
    5a30     5a30        0     1                 .L0 
    5a50     5a50        0     1                 .L0 
    5a70     5a70        0     1                 .L0 
    5a90     5a90        0     1                 .L0 
    5aa8     5aa8        0     1                 .L0 
    5ac0     5ac0        0     1                 .L0 
    5ae0     5ae0        0     1                 .L0 
    5b00     5b00        0     1                 .L0 
    5b20     5b20        0     1                 .L0 
    5b38     5b38        0     1                 .L0 
    5b50     5b50        0     1                 .L0 
    5b70     5b70        0     1                 .L0 
    5b90     5b90        0     1                 .L0 
    5ba8     5ba8        0     1                 .L0 
    5bc0     5bc0        0     1                 .L0 
    5be0     5be0        0     1                 .L0 
    5c00     5c00        0     1                 .L0 
    5c28     5c28        0     1                 .L0 
    5c48     5c48        0     1                 .L0 
    5c68     5c68        0     1                 .L0 
    5c80     5c80        0     1                 .L0 
    5ca8     5ca8        0     1                 .L0 
    5cc8     5cc8        0     1                 .L0 
    5cf8     5cf8        0     1                 .L0 
    5d20     5d20        0     1                 .L0 
    5d38     5d38        0     1                 .L0 
    5d50     5d50        0     1                 .L0 
    5d68     5d68        0     1                 .L0 
    5d88     5d88        0     1                 .L0 
    5da8     5da8        0     1                 .L0 
    5dc8     5dc8        0     1                 .L0 
    5de0     5de0        0     1                 .L0 
    5df8     5df8        0     1                 .L0 
    5e20     5e20        0     1                 .L0 
    5e40     5e40        0     1                 .L0 
    5e60     5e60        0     1                 .L0 
    5e78     5e78        0     1                 .L0 
    5ea0     5ea0        0     1                 .L0 
    5ec0     5ec0        0     1                 .L0 
    5ee8     5ee8        0     1                 .L0 
    5f08     5f08        0     1                 .L0 
    5f20     5f20        0     1                 .L0 
    5f38     5f38        0     1                 .L0 
    5f58     5f58        0     1                 .L0 
    5f78     5f78        0     1                 .L0 
    5fa0     5fa0        0     1                 .L0 
    5fc0     5fc0        0     1                 .L0 
    5fd8     5fd8        0     1                 .L0 
    5ff0     5ff0        0     1                 .L0 
    6010     6010        0     1                 .L0 
    6030     6030        0     1                 .L0 
    6050     6050        0     1                 .L0 
    6068     6068        0     1                 .L0 
    6080     6080        0     1                 .L0 
    60a0     60a0        0     1                 .L0 
    60c0     60c0        0     1                 .L0 
    60e8     60e8        0     1                 .L0 
    6108     6108        0     1                 .L0 
    6120     6120        0     1                 .L0 
    6138     6138        0     1                 .L0 
    6158     6158        0     1                 .L0 
    6178     6178        0     1                 .L0 
    6198     6198        0     1                 .L0 
    61b8     61b8        0     1                 .L0 
    61d8     61d8        0     1                 .L0 
    61f0     61f0        0     1                 .L0 
    6208     6208        0     1                 .L0 
    6228     6228        0     1                 .L0 
    6240     6240        0     1                 .L0 
    6260     6260        0     1                 .L0 
    6278     6278        0     1                 .L0 
    6298     6298        0     1                 .L0 
    62b0     62b0        0     1                 .L0 
    62c8     62c8        0     1                 .L0 
    62e0     62e0        0     1                 .L0 
    62f8     62f8        0     1                 .L0 
    6320     6320        0     1                 .L0 
    6340     6340        0     1                 .L0 
    6368     6368        0     1                 .L0 
    6388     6388        0     1                 .L0 
    63a8     63a8        0     1                 .L0 
    63c0     63c0        0     1                 .L0 
    63d8     63d8        0     1                 .L0 
    63f0     63f0        0     1                 .L0 
    6408     6408        0     1                 .L0 
    6420     6420        0     1                 .L0 
    6438     6438        0     1                 .L0 
    6450     6450        0     1                 .L0 
    6468     6468        0     1                 .L0 
    6490     6490        0     1                 .L0 
    64a8     64a8        0     1                 .L0 
    64c0     64c0        0     1                 .L0 
    64d8     64d8        0     1                 .L0 
    6510     6510        0     1                 .L0 
    6528     6528        0     1                 .L0 
    6540     6540        0     1                 .L0 
    6558     6558        0     1                 .L0 
    65b8     65b8        0     1                 .L0 
    65d0     65d0        0     1                 .L0 
    65e8     65e8        0     1                 .L0 
    6600     6600        0     1                 .L0 
    6628     6628        0     1                 .L0 
    6648     6648        0     1                 .L0 
    6660     6660        0     1                 .L0 
    6678     6678        0     1                 .L0 
    66b8     66b8        0     1                 .L0 
    66f0     66f0        0     1                 .L0 
    6708     6708        0     1                 .L0 
    6738     6738        0     1                 .L0 
    6750     6750        0     1                 .L0 
    6780     6780        0     1                 .L0 
    67a0     67a0        0     1                 .L0 
    67b8     67b8        0     1                 .L0 
    67d0     67d0        0     1                 .L0 
    67e8     67e8        0     1                 .L0 
    6800     6800        0     1                 .L0 
    6818     6818        0     1                 .L0 
    6838     6838        0     1                 .L0 
    6850     6850        0     1                 .L0 
    6868     6868        0     1                 .L0 
    6880     6880        0     1                 .L0 
    6898     6898        0     1                 .L0 
    68b0     68b0        0     1                 .L0 
    68c8     68c8        0     1                 .L0 
    68e8     68e8        0     1                 .L0 
    6908     6908        0     1                 .L0 
    6920     6920        0     1                 .L0 
    6940     6940        0     1                 .L0 
    6960     6960        0     1                 .L0 
    6978     6978        0     1                 .L0 
    6990     6990        0     1                 .L0 
    69b0     69b0        0     1                 .L0 
    69c8     69c8        0     1                 .L0 
    69e0     69e0        0     1                 .L0 
    69f8     69f8        0     1                 .L0 
    6a30     6a30        0     1                 .L0 
    6a60     6a60        0     1                 .L0 
    6a98     6a98        0     1                 .L0 
    6ac8     6ac8        0     1                 .L0 
    6ae0     6ae0        0     1                 .L0 
    6b00     6b00        0     1                 .L0 
    6b60     6b60        0     1                 .L0 
    6bc0     6bc0        0     1                 .L0 
    6c18     6c18        0     1                 .L0 
    6c30     6c30        0     1                 .L0 
    6c48     6c48        0     1                 .L0 
    6ca0     6ca0        0     1                 .L0 
    6d00     6d00        0     1                 .L0 
    6d58     6d58        0     1                 .L0 
    6d70     6d70        0     1                 .L0 
    6d88     6d88        0     1                 .L0 
    6da0     6da0        0     1                 .L0 
    6db8     6db8        0     1                 .L0 
    6dd0     6dd0        0     1                 .L0 
    6e08     6e08        0     1                 .L0 
    6e30     6e30        0     1                 .L0 
    6e68     6e68        0     1                 .L0 
    6e98     6e98        0     1                 .L0 
    6eb0     6eb0        0     1                 .L0 
    6ed0     6ed0        0     1                 .L0 
    6ee8     6ee8        0     1                 .L0 
    6f20     6f20        0     1                 .L0 
    6f58     6f58        0     1                 .L0 
    6f70     6f70        0     1                 .L0 
    6fa0     6fa0        0     1                 .L0 
    6fb8     6fb8        0     1                 .L0 
    6fd8     6fd8        0     1                 .L0 
    6ff0     6ff0        0     1                 .L0 
    7028     7028        0     1                 .L0 
    7060     7060        0     1                 .L0 
    7098     7098        0     1                 .L0 
    70c8     70c8        0     1                 .L0 
    70e0     70e0        0     1                 .L0 
    7100     7100        0     1                 .L0 
    7118     7118        0     1                 .L0 
    7150     7150        0     1                 .L0 
    7180     7180        0     1                 .L0 
    71b0     71b0        0     1                 .L0 
    71d8     71d8        0     1                 .L0 
    71f0     71f0        0     1                 .L0 
    7210     7210        0     1                 .L0 
    7230     7230        0     1                 .L0 
    7250     7250        0     1                 .L0 
    7268     7268        0     1                 .L0 
    7280     7280        0     1                 .L0 
    7298     7298        0     1                 .L0 
    72b8     72b8        0     1                 .L0 
    72d0     72d0        0     1                 .L0 
    72e8     72e8        0     1                 .L0 
    7300     7300        0     1                 .L0 
    7318     7318        0     1                 .L0 
    7330     7330        0     1                 .L0 
    7348     7348        0     1                 .L0 
    7368     7368        0     1                 .L0 
    7380     7380        0     1                 .L0 
    7398     7398        0     1                 .L0 
    73b0     73b0        0     1                 .L0 
    73c8     73c8        0     1                 .L0 
    73e0     73e0        0     1                 .L0 
    73f8     73f8        0     1                 .L0 
    7410     7410        0     1                 .L0 
    7428     7428        0     1                 .L0 
    7440     7440        0     1                 .L0 
    7458     7458        0     1                 .L0 
    7470     7470        0     1                 .L0 
    7488     7488        0     1                 .L0 
    74b8     74b8        0     1                 .L0 
    74e8     74e8        0     1                 .L0 
    7508     7508        0     1                 .L0 
    7530     7530        0     1                 .L0 
    7548     7548        0     1                 .L0 
    7568     7568        0     1                 .L0 
    7590     7590        0     1                 .L0 
    75a8     75a8        0     1                 .L0 
    75c0     75c0        0     1                 .L0 
    75d8     75d8        0     1                 .L0 
    75f0     75f0        0     1                 .L0 
    7608     7608        0     1                 .L0 
    7620     7620        0     1                 .L0 
    7638     7638        0     1                 .L0 
    7650     7650        0     1                 .L0 
    7668     7668        0     1                 .L0 
    7688     7688        0     1                 .L0 
    76a0     76a0        0     1                 .L0 
    76b8     76b8        0     1                 .L0 
    76e8     76e8        0     1                 .L0 
    7700     7700        0     1                 .L0 
    7718     7718        0     1                 .L0 
    7730     7730        0     1                 .L0 
    7748     7748        0     1                 .L0 
    7760     7760        0     1                 .L0 
    7778     7778        0     1                 .L0 
    7790     7790        0     1                 .L0 
    77a8     77a8        0     1                 .L0 
    77c0     77c0        0     1                 .L0 
    77d8     77d8        0     1                 .L0 
    77f8     77f8        0     1                 .L0 
    7810     7810        0     1                 .L0 
    7828     7828        0     1                 .L0 
    7840     7840        0     1                 .L0 
    7858     7858        0     1                 .L0 
    7870     7870        0     1                 .L0 
    7888     7888        0     1                 .L0 
    78a8     78a8        0     1                 .L0 
    78c0     78c0        0     1                 .L0 
    78d8     78d8        0     1                 .L0 
    78f0     78f0        0     1                 .L0 
    7908     7908        0     1                 .L0 
    7920     7920        0     1                 .L0 
    7938     7938        0     1                 .L0 
    7950     7950        0     1                 .L0 
    79c0     79c0        0     1                 .L0 
    79e8     79e8        0     1                 .L0 
    7a08     7a08        0     1                 .L0 
    7a28     7a28        0     1                 .L0 
    7a48     7a48        0     1                 .L0 
    7a70     7a70        0     1                 .L0 
    7ae0     7ae0        0     1                 .L0 
    7b10     7b10        0     1                 .L0 
    7b38     7b38        0     1                 .L0 
    7b50     7b50        0     1                 .L0 
    7b68     7b68        0     1                 .L0 
    7b90     7b90        0     1                 .L0 
    7ba8     7ba8        0     1                 .L0 
    7bc0     7bc0        0     1                 .L0 
    7bd8     7bd8        0     1                 .L0 
    7bf0     7bf0        0     1                 .L0 
    7c08     7c08        0     1                 .L0 
    7c20     7c20        0     1                 .L0 
    7c48     7c48        0     1                 .L0 
    7c60     7c60        0     1                 .L0 
    7c78     7c78        0     1                 .L0 
    7c90     7c90        0     1                 .L0 
    7cb0     7cb0        0     1                 .L0 
    7cc8     7cc8        0     1                 .L0 
    7ce0     7ce0        0     1                 .L0 
    7d08     7d08        0     1                 .L0 
    7d30     7d30        0     1                 .L0 
    7d58     7d58        0     1                 .L0 
    7d70     7d70        0     1                 .L0 
    7d88     7d88        0     1                 .L0 
    7da0     7da0        0     1                 .L0 
    7db8     7db8        0     1                 .L0 
    7dd0     7dd0        0     1                 .L0 
    7de8     7de8        0     1                 .L0 
    7e10     7e10        0     1                 .L0 
    7e28     7e28        0     1                 .L0 
    7e40     7e40        0     1                 .L0 
    7e58     7e58        0     1                 .L0 
    7e70     7e70        0     1                 .L0 
    7e88     7e88        0     1                 .L0 
    7ea8     7ea8        0     1                 .L0 
    7f08     7f08        0     1                 .L0 
    7f60     7f60        0     1                 .L0 
    7f80     7f80        0     1                 .L0 
    7fa0     7fa0        0     1                 .L0 
    7fc0     7fc0        0     1                 .L0 
    7fe0     7fe0        0     1                 .L0 
    8000     8000        0     1                 .L0 
    8020     8020        0     1                 .L0 
    8050     8050        0     1                 .L0 
    8080     8080        0     1                 .L0 
    80f8     80f8        0     1                 .L0 
    8130     8130        0     1                 .L0 
    8150     8150        0     1                 .L0 
    8168     8168        0     1                 .L0 
    8180     8180        0     1                 .L0 
    8198     8198        0     1                 .L0 
    81b0     81b0        0     1                 .L0 
    81f0     81f0        0     1                 .L0 
    8218     8218        0     1                 .L0 
    8230     8230        0     1                 .L0 
    8248     8248        0     1                 .L0 
    8260     8260        0     1                 .L0 
    8288     8288        0     1                 .L0 
    82a0     82a0        0     1                 .L0 
    82b8     82b8        0     1                 .L0 
    82d0     82d0        0     1                 .L0 
    82e8     82e8        0     1                 .L0 
    8300     8300        0     1                 .L0 
    8318     8318        0     1                 .L0 
    8338     8338        0     1                 .L0 
    8350     8350        0     1                 .L0 
    8368     8368        0     1                 .L0 
    8380     8380        0     1                 .L0 
    8398     8398        0     1                 .L0 
    83b0     83b0        0     1                 .L0 
    83d0     83d0        0     1                 .L0 
    83e8     83e8        0     1                 .L0 
    8400     8400        0     1                 .L0 
    8418     8418        0     1                 .L0 
    8438     8438        0     1                 .L0 
    8458     8458        0     1                 .L0 
    8470     8470        0     1                 .L0 
    8488     8488        0     1                 .L0 
    84a0     84a0        0     1                 .L0 
    84b8     84b8        0     1                 .L0 
    84d0     84d0        0     1                 .L0 
    84e8     84e8        0     1                 .L0 
    8500     8500        0     1                 .L0 
    8530     8530        0     1                 .L0 
    8558     8558        0     1                 .L0 
    8570     8570        0     1                 .L0 
    8588     8588        0     1                 .L0 
    85a0     85a0        0     1                 .L0 
    85b8     85b8        0     1                 .L0 
    85d0     85d0        0     1                 .L0 
    85e8     85e8        0     1                 .L0 
    8600     8600        0     1                 .L0 
    8618     8618        0     1                 .L0 
    8630     8630        0     1                 .L0 
    8648     8648        0     1                 .L0 
    8660     8660        0     1                 .L0 
    8678     8678        0     1                 .L0 
    8690     8690        0     1                 .L0 
    86b0     86b0        0     1                 .L0 
    86d0     86d0        0     1                 .L0 
    86e8     86e8        0     1                 .L0 
    8700     8700        0     1                 .L0 
    8718     8718        0     1                 .L0 
    8738     8738        0     1                 .L0 
    8750     8750        0     1                 .L0 
    8768     8768        0     1                 .L0 
    8780     8780        0     1                 .L0 
    8798     8798        0     1                 .L0 
    87c0     87c0        0     1                 .L0 
    87d8     87d8        0     1                 .L0 
    87f0     87f0        0     1                 .L0 
    8808     8808        0     1                 .L0 
    8820     8820        0     1                 .L0 
    8838     8838        0     1                 .L0 
    8850     8850        0     1                 .L0 
    8868     8868        0     1                 .L0 
    8880     8880        0     1                 .L0 
    8898     8898        0     1                 .L0 
    88b0     88b0        0     1                 .L0 
    88c8     88c8        0     1                 .L0 
    88e0     88e0        0     1                 .L0 
    8900     8900        0     1                 .L0 
    8918     8918        0     1                 .L0 
    8938     8938        0     1                 .L0 
    8950     8950        0     1                 .L0 
    8990     8990        0     1                 .L0 
    89d0     89d0        0     1                 .L0 
    89e8     89e8        0     1                 .L0 
    8a28     8a28        0     1                 .L0 
    8a48     8a48        0     1                 .L0 
    8a60     8a60        0     1                 .L0 
    8a78     8a78        0     1                 .L0 
    8a90     8a90        0     1                 .L0 
    8ab0     8ab0        0     1                 .L0 
    8ac8     8ac8        0     1                 .L0 
    8af0     8af0        0     1                 .L0 
    8b30     8b30        0     1                 .L0 
    8b50     8b50        0     1                 .L0 
    8b68     8b68        0     1                 .L0 
    8b80     8b80        0     1                 .L0 
    8ba8     8ba8        0     1                 .L0 
    8bd0     8bd0        0     1                 .L0 
    8be8     8be8        0     1                 .L0 
    8c00     8c00        0     1                 .L0 
    8c18     8c18        0     1                 .L0 
    8c30     8c30        0     1                 .L0 
    8c48     8c48        0     1                 .L0 
    8c70     8c70        0     1                 .L0 
    8c98     8c98        0     1                 .L0 
    8cb0     8cb0        0     1                 .L0 
    8cd8     8cd8        0     1                 .L0 
    8d00     8d00        0     1                 .L0 
    8d28     8d28        0     1                 .L0 
    8d40     8d40        0     1                 .L0 
    8d68     8d68        0     1                 .L0 
    8d80     8d80        0     1                 .L0 
    8da8     8da8        0     1                 .L0 
    8dd0     8dd0        0     1                 .L0 
    8de8     8de8        0     1                 .L0 
    8e10     8e10        0     1                 .L0 
    8e40     8e40        0     1                 .L0 
    8e58     8e58        0     1                 .L0 
    8e88     8e88        0     1                 .L0 
    8ec0     8ec0        0     1                 .L0 
    8ee0     8ee0        0     1                 .L0 
    8f00     8f00        0     1                 .L0 
    8f18     8f18        0     1                 .L0 
    8f30     8f30        0     1                 .L0 
    8f50     8f50        0     1                 .L0 
    8f68     8f68        0     1                 .L0 
    8f80     8f80        0     1                 .L0 
    8fa8     8fa8        0     1                 .L0 
    8fd0     8fd0        0     1                 .L0 
    8fe8     8fe8        0     1                 .L0 
    9000     9000        0     1                 .L0 
    9028     9028        0     1                 .L0 
    9040     9040        0     1                 .L0 
    9058     9058        0     1                 .L0 
    9070     9070        0     1                 .L0 
    9088     9088        0     1                 .L0 
    90a0     90a0        0     1                 .L0 
    90c0     90c0        0     1                 .L0 
    90d8     90d8        0     1                 .L0 
    90f0     90f0        0     1                 .L0 
    9110     9110        0     1                 .L0 
    9128     9128        0     1                 .L0 
    9140     9140        0     1                 .L0 
    9158     9158        0     1                 .L0 
    9180     9180        0     1                 .L0 
    91a0     91a0        0     1                 .L0 
    91b8     91b8        0     1                 .L0 
    91e8     91e8        0     1                 .L0 
    9210     9210        0     1                 .L0 
    9248     9248        0     1                 .L0 
    9268     9268        0     1                 .L0 
    92a0     92a0        0     1                 .L0 
    92b8     92b8        0     1                 .L0 
    92d0     92d0        0     1                 .L0 
    92f0     92f0        0     1                 .L0 
    9310     9310        0     1                 .L0 
    9340     9340        0     1                 .L0 
    9358     9358        0     1                 .L0 
    9378     9378        0     1                 .L0 
    9390     9390        0     1                 .L0 
    93a8     93a8        0     1                 .L0 
    93c8     93c8        0     1                 .L0 
    93e0     93e0        0     1                 .L0 
    9410     9410        0     1                 .L0 
    9438     9438        0     1                 .L0 
    9458     9458        0     1                 .L0 
    9478     9478        0     1                 .L0 
    9490     9490        0     1                 .L0 
    94a8     94a8        0     1                 .L0 
    94c0     94c0        0     1                 .L0 
    94e0     94e0        0     1                 .L0 
    94f8     94f8        0     1                 .L0 
    9510     9510        0     1                 .L0 
    9528     9528        0     1                 .L0 
    9548     9548        0     1                 .L0 
    9568     9568        0     1                 .L0 
    9580     9580        0     1                 .L0 
    9598     9598        0     1                 .L0 
    95b0     95b0        0     1                 .L0 
    95c8     95c8        0     1                 .L0 
    95e0     95e0        0     1                 .L0 
    95f8     95f8        0     1                 .L0 
    9610     9610        0     1                 .L0 
    9628     9628        0     1                 .L0 
    9640     9640        0     1                 .L0 
    9658     9658        0     1                 .L0 
    9670     9670        0     1                 .L0 
    9688     9688        0     1                 .L0 
    96a0     96a0        0     1                 .L0 
    96b8     96b8        0     1                 .L0 
    96d0     96d0        0     1                 .L0 
    96e8     96e8        0     1                 .L0 
    9700     9700        0     1                 .L0 
    9718     9718        0     1                 .L0 
    9730     9730        0     1                 .L0 
    9748     9748        0     1                 .L0 
    9760     9760        0     1                 .L0 
    9778     9778        0     1                 .L0 
    9790     9790        0     1                 .L0 
    97a8     97a8        0     1                 .L0 
    97d0     97d0        0     1                 .L0 
    97f8     97f8        0     1                 .L0 
    9810     9810        0     1                 .L0 
    9828     9828        0     1                 .L0 
    9848     9848        0     1                 .L0 
    9860     9860        0     1                 .L0 
    9878     9878        0     1                 .L0 
    9890     9890        0     1                 .L0 
    98a8     98a8        0     1                 .L0 
    98c0     98c0        0     1                 .L0 
    98d8     98d8        0     1                 .L0 
    98f0     98f0        0     1                 .L0 
    9908     9908        0     1                 .L0 
    9920     9920        0     1                 .L0 
    9938     9938        0     1                 .L0 
    9950     9950        0     1                 .L0 
    9980     9980        0     1                 .L0 
    9998     9998        0     1                 .L0 
    99c8     99c8        0     1                 .L0 
    99f0     99f0        0     1                 .L0 
    9a10     9a10        0     1                 .L0 
    9a28     9a28        0     1                 .L0 
    9a40     9a40        0     1                 .L0 
    9a58     9a58        0     1                 .L0 
    9a80     9a80        0     1                 .L0 
    9aa8     9aa8        0     1                 .L0 
    9ac8     9ac8        0     1                 .L0 
    9ae0     9ae0        0     1                 .L0 
    9b08     9b08        0     1                 .L0 
    9b28     9b28        0     1                 .L0 
    9b40     9b40        0     1                 .L0 
    9b60     9b60        0     1                 .L0 
    9b80     9b80        0     1                 .L0 
    9b98     9b98        0     1                 .L0 
    9bc0     9bc0        0     1                 .L0 
    9bf0     9bf0        0     1                 .L0 
    9c08     9c08        0     1                 .L0 
    9c20     9c20        0     1                 .L0 
    9c38     9c38        0     1                 .L0 
    9c50     9c50        0     1                 .L0 
    9c70     9c70        0     1                 .L0 
    9c88     9c88        0     1                 .L0 
    9ca0     9ca0        0     1                 .L0 
    9cb8     9cb8        0     1                 .L0 
    9cd0     9cd0        0     1                 .L0 
    9ce8     9ce8        0     1                 .L0 
    9d00     9d00        0     1                 .L0 
    9d18     9d18        0     1                 .L0 
    9d30     9d30        0     1                 .L0 
    9d48     9d48        0     1                 .L0 
    9d70     9d70        0     1                 .L0 
    9d88     9d88        0     1                 .L0 
    9da0     9da0        0     1                 .L0 
    9db8     9db8        0     1                 .L0 
    9dd0     9dd0        0     1                 .L0 
    9de8     9de8        0     1                 .L0 
    9e00     9e00        0     1                 .L0 
    9e18     9e18        0     1                 .L0 
    9e30     9e30        0     1                 .L0 
    9e48     9e48        0     1                 .L0 
    9e68     9e68        0     1                 .L0 
    9e80     9e80        0     1                 .L0 
    9e98     9e98        0     1                 .L0 
    9eb0     9eb0        0     1                 .L0 
    9ed0     9ed0        0     1                 .L0 
    9ee8     9ee8        0     1                 .L0 
    9f08     9f08        0     1                 .L0 
    9f20     9f20        0     1                 .L0 
    9f38     9f38        0     1                 .L0 
    9f50     9f50        0     1                 .L0 
    9f68     9f68        0     1                 .L0 
    9f80     9f80        0     1                 .L0 
    9f98     9f98        0     1                 .L0 
    b0e8     b0e8       18     1         /home/famous282/.rustup/toolchains/stable-x86_64-unknown-linux-gnu/lib/rustlib/riscv32imac-unknown-none-elf/lib/libcompiler_builtins-ad31f96eaed4fe7a.rlib(compiler_builtins-ad31f96eaed4fe7a.compiler_builtins.a8dbbfe33f18591e-cgu.105.rcgu.o):(.debug_ranges)
    b0e8     b0e8        0     1                 .L0 
    b0e8     b0e8        0     1                 $d
    b100     b100      168     1         /home/famous282/.rustup/toolchains/stable-x86_64-unknown-linux-gnu/lib/rustlib/riscv32imac-unknown-none-elf/lib/libcompiler_builtins-ad31f96eaed4fe7a.rlib(compiler_builtins-ad31f96eaed4fe7a.compiler_builtins.a8dbbfe33f18591e-cgu.016.rcgu.o):(.debug_ranges)
    b100     b100        0     1                 .L0 
    b100     b100        0     1                 $d
    b118     b118        0     1                 .L0 
    b138     b138        0     1                 .L0 
    b150     b150        0     1                 .L0 
    b168     b168        0     1                 .L0 
    b180     b180        0     1                 .L0 
    b1a0     b1a0        0     1                 .L0 
    b1c0     b1c0        0     1                 .L0 
    b1d8     b1d8        0     1                 .L0 
    b1f0     b1f0        0     1                 .L0 
    b208     b208        0     1                 .L0 
    b220     b220        0     1                 .L0 
    b238     b238        0     1                 .L0 
    b250     b250        0     1                 .L0 
    b268     b268       20     1         /home/famous282/.rustup/toolchains/stable-x86_64-unknown-linux-gnu/lib/rustlib/riscv32imac-unknown-none-elf/lib/libcompiler_builtins-ad31f96eaed4fe7a.rlib(compiler_builtins-ad31f96eaed4fe7a.compiler_builtins.a8dbbfe33f18591e-cgu.162.rcgu.o):(.debug_ranges)
    b268     b268        0     1                 .L0 
    b268     b268        0     1                 $d
    b288     b288       48     1         /home/famous282/.rustup/toolchains/stable-x86_64-unknown-linux-gnu/lib/rustlib/riscv32imac-unknown-none-elf/lib/libcompiler_builtins-ad31f96eaed4fe7a.rlib(compiler_builtins-ad31f96eaed4fe7a.compiler_builtins.a8dbbfe33f18591e-cgu.199.rcgu.o):(.debug_ranges)
    b288     b288        0     1                 .L0 
    b288     b288        0     1                 $d
    b2a0     b2a0        0     1                 .L0 
    b2b8     b2b8        0     1                 .L0 
    b2d0     b2d0       60     1         /home/famous282/.rustup/toolchains/stable-x86_64-unknown-linux-gnu/lib/rustlib/riscv32imac-unknown-none-elf/lib/libcompiler_builtins-ad31f96eaed4fe7a.rlib(compiler_builtins-ad31f96eaed4fe7a.compiler_builtins.a8dbbfe33f18591e-cgu.225.rcgu.o):(.debug_ranges)
    b2d0     b2d0        0     1                 .L0 
    b2d0     b2d0        0     1                 $d
    b2e8     b2e8        0     1                 .L0 
    b300     b300        0     1                 .L0 
    b318     b318        0     1                 .L0 
    b330     b330      620     1         /home/famous282/.rustup/toolchains/stable-x86_64-unknown-linux-gnu/lib/rustlib/riscv32imac-unknown-none-elf/lib/libcompiler_builtins-ad31f96eaed4fe7a.rlib(compiler_builtins-ad31f96eaed4fe7a.compiler_builtins.a8dbbfe33f18591e-cgu.003.rcgu.o):(.debug_ranges)
    b330     b330        0     1                 .L0 
    b330     b330        0     1                 $d
    b348     b348        0     1                 .L0 
    b360     b360        0     1                 .L0 
    b378     b378        0     1                 .L0 
    b390     b390        0     1                 .L0 
    b3a8     b3a8        0     1                 .L0 
    b3d8     b3d8        0     1                 .L0 
    b420     b420        0     1                 .L0 
    b478     b478        0     1                 .L0 
    b4c8     b4c8        0     1                 .L0 
    b4e0     b4e0        0     1                 .L0 
    b510     b510        0     1                 .L0 
    b528     b528        0     1                 .L0 
    b540     b540        0     1                 .L0 
    b558     b558        0     1                 .L0 
    b570     b570        0     1                 .L0 
    b588     b588        0     1                 .L0 
    b5a0     b5a0        0     1                 .L0 
    b5b8     b5b8        0     1                 .L0 
    b5d0     b5d0        0     1                 .L0 
    b5e8     b5e8        0     1                 .L0 
    b600     b600        0     1                 .L0 
    b618     b618        0     1                 .L0 
    b630     b630        0     1                 .L0 
    b678     b678        0     1                 .L0 
    b690     b690        0     1                 .L0 
    b6a8     b6a8        0     1                 .L0 
    b6c8     b6c8        0     1                 .L0 
    b6e0     b6e0        0     1                 .L0 
    b6f8     b6f8        0     1                 .L0 
    b720     b720        0     1                 .L0 
    b760     b760        0     1                 .L0 
    b778     b778        0     1                 .L0 
    b798     b798        0     1                 .L0 
    b7c0     b7c0        0     1                 .L0 
    b7d8     b7d8        0     1                 .L0 
    b7f0     b7f0        0     1                 .L0 
    b808     b808        0     1                 .L0 
    b820     b820        0     1                 .L0 
    b838     b838        0     1                 .L0 
    b850     b850        0     1                 .L0 
    b898     b898        0     1                 .L0 
    b8b0     b8b0        0     1                 .L0 
    b8c8     b8c8        0     1                 .L0 
    b8e0     b8e0        0     1                 .L0 
    b8f8     b8f8        0     1                 .L0 
    b910     b910        0     1                 .L0 
    b928     b928        0     1                 .L0 
    b950     b950      1f0     1         /home/famous282/.rustup/toolchains/stable-x86_64-unknown-linux-gnu/lib/rustlib/riscv32imac-unknown-none-elf/lib/libcompiler_builtins-ad31f96eaed4fe7a.rlib(compiler_builtins-ad31f96eaed4fe7a.compiler_builtins.a8dbbfe33f18591e-cgu.017.rcgu.o):(.debug_ranges)
    b950     b950        0     1                 .L0 
    b950     b950        0     1                 $d
    b978     b978        0     1                 .L0 
    b9c8     b9c8        0     1                 .L0 
    ba18     ba18        0     1                 .L0 
    ba70     ba70        0     1                 .L0 
    bab0     bab0        0     1                 .L0 
    baf0     baf0        0     1                 .L0 
    bb40     bb40       58     1         /home/famous282/.rustup/toolchains/stable-x86_64-unknown-linux-gnu/lib/rustlib/riscv32imac-unknown-none-elf/lib/libcompiler_builtins-ad31f96eaed4fe7a.rlib(compiler_builtins-ad31f96eaed4fe7a.compiler_builtins.a8dbbfe33f18591e-cgu.236.rcgu.o):(.debug_ranges)
    bb40     bb40        0     1                 .L0 
    bb40     bb40        0     1                 $d
    bb58     bb58        0     1                 .L0 
    bb78     bb78        0     1                 .L0 
    bb98     bb98       20     1         /home/famous282/.rustup/toolchains/stable-x86_64-unknown-linux-gnu/lib/rustlib/riscv32imac-unknown-none-elf/lib/libcompiler_builtins-ad31f96eaed4fe7a.rlib(compiler_builtins-ad31f96eaed4fe7a.compiler_builtins.a8dbbfe33f18591e-cgu.239.rcgu.o):(.debug_ranges)
    bb98     bb98        0     1                 .L0 
    bb98     bb98        0     1                 $d
    bbb8     bbb8      d30     1         /home/famous282/.rustup/toolchains/stable-x86_64-unknown-linux-gnu/lib/rustlib/riscv32imac-unknown-none-elf/lib/libcompiler_builtins-ad31f96eaed4fe7a.rlib(compiler_builtins-ad31f96eaed4fe7a.compiler_builtins.a8dbbfe33f18591e-cgu.000.rcgu.o):(.debug_ranges)
    bbb8     bbb8        0     1                 .L0 
    bbb8     bbb8        0     1                 $d
    bbd0     bbd0        0     1                 .L0 
    bbe8     bbe8        0     1                 .L0 
    bc08     bc08        0     1                 .L0 
    bc28     bc28        0     1                 .L0 
    bc48     bc48        0     1                 .L0 
    bcc8     bcc8        0     1                 .L0 
    bd48     bd48        0     1                 .L0 
    bdf0     bdf0        0     1                 .L0 
    be98     be98        0     1                 .L0 
    beb0     beb0        0     1                 .L0 
    bef0     bef0        0     1                 .L0 
    bf38     bf38        0     1                 .L0 
    bf68     bf68        0     1                 .L0 
    bfa8     bfa8        0     1                 .L0 
    c010     c010        0     1                 .L0 
    c048     c048        0     1                 .L0 
    c078     c078        0     1                 .L0 
    c0a0     c0a0        0     1                 .L0 
    c0c0     c0c0        0     1                 .L0 
    c0e0     c0e0        0     1                 .L0 
    c100     c100        0     1                 .L0 
    c118     c118        0     1                 .L0 
    c150     c150        0     1                 .L0 
    c190     c190        0     1                 .L0 
    c1b8     c1b8        0     1                 .L0 
    c1d8     c1d8        0     1                 .L0 
    c210     c210        0     1                 .L0 
    c228     c228        0     1                 .L0 
    c268     c268        0     1                 .L0 
    c280     c280        0     1                 .L0 
    c298     c298        0     1                 .L0 
    c2b8     c2b8        0     1                 .L0 
    c2d8     c2d8        0     1                 .L0 
    c2f0     c2f0        0     1                 .L0 
    c318     c318        0     1                 .L0 
    c340     c340        0     1                 .L0 
    c358     c358        0     1                 .L0 
    c3a8     c3a8        0     1                 .L0 
    c3c0     c3c0        0     1                 .L0 
    c3d8     c3d8        0     1                 .L0 
    c3f8     c3f8        0     1                 .L0 
    c410     c410        0     1                 .L0 
    c430     c430        0     1                 .L0 
    c458     c458        0     1                 .L0 
    c478     c478        0     1                 .L0 
    c490     c490        0     1                 .L0 
    c4a8     c4a8        0     1                 .L0 
    c4c0     c4c0        0     1                 .L0 
    c4d8     c4d8        0     1                 .L0 
    c4f0     c4f0        0     1                 .L0 
    c530     c530        0     1                 .L0 
    c560     c560        0     1                 .L0 
    c580     c580        0     1                 .L0 
    c598     c598        0     1                 .L0 
    c5b0     c5b0        0     1                 .L0 
    c5c8     c5c8        0     1                 .L0 
    c5e8     c5e8        0     1                 .L0 
    c608     c608        0     1                 .L0 
    c628     c628        0     1                 .L0 
    c648     c648        0     1                 .L0 
    c668     c668        0     1                 .L0 
    c680     c680        0     1                 .L0 
    c698     c698        0     1                 .L0 
    c6b0     c6b0        0     1                 .L0 
    c6c8     c6c8        0     1                 .L0 
    c6f0     c6f0        0     1                 .L0 
    c710     c710        0     1                 .L0 
    c728     c728        0     1                 .L0 
    c770     c770        0     1                 .L0 
    c788     c788        0     1                 .L0 
    c7a0     c7a0        0     1                 .L0 
    c7b8     c7b8        0     1                 .L0 
    c7d0     c7d0        0     1                 .L0 
    c7e8     c7e8        0     1                 .L0 
    c800     c800        0     1                 .L0 
    c818     c818        0     1                 .L0 
    c830     c830        0     1                 .L0 
    c848     c848        0     1                 .L0 
    c860     c860        0     1                 .L0 
    c878     c878        0     1                 .L0 
    c890     c890        0     1                 .L0 
    c8a8     c8a8        0     1                 .L0 
    c8c8     c8c8        0     1                 .L0 
    c8e8     c8e8       78     1         /home/famous282/.rustup/toolchains/stable-x86_64-unknown-linux-gnu/lib/rustlib/riscv32imac-unknown-none-elf/lib/libcompiler_builtins-ad31f96eaed4fe7a.rlib(compiler_builtins-ad31f96eaed4fe7a.compiler_builtins.a8dbbfe33f18591e-cgu.285.rcgu.o):(.debug_ranges)
    c8e8     c8e8        0     1                 .L0 
    c8e8     c8e8        0     1                 $d
    c918     c918        0     1                 .L0 
    c930     c930        0     1                 .L0 
    c948     c948        0     1                 .L0 
    c960     c960       68     1         /home/famous282/.rustup/toolchains/stable-x86_64-unknown-linux-gnu/lib/rustlib/riscv32imac-unknown-none-elf/lib/libcompiler_builtins-ad31f96eaed4fe7a.rlib(compiler_builtins-ad31f96eaed4fe7a.compiler_builtins.a8dbbfe33f18591e-cgu.300.rcgu.o):(.debug_ranges)
    c960     c960        0     1                 .L0 
    c960     c960        0     1                 $d
    c980     c980        0     1                 .L0 
    c998     c998        0     1                 .L0 
    c9b0     c9b0        0     1                 .L0 
    c9c8     c9c8       98     1         /home/famous282/.rustup/toolchains/stable-x86_64-unknown-linux-gnu/lib/rustlib/riscv32imac-unknown-none-elf/lib/libcompiler_builtins-ad31f96eaed4fe7a.rlib(compiler_builtins-ad31f96eaed4fe7a.compiler_builtins.a8dbbfe33f18591e-cgu.303.rcgu.o):(.debug_ranges)
    c9c8     c9c8        0     1                 .L0 
    c9c8     c9c8        0     1                 $d
    c9e8     c9e8        0     1                 .L0 
    ca08     ca08        0     1                 .L0 
    ca28     ca28        0     1                 .L0 
    ca48     ca48        0     1                 .L0 
    ca60     ca60       20     1         /home/famous282/.rustup/toolchains/stable-x86_64-unknown-linux-gnu/lib/rustlib/riscv32imac-unknown-none-elf/lib/libcompiler_builtins-ad31f96eaed4fe7a.rlib(compiler_builtins-ad31f96eaed4fe7a.compiler_builtins.a8dbbfe33f18591e-cgu.325.rcgu.o):(.debug_ranges)
    ca60     ca60        0     1                 .L0 
    ca60     ca60        0     1                 $d
    ca80     ca80       d8     1         /home/famous282/.rustup/toolchains/stable-x86_64-unknown-linux-gnu/lib/rustlib/riscv32imac-unknown-none-elf/lib/libcompiler_builtins-ad31f96eaed4fe7a.rlib(compiler_builtins-ad31f96eaed4fe7a.compiler_builtins.a8dbbfe33f18591e-cgu.327.rcgu.o):(.debug_ranges)
    ca80     ca80        0     1                 .L0 
    ca80     ca80        0     1                 $d
    cac0     cac0        0     1                 .L0 
    cb00     cb00        0     1                 .L0 
    cb40     cb40        0     1                 .L0 
    cb58     cb58       78     1         /home/famous282/.rustup/toolchains/stable-x86_64-unknown-linux-gnu/lib/rustlib/riscv32imac-unknown-none-elf/lib/libcompiler_builtins-ad31f96eaed4fe7a.rlib(compiler_builtins-ad31f96eaed4fe7a.compiler_builtins.a8dbbfe33f18591e-cgu.331.rcgu.o):(.debug_ranges)
    cb58     cb58        0     1                 .L0 
    cb58     cb58        0     1                 $d
    cb88     cb88        0     1                 .L0 
    cba0     cba0        0     1                 .L0 
    cbb8     cbb8        0     1                 .L0 
    cbd0     cbd0       18     1         /home/famous282/.rustup/toolchains/stable-x86_64-unknown-linux-gnu/lib/rustlib/riscv32imac-unknown-none-elf/lib/libcompiler_builtins-ad31f96eaed4fe7a.rlib(compiler_builtins-ad31f96eaed4fe7a.compiler_builtins.a8dbbfe33f18591e-cgu.332.rcgu.o):(.debug_ranges)
    cbd0     cbd0        0     1                 .L0 
    cbd0     cbd0        0     1                 $d
    cbe8     cbe8      3b0     1         /home/famous282/.rustup/toolchains/stable-x86_64-unknown-linux-gnu/lib/rustlib/riscv32imac-unknown-none-elf/lib/libcompiler_builtins-ad31f96eaed4fe7a.rlib(compiler_builtins-ad31f96eaed4fe7a.compiler_builtins.a8dbbfe33f18591e-cgu.012.rcgu.o):(.debug_ranges)
    cbe8     cbe8        0     1                 .L0 
    cbe8     cbe8        0     1                 $d
    cc00     cc00        0     1                 .L0 
    cc18     cc18        0     1                 .L0 
    cc38     cc38        0     1                 .L0 
    cc58     cc58        0     1                 .L0 
    cc70     cc70        0     1                 .L0 
    cc88     cc88        0     1                 .L0 
    cca0     cca0        0     1                 .L0 
    ccb8     ccb8        0     1                 .L0 
    ccd0     ccd0        0     1                 .L0 
    cce8     cce8        0     1                 .L0 
    cd00     cd00        0     1                 .L0 
    cd18     cd18        0     1                 .L0 
    cd48     cd48        0     1                 .L0 
    cd60     cd60        0     1                 .L0 
    cd80     cd80        0     1                 .L0 
    cda8     cda8        0     1                 .L0 
    cdc8     cdc8        0     1                 .L0 
    cde8     cde8        0     1                 .L0 
    ce00     ce00        0     1                 .L0 
    ce18     ce18        0     1                 .L0 
    ce38     ce38        0     1                 .L0 
    ce58     ce58        0     1                 .L0 
    ce80     ce80        0     1                 .L0 
    ce98     ce98        0     1                 .L0 
    ceb0     ceb0        0     1                 .L0 
    ced0     ced0        0     1                 .L0 
    cef0     cef0        0     1                 .L0 
    cf08     cf08        0     1                 .L0 
    cf20     cf20        0     1                 .L0 
    cf38     cf38        0     1                 .L0 
    cf58     cf58        0     1                 .L0 
    cf78     cf78        0     1                 .L0 
       0        0    41f52     1 .debug_str
       0        0    41f52     1         <internal>:(.debug_str)
       0        0       8b     1 .comment
       0        0       8b     1         <internal>:(.comment)
       0        0       4e     1 .riscv.attributes
       0        0       4e     1         <internal>:(.riscv.attributes)
       0        0       f8     4 .debug_frame
       0        0       40     4         /home/famous282/1000linesOS/kernel/target/riscv32imac-unknown-none-elf/debug/deps/kernel-e423684175293233.1gy28gr8yncw9yg4wm3kw95ip.0x2lq71.rcgu.o:(.debug_frame)
       0        0        0     1                 .L0 
       0        0        0     1                 $d
      40       40       24     4         /home/famous282/1000linesOS/kernel/target/riscv32imac-unknown-none-elf/debug/deps/kernel-e423684175293233.1zwa976huie3oeuiu5py3i96v.0x2lq71.rcgu.o:(.debug_frame)
      40       40        0     1                 .L0 
      40       40        0     1                 $d
      64       64       3c     4         /home/famous282/1000linesOS/kernel/target/riscv32imac-unknown-none-elf/debug/deps/kernel-e423684175293233.7hqkh35l985iompa8en7ayj8i.0x2lq71.rcgu.o:(.debug_frame)
      64       64        0     1                 .L0 
      64       64        0     1                 $d
      a0       a0       58     4         /home/famous282/1000linesOS/kernel/target/riscv32imac-unknown-none-elf/debug/deps/kernel-e423684175293233.7wj5zoa8xxs3t0yy1onealpk8.0x2lq71.rcgu.o:(.debug_frame)
      a0       a0        0     1                 .L0 
      a0       a0        0     1                 $d
       0        0    236a5     1 .debug_line
       0        0      1d0     1         /home/famous282/1000linesOS/kernel/target/riscv32imac-unknown-none-elf/debug/deps/kernel-e423684175293233.1gy28gr8yncw9yg4wm3kw95ip.0x2lq71.rcgu.o:(.debug_line)
       0        0        0     1                 .Lline_table_start0
       0        0        0     1                 $d
     1d0      1d0       3e     1         /home/famous282/1000linesOS/kernel/target/riscv32imac-unknown-none-elf/debug/deps/kernel-e423684175293233.1zwa976huie3oeuiu5py3i96v.0x2lq71.rcgu.o:(.debug_line)
     1d0      1d0        0     1                 .Lline_table_start0
     1d0      1d0        0     1                 $d
     20e      20e      195     1         /home/famous282/1000linesOS/kernel/target/riscv32imac-unknown-none-elf/debug/deps/kernel-e423684175293233.7hqkh35l985iompa8en7ayj8i.0x2lq71.rcgu.o:(.debug_line)
     20e      20e        0     1                 .Lline_table_start0
     20e      20e        0     1                 $d
     30e      30e        0     1                 .Lline_table_start1
     3a3      3a3      3fd     1         /home/famous282/1000linesOS/kernel/target/riscv32imac-unknown-none-elf/debug/deps/kernel-e423684175293233.7wj5zoa8xxs3t0yy1onealpk8.0x2lq71.rcgu.o:(.debug_line)
     3a3      3a3        0     1                 .Lline_table_start0
     3a3      3a3        0     1                 $d
     7a0      7a0    1c42e     1         /home/famous282/.rustup/toolchains/stable-x86_64-unknown-linux-gnu/lib/rustlib/riscv32imac-unknown-none-elf/lib/libcore-c6eeea32d188506f.rlib(core-c6eeea32d188506f.core.f2b050c2002e39f1-cgu.0.rcgu.o):(.debug_line)
     7a0      7a0        0     1                 .Lline_table_start0
     7a0      7a0        0     1                 $d
   1cbce    1cbce       eb     1         /home/famous282/.rustup/toolchains/stable-x86_64-unknown-linux-gnu/lib/rustlib/riscv32imac-unknown-none-elf/lib/libcompiler_builtins-ad31f96eaed4fe7a.rlib(compiler_builtins-ad31f96eaed4fe7a.compiler_builtins.a8dbbfe33f18591e-cgu.105.rcgu.o):(.debug_line)
   1cbce    1cbce        0     1                 .Lline_table_start0
   1cbce    1cbce        0     1                 $d
   1ccb9    1ccb9      118     1         /home/famous282/.rustup/toolchains/stable-x86_64-unknown-linux-gnu/lib/rustlib/riscv32imac-unknown-none-elf/lib/libcompiler_builtins-ad31f96eaed4fe7a.rlib(compiler_builtins-ad31f96eaed4fe7a.compiler_builtins.a8dbbfe33f18591e-cgu.157.rcgu.o):(.debug_line)
   1ccb9    1ccb9        0     1                 .Lline_table_start0
   1ccb9    1ccb9        0     1                 $d
   1cd76    1cd76        0     1                 .Lline_table_start1
   1cdd1    1cdd1      a08     1         /home/famous282/.rustup/toolchains/stable-x86_64-unknown-linux-gnu/lib/rustlib/riscv32imac-unknown-none-elf/lib/libcompiler_builtins-ad31f96eaed4fe7a.rlib(compiler_builtins-ad31f96eaed4fe7a.compiler_builtins.a8dbbfe33f18591e-cgu.016.rcgu.o):(.debug_line)
   1cdd1    1cdd1        0     1                 .Lline_table_start0
   1cdd1    1cdd1        0     1                 $d
   1d7d9    1d7d9      245     1         /home/famous282/.rustup/toolchains/stable-x86_64-unknown-linux-gnu/lib/rustlib/riscv32imac-unknown-none-elf/lib/libcompiler_builtins-ad31f96eaed4fe7a.rlib(compiler_builtins-ad31f96eaed4fe7a.compiler_builtins.a8dbbfe33f18591e-cgu.162.rcgu.o):(.debug_line)
   1d7d9    1d7d9        0     1                 .Lline_table_start0
   1d7d9    1d7d9        0     1                 $d
   1d949    1d949        0     1                 .Lline_table_start1
   1da1e    1da1e      2f6     1         /home/famous282/.rustup/toolchains/stable-x86_64-unknown-linux-gnu/lib/rustlib/riscv32imac-unknown-none-elf/lib/libcompiler_builtins-ad31f96eaed4fe7a.rlib(compiler_builtins-ad31f96eaed4fe7a.compiler_builtins.a8dbbfe33f18591e-cgu.199.rcgu.o):(.debug_line)
   1da1e    1da1e        0     1                 .Lline_table_start0
   1da1e    1da1e        0     1                 $d
   1dc09    1dc09        0     1                 .Lline_table_start1
   1dd14    1dd14      2b9     1         /home/famous282/.rustup/toolchains/stable-x86_64-unknown-linux-gnu/lib/rustlib/riscv32imac-unknown-none-elf/lib/libcompiler_builtins-ad31f96eaed4fe7a.rlib(compiler_builtins-ad31f96eaed4fe7a.compiler_builtins.a8dbbfe33f18591e-cgu.225.rcgu.o):(.debug_line)
   1dd14    1dd14        0     1                 .Lline_table_start0
   1dd14    1dd14        0     1                 $d
   1dec1    1dec1        0     1                 .Lline_table_start1
   1df72    1df72        0     1                 .Lline_table_start2
   1dfcd    1dfcd       6e     1         /home/famous282/.rustup/toolchains/stable-x86_64-unknown-linux-gnu/lib/rustlib/riscv32imac-unknown-none-elf/lib/libcompiler_builtins-ad31f96eaed4fe7a.rlib(compiler_builtins-ad31f96eaed4fe7a.compiler_builtins.a8dbbfe33f18591e-cgu.228.rcgu.o):(.debug_line)
   1dfcd    1dfcd        0     1                 .Lline_table_start0
   1dfcd    1dfcd        0     1                 $d
   1e03b    1e03b     125d     1         /home/famous282/.rustup/toolchains/stable-x86_64-unknown-linux-gnu/lib/rustlib/riscv32imac-unknown-none-elf/lib/libcompiler_builtins-ad31f96eaed4fe7a.rlib(compiler_builtins-ad31f96eaed4fe7a.compiler_builtins.a8dbbfe33f18591e-cgu.003.rcgu.o):(.debug_line)
   1e03b    1e03b        0     1                 .Lline_table_start0
   1e03b    1e03b        0     1                 $d
   1f151    1f151        0     1                 .Lline_table_start1
   1f1db    1f1db        0     1                 .Lline_table_start2
   1f239    1f239        0     1                 .Lline_table_start3
   1f298    1f298      6ae     1         /home/famous282/.rustup/toolchains/stable-x86_64-unknown-linux-gnu/lib/rustlib/riscv32imac-unknown-none-elf/lib/libcompiler_builtins-ad31f96eaed4fe7a.rlib(compiler_builtins-ad31f96eaed4fe7a.compiler_builtins.a8dbbfe33f18591e-cgu.017.rcgu.o):(.debug_line)
   1f298    1f298        0     1                 .Lline_table_start0
   1f298    1f298        0     1                 $d
   1f8e8    1f8e8        0     1                 .Lline_table_start1
   1f946    1f946      2c0     1         /home/famous282/.rustup/toolchains/stable-x86_64-unknown-linux-gnu/lib/rustlib/riscv32imac-unknown-none-elf/lib/libcompiler_builtins-ad31f96eaed4fe7a.rlib(compiler_builtins-ad31f96eaed4fe7a.compiler_builtins.a8dbbfe33f18591e-cgu.236.rcgu.o):(.debug_line)
   1f946    1f946        0     1                 .Lline_table_start0
   1f946    1f946        0     1                 $d
   1fafa    1fafa        0     1                 .Lline_table_start1
   1fbab    1fbab        0     1                 .Lline_table_start2
   1fc06    1fc06      245     1         /home/famous282/.rustup/toolchains/stable-x86_64-unknown-linux-gnu/lib/rustlib/riscv32imac-unknown-none-elf/lib/libcompiler_builtins-ad31f96eaed4fe7a.rlib(compiler_builtins-ad31f96eaed4fe7a.compiler_builtins.a8dbbfe33f18591e-cgu.239.rcgu.o):(.debug_line)
   1fc06    1fc06        0     1                 .Lline_table_start0
   1fc06    1fc06        0     1                 $d
   1fd76    1fd76        0     1                 .Lline_table_start1
   1fe4b    1fe4b       6e     1         /home/famous282/.rustup/toolchains/stable-x86_64-unknown-linux-gnu/lib/rustlib/riscv32imac-unknown-none-elf/lib/libcompiler_builtins-ad31f96eaed4fe7a.rlib(compiler_builtins-ad31f96eaed4fe7a.compiler_builtins.a8dbbfe33f18591e-cgu.256.rcgu.o):(.debug_line)
   1fe4b    1fe4b        0     1                 .Lline_table_start0
   1fe4b    1fe4b        0     1                 $d
   1feb9    1feb9     14de     1         /home/famous282/.rustup/toolchains/stable-x86_64-unknown-linux-gnu/lib/rustlib/riscv32imac-unknown-none-elf/lib/libcompiler_builtins-ad31f96eaed4fe7a.rlib(compiler_builtins-ad31f96eaed4fe7a.compiler_builtins.a8dbbfe33f18591e-cgu.000.rcgu.o):(.debug_line)
   1feb9    1feb9        0     1                 .Lline_table_start0
   1feb9    1feb9        0     1                 $d
   2133b    2133b        0     1                 .Lline_table_start1
   21397    21397      2d2     1         /home/famous282/.rustup/toolchains/stable-x86_64-unknown-linux-gnu/lib/rustlib/riscv32imac-unknown-none-elf/lib/libcompiler_builtins-ad31f96eaed4fe7a.rlib(compiler_builtins-ad31f96eaed4fe7a.compiler_builtins.a8dbbfe33f18591e-cgu.285.rcgu.o):(.debug_line)
   21397    21397        0     1                 .Lline_table_start0
   21397    21397        0     1                 $d
   21594    21594        0     1                 .Lline_table_start1
   21669    21669      11d     1         /home/famous282/.rustup/toolchains/stable-x86_64-unknown-linux-gnu/lib/rustlib/riscv32imac-unknown-none-elf/lib/libcompiler_builtins-ad31f96eaed4fe7a.rlib(compiler_builtins-ad31f96eaed4fe7a.compiler_builtins.a8dbbfe33f18591e-cgu.287.rcgu.o):(.debug_line)
   21669    21669        0     1                 .Lline_table_start0
   21669    21669        0     1                 $d
   2172b    2172b        0     1                 .Lline_table_start1
   21786    21786       6e     1         /home/famous282/.rustup/toolchains/stable-x86_64-unknown-linux-gnu/lib/rustlib/riscv32imac-unknown-none-elf/lib/libcompiler_builtins-ad31f96eaed4fe7a.rlib(compiler_builtins-ad31f96eaed4fe7a.compiler_builtins.a8dbbfe33f18591e-cgu.295.rcgu.o):(.debug_line)
   21786    21786        0     1                 .Lline_table_start0
   21786    21786        0     1                 $d
   217f4    217f4      2bc     1         /home/famous282/.rustup/toolchains/stable-x86_64-unknown-linux-gnu/lib/rustlib/riscv32imac-unknown-none-elf/lib/libcompiler_builtins-ad31f96eaed4fe7a.rlib(compiler_builtins-ad31f96eaed4fe7a.compiler_builtins.a8dbbfe33f18591e-cgu.300.rcgu.o):(.debug_line)
   217f4    217f4        0     1                 .Lline_table_start0
   217f4    217f4        0     1                 $d
   219db    219db        0     1                 .Lline_table_start1
   21ab0    21ab0      3a2     1         /home/famous282/.rustup/toolchains/stable-x86_64-unknown-linux-gnu/lib/rustlib/riscv32imac-unknown-none-elf/lib/libcompiler_builtins-ad31f96eaed4fe7a.rlib(compiler_builtins-ad31f96eaed4fe7a.compiler_builtins.a8dbbfe33f18591e-cgu.303.rcgu.o):(.debug_line)
   21ab0    21ab0        0     1                 .Lline_table_start0
   21ab0    21ab0        0     1                 $d
   21d1f    21d1f        0     1                 .Lline_table_start1
   21e52    21e52      118     1         /home/famous282/.rustup/toolchains/stable-x86_64-unknown-linux-gnu/lib/rustlib/riscv32imac-unknown-none-elf/lib/libcompiler_builtins-ad31f96eaed4fe7a.rlib(compiler_builtins-ad31f96eaed4fe7a.compiler_builtins.a8dbbfe33f18591e-cgu.308.rcgu.o):(.debug_line)
   21e52    21e52        0     1                 .Lline_table_start0
   21e52    21e52        0     1                 $d
   21f0f    21f0f        0     1                 .Lline_table_start1
   21f6a    21f6a      11d     1         /home/famous282/.rustup/toolchains/stable-x86_64-unknown-linux-gnu/lib/rustlib/riscv32imac-unknown-none-elf/lib/libcompiler_builtins-ad31f96eaed4fe7a.rlib(compiler_builtins-ad31f96eaed4fe7a.compiler_builtins.a8dbbfe33f18591e-cgu.315.rcgu.o):(.debug_line)
   21f6a    21f6a        0     1                 .Lline_table_start0
   21f6a    21f6a        0     1                 $d
   2202c    2202c        0     1                 .Lline_table_start1
   22087    22087      245     1         /home/famous282/.rustup/toolchains/stable-x86_64-unknown-linux-gnu/lib/rustlib/riscv32imac-unknown-none-elf/lib/libcompiler_builtins-ad31f96eaed4fe7a.rlib(compiler_builtins-ad31f96eaed4fe7a.compiler_builtins.a8dbbfe33f18591e-cgu.325.rcgu.o):(.debug_line)
   22087    22087        0     1                 .Lline_table_start0
   22087    22087        0     1                 $d
   221f7    221f7        0     1                 .Lline_table_start1
   222cc    222cc       6e     1         /home/famous282/.rustup/toolchains/stable-x86_64-unknown-linux-gnu/lib/rustlib/riscv32imac-unknown-none-elf/lib/libcompiler_builtins-ad31f96eaed4fe7a.rlib(compiler_builtins-ad31f96eaed4fe7a.compiler_builtins.a8dbbfe33f18591e-cgu.326.rcgu.o):(.debug_line)
   222cc    222cc        0     1                 .Lline_table_start0
   222cc    222cc        0     1                 $d
   2233a    2233a      474     1         /home/famous282/.rustup/toolchains/stable-x86_64-unknown-linux-gnu/lib/rustlib/riscv32imac-unknown-none-elf/lib/libcompiler_builtins-ad31f96eaed4fe7a.rlib(compiler_builtins-ad31f96eaed4fe7a.compiler_builtins.a8dbbfe33f18591e-cgu.327.rcgu.o):(.debug_line)
   2233a    2233a        0     1                 .Lline_table_start0
   2233a    2233a        0     1                 $d
   2267c    2267c        0     1                 .Lline_table_start1
   227ae    227ae      2d2     1         /home/famous282/.rustup/toolchains/stable-x86_64-unknown-linux-gnu/lib/rustlib/riscv32imac-unknown-none-elf/lib/libcompiler_builtins-ad31f96eaed4fe7a.rlib(compiler_builtins-ad31f96eaed4fe7a.compiler_builtins.a8dbbfe33f18591e-cgu.331.rcgu.o):(.debug_line)
   227ae    227ae        0     1                 .Lline_table_start0
   227ae    227ae        0     1                 $d
   229ab    229ab        0     1                 .Lline_table_start1
   22a80    22a80      230     1         /home/famous282/.rustup/toolchains/stable-x86_64-unknown-linux-gnu/lib/rustlib/riscv32imac-unknown-none-elf/lib/libcompiler_builtins-ad31f96eaed4fe7a.rlib(compiler_builtins-ad31f96eaed4fe7a.compiler_builtins.a8dbbfe33f18591e-cgu.332.rcgu.o):(.debug_line)
   22a80    22a80        0     1                 .Lline_table_start0
   22a80    22a80        0     1                 $d
   22bdb    22bdb        0     1                 .Lline_table_start1
   22cb0    22cb0       6e     1         /home/famous282/.rustup/toolchains/stable-x86_64-unknown-linux-gnu/lib/rustlib/riscv32imac-unknown-none-elf/lib/libcompiler_builtins-ad31f96eaed4fe7a.rlib(compiler_builtins-ad31f96eaed4fe7a.compiler_builtins.a8dbbfe33f18591e-cgu.351.rcgu.o):(.debug_line)
   22cb0    22cb0        0     1                 .Lline_table_start0
   22cb0    22cb0        0     1                 $d
   22d1e    22d1e      987     1         /home/famous282/.rustup/toolchains/stable-x86_64-unknown-linux-gnu/lib/rustlib/riscv32imac-unknown-none-elf/lib/libcompiler_builtins-ad31f96eaed4fe7a.rlib(compiler_builtins-ad31f96eaed4fe7a.compiler_builtins.a8dbbfe33f18591e-cgu.012.rcgu.o):(.debug_line)
   22d1e    22d1e        0     1                 .Lline_table_start0
   22d1e    22d1e        0     1                 $d
       0        0     9bf0     4 .symtab
       0        0     9bf0     4         <internal>:(.symtab)
       0        0       b9     1 .shstrtab
       0        0       b9     1         <internal>:(.shstrtab)
       0        0     3e2c     1 .strtab
       0        0     3e2c     1         <internal>:(.strtab)
