     VMA      LMA     Size Align Out     In      Symbol
       0        0 80200000     1 . = 0x80200000
80200000 80200000     105c     4 .text
80200000 80200000        c     4         /home/famous282/1000linesOS/kernel/target/riscv32imac-unknown-none-elf/debug/deps/kernel-e423684175293233.7hqkh35l985iompa8en7ayj8i.179u2fp.rcgu.o:(.text.boot)
80200000 80200000        0     1                 .Lpcrel_hi0
80200000 80200000        0     1                 $x
80200000 80200000        c     1                 boot
8020000c 8020000c        a     2         /home/famous282/1000linesOS/kernel/target/riscv32imac-unknown-none-elf/debug/deps/kernel-e423684175293233.0xglbqqcmy1h5ke8v4z244zh3.179u2fp.rcgu.o:(.text._ZN44_$LT$$RF$T$u20$as$u20$core..fmt..Display$GT$3fmt17hcfe92452accabfd8E)
8020000c 8020000c        0     1                 .L0 
8020000c 8020000c        0     1                 .L0 
8020000c 8020000c        0     1                 $x
8020000c 8020000c        0     1                 .L0 
8020000c 8020000c        a     1                 _$LT$$RF$T$u20$as$u20$core..fmt..Display$GT$::fmt::hcfe92452accabfd8
80200016 80200016       8e     2         /home/famous282/1000linesOS/kernel/target/riscv32imac-unknown-none-elf/debug/deps/kernel-e423684175293233.1gy28gr8yncw9yg4wm3kw95ip.179u2fp.rcgu.o:(.text._ZN4core3fmt5Write10write_char17h31e0d6cdd98ca089E.llvm.11468890524131549399)
80200016 80200016        0     1                 .L0 
80200016 80200016        0     1                 .L0 
80200016 80200016        0     1                 $x
80200016 80200016        0     1                 .L0 
80200016 80200016       8e     1                 core::fmt::Write::write_char::h31e0d6cdd98ca089 (.llvm.11468890524131549399)
80200020 80200020        0     1                 .L0 
80200020 80200020        0     1                 .L0 
80200024 80200024        0     1                 .L0 
80200024 80200024        0     1                 .L0 
8020002a 8020002a        0     1                 .L0 
8020002c 8020002c        0     1                 .L0 
8020002c 8020002c        0     1                 .L0 
80200030 80200030        0     1                 .L0 
80200038 80200038        0     1                 .L0 
8020003c 8020003c        0     1                 .L0 
8020003c 8020003c        0     1                 .L0 
8020003e 8020003e        0     1                 .L0 
8020004c 8020004c        0     1                 .L0 
8020004e 8020004e        0     1                 .L0 
80200052 80200052        0     1                 .L0 
80200052 80200052        0     1                 .L0 
80200056 80200056        0     1                 .L0 
8020005e 8020005e        0     1                 .L0 
8020005e 8020005e        0     1                 .L0 
80200060 80200060        0     1                 .L0 
80200072 80200072        0     1                 .L0 
80200074 80200074        0     1                 .L0 
80200082 80200082        0     1                 .L0 
80200082 80200082        0     1                 .L0 
80200094 80200094        0     1                 .L0 
802000a4 802000a4        0     1                 .L0 
802000a4 802000a4       14     2         /home/famous282/1000linesOS/kernel/target/riscv32imac-unknown-none-elf/debug/deps/kernel-e423684175293233.1gy28gr8yncw9yg4wm3kw95ip.179u2fp.rcgu.o:(.text._ZN4core3fmt5Write9write_fmt17h62d4561b3b4ed37dE)
802000a4 802000a4        0     1                 .L0 
802000a4 802000a4        0     1                 .L0 
802000a4 802000a4        0     1                 $x
802000a4 802000a4        0     1                 .L0 
802000a4 802000a4       14     1                 core::fmt::Write::write_fmt::h62d4561b3b4ed37d
802000a8 802000a8        0     1                 .L0 
802000b8 802000b8        0     1                 .L0 
802000b8 802000b8       4e     2         /home/famous282/1000linesOS/kernel/target/riscv32imac-unknown-none-elf/debug/deps/kernel-e423684175293233.1zwa976huie3oeuiu5py3i96v.179u2fp.rcgu.o:(.text._RNvCshXwFllX56pT_7___rustc17rust_begin_unwind)
802000b8 802000b8        0     1                 .L0 
802000b8 802000b8        0     1                 .L0 
802000b8 802000b8        0     1                 $x
802000b8 802000b8        0     1                 .L0 
802000b8 802000b8       4e     1                 __rustc::rust_begin_unwind
802000be 802000be        0     1                 .L0 
802000d6 802000d6        0     1                 .L0 
802000e2 802000e2        0     1                 .L0 
80200100 80200100        0     1                 .L0 
80200106 80200106        0     1                 .L0 
80200106 80200106       48     2         /home/famous282/1000linesOS/kernel/target/riscv32imac-unknown-none-elf/debug/deps/kernel-e423684175293233.5775z1s3a7kqb3rgz5lv2w5b1.179u2fp.rcgu.o:(.text.unlikely.handle_trap)
80200106 80200106        0     1                 .L0 
80200106 80200106        0     1                 .L0 
80200106 80200106        0     1                 $x
80200106 80200106        0     1                 .L0 
80200106 80200106       48     1                 handle_trap
80200108 80200108        0     1                 .L0 
8020010e 8020010e        0     1                 .L0 
80200114 80200114        0     1                 .L0 
8020011a 8020011a        0     1                 .L0 
80200124 80200124        0     1                 .L0 
80200128 80200128        0     1                 .L0 
80200134 80200134        0     1                 .L0 
8020014e 8020014e        0     1                 .L0 
8020014e 8020014e        0     1                 .L0 
80200150 80200150       96     4         /home/famous282/1000linesOS/kernel/target/riscv32imac-unknown-none-elf/debug/deps/kernel-e423684175293233.7hqkh35l985iompa8en7ayj8i.179u2fp.rcgu.o:(.text)
80200150 80200150        0     1                 trap_handler
802001e6 802001e6       5a     2         /home/famous282/1000linesOS/kernel/target/riscv32imac-unknown-none-elf/debug/deps/kernel-e423684175293233.7hqkh35l985iompa8en7ayj8i.179u2fp.rcgu.o:(.text._ZN6kernel6kernel11alloc_pages17h1279042eeb2a6977E)
802001e6 802001e6       5a     1                 kernel::kernel::alloc_pages::h1279042eeb2a6977
802001e6 802001e6        0     1                 .L0 
802001e6 802001e6        0     1                 .L0 
802001e6 802001e6        0     1                 $x
802001e6 802001e6        0     1                 .L0 
802001ee 802001ee        0     1                 .L0 
802001f0 802001f0        0     1                 .L0 
802001f6 802001f6        0     1                 .L0 
80200202 80200202        0     1                 .L0 
80200206 80200206        0     1                 .L0 
80200208 80200208        0     1                 .L0 
8020020c 8020020c        0     1                 .L0 
8020020e 8020020e        0     1                 .L0 
8020020e 8020020e        0     1                 .L0 
80200212 80200212        0     1                 .L0 
80200212 80200212        0     1                 .L0 
80200216 80200216        0     1                 .L0 
80200240 80200240        0     1                 .L0 
80200240 80200240        0     1                 .L0 
80200240 80200240       14     2         /home/famous282/1000linesOS/kernel/target/riscv32imac-unknown-none-elf/debug/deps/kernel-e423684175293233.7hqkh35l985iompa8en7ayj8i.179u2fp.rcgu.o:(.text._ZN6kernel6kernel7putchar17hfb6a7f57326cea56E)
80200240 80200240        0     1                 .L0 
80200240 80200240        0     1                 .L0 
80200240 80200240        0     1                 $x
80200240 80200240        0     1                 .L0 
80200240 80200240       14     1                 kernel::kernel::putchar::hfb6a7f57326cea56
80200254 80200254        0     1                 .L0 
80200254 80200254       c8     2         /home/famous282/1000linesOS/kernel/target/riscv32imac-unknown-none-elf/debug/deps/kernel-e423684175293233.7hqkh35l985iompa8en7ayj8i.179u2fp.rcgu.o:(.text.kernel_main)
80200254 80200254        0     1                 .L0 
80200254 80200254        0     1                 .L0 
80200254 80200254        0     1                 $x
80200254 80200254        0     1                 .L0 
80200254 80200254       c8     1                 kernel_main
8020025a 8020025a        0     1                 .L0 
8020025a 8020025a        0     1                 .L0 
8020027e 8020027e        0     1                 .L0 
8020027e 8020027e        0     1                 .L0 
80200282 80200282        0     1                 .L0 
80200284 80200284        0     1                 .L0 
80200284 80200284        0     1                 .L0 
80200288 80200288        0     1                 .L0 
8020028a 8020028a        0     1                 .L0 
8020028a 8020028a        0     1                 .L0 
8020028e 8020028e        0     1                 .L0 
8020028e 8020028e        0     1                 .L0 
8020029a 8020029a        0     1                 .L0 
802002b6 802002b6        0     1                 .L0 
802002c4 802002c4        0     1                 .L0 
802002e8 802002e8        0     1                 .L0 
8020031c 8020031c        0     1                 .L0 
8020031c 8020031c       18     2         /home/famous282/1000linesOS/kernel/target/riscv32imac-unknown-none-elf/debug/deps/kernel-e423684175293233.7wj5zoa8xxs3t0yy1onealpk8.179u2fp.rcgu.o:(.text.unlikely._ZN4core4hint21unreachable_unchecked18precondition_check17h553eca9260945490E.llvm.5727941747683799958)
8020031c 8020031c        0     1                 .L0 
8020031c 8020031c        0     1                 .L0 
8020031c 8020031c        0     1                 $x
8020031c 8020031c        0     1                 .L0 
8020031c 8020031c       18     1                 core::hint::unreachable_unchecked::precondition_check::h553eca9260945490 (.llvm.5727941747683799958)
8020031e 8020031e        0     1                 .L0 
80200334 80200334        0     1                 .L0 
80200334 80200334      116     2         /home/famous282/1000linesOS/kernel/target/riscv32imac-unknown-none-elf/debug/deps/kernel-e423684175293233.7wj5zoa8xxs3t0yy1onealpk8.179u2fp.rcgu.o:(.text._ZN60_$LT$kernel..common..Console$u20$as$u20$core..fmt..Write$GT$9write_str17h29cb7a28077f2031E)
80200334 80200334        0     1                 .L0 
80200334 80200334        0     1                 .L0 
80200334 80200334        0     1                 $x
80200334 80200334        0     1                 .L0 
80200334 80200334      116     1                 _$LT$kernel..common..Console$u20$as$u20$core..fmt..Write$GT$::write_str::h29cb7a28077f2031
80200346 80200346        0     1                 .L0 
80200346 80200346        0     1                 .L0 
80200348 80200348        0     1                 .L0 
80200348 80200348        0     1                 .L0 
80200366 80200366        0     1                 .L0 
8020036a 8020036a        0     1                 .L0 
8020036e 8020036e        0     1                 .L0 
8020036e 8020036e        0     1                 .L0 
80200372 80200372        0     1                 .L0 
80200374 80200374        0     1                 .L0 
80200376 80200376        0     1                 .L0 
80200376 80200376        0     1                 .L0 
8020037a 8020037a        0     1                 .L0 
8020037a 8020037a        0     1                 .L0 
80200382 80200382        0     1                 .L0 
80200386 80200386        0     1                 .L0 
8020038a 8020038a        0     1                 .L0 
8020038a 8020038a        0     1                 .L0 
8020038e 8020038e        0     1                 .L0 
8020038e 8020038e        0     1                 .L0 
80200392 80200392        0     1                 .L0 
80200396 80200396        0     1                 .L0 
8020039a 8020039a        0     1                 .L0 
802003a2 802003a2        0     1                 .L0 
802003a2 802003a2        0     1                 .L0 
802003a6 802003a6        0     1                 .L0 
802003a6 802003a6        0     1                 .L0 
802003aa 802003aa        0     1                 .L0 
802003ae 802003ae        0     1                 .L0 
802003b4 802003b4        0     1                 .L0 
802003be 802003be        0     1                 .L0 
802003c0 802003c0        0     1                 .L0 
802003c8 802003c8        0     1                 .L0 
802003ce 802003ce        0     1                 .L0 
802003d0 802003d0        0     1                 .L0 
802003d0 802003d0        0     1                 .L0 
802003da 802003da        0     1                 .L0 
802003da 802003da        0     1                 .L0 
802003e2 802003e2        0     1                 .L0 
802003e2 802003e2        0     1                 .L0 
802003e6 802003e6        0     1                 .L0 
802003e6 802003e6        0     1                 .L0 
802003fc 802003fc        0     1                 .L0 
8020041a 8020041a        0     1                 .L0 
8020042a 8020042a        0     1                 .L0 
8020043a 8020043a        0     1                 .L0 
8020044a 8020044a        0     1                 .L0 
8020044a 8020044a        0     1                 .L0 
8020044a 8020044a       10     2         /home/famous282/.rustup/toolchains/stable-x86_64-unknown-linux-gnu/lib/rustlib/riscv32imac-unknown-none-elf/lib/libcore-c6eeea32d188506f.rlib(core-c6eeea32d188506f.core.f2b050c2002e39f1-cgu.0.rcgu.o):(.text._ZN44_$LT$$RF$T$u20$as$u20$core..fmt..Display$GT$3fmt17h5898cbbb0fdaab9dE)
8020044a 8020044a       10     1                 _$LT$$RF$T$u20$as$u20$core..fmt..Display$GT$::fmt::h5898cbbb0fdaab9d
8020044a 8020044a        0     1                 .L0 
8020044a 8020044a        0     1                 .L0 
8020044a 8020044a        0     1                 $x
8020044a 8020044a        0     1                 .L0 
80200450 80200450        0     1                 .L0 
8020045a 8020045a        0     1                 .L0 
8020045a 8020045a      1ee     2         /home/famous282/.rustup/toolchains/stable-x86_64-unknown-linux-gnu/lib/rustlib/riscv32imac-unknown-none-elf/lib/libcore-c6eeea32d188506f.rlib(core-c6eeea32d188506f.core.f2b050c2002e39f1-cgu.0.rcgu.o):(.text._ZN4core3fmt3num3imp21_$LT$impl$u20$u32$GT$10_fmt_inner17h798662ed11497e6fE)
8020045a 8020045a      1ee     1                 core::fmt::num::imp::_$LT$impl$u20$u32$GT$::_fmt_inner::h798662ed11497e6f
8020045a 8020045a        0     1                 .L0 
8020045a 8020045a        0     1                 .L0 
8020045a 8020045a        0     1                 $x
8020045a 8020045a        0     1                 .L0 
80200478 80200478        0     1                 .L0 
8020047c 8020047c        0     1                 .L0 
802004ba 802004ba        0     1                 .L0 
802004be 802004be        0     1                 .L0 
802004ee 802004ee        0     1                 .L0 
802004f2 802004f2        0     1                 .L0 
802004f6 802004f6        0     1                 .L0 
802004fe 802004fe        0     1                 .L0 
80200502 80200502        0     1                 .L0 
80200506 80200506        0     1                 .L0 
80200518 80200518        0     1                 .L0 
8020051c 8020051c        0     1                 .L0 
80200520 80200520        0     1                 .L0 
80200528 80200528        0     1                 .L0 
8020052c 8020052c        0     1                 .L0 
80200532 80200532        0     1                 .L0 
80200538 80200538        0     1                 .L0 
8020053c 8020053c        0     1                 .L0 
80200540 80200540        0     1                 .L0 
80200544 80200544        0     1                 .L0 
8020057c 8020057c        0     1                 .L0 
80200580 80200580        0     1                 .L0 
80200584 80200584        0     1                 .L0 
8020058a 8020058a        0     1                 .L0 
8020058e 8020058e        0     1                 .L0 
80200592 80200592        0     1                 .L0 
80200596 80200596        0     1                 .L0 
8020059a 8020059a        0     1                 .L0 
802005a0 802005a0        0     1                 .L0 
802005b2 802005b2        0     1                 .L0 
80200648 80200648        0     1                 .L0 
80200648 80200648       4c     2         /home/famous282/.rustup/toolchains/stable-x86_64-unknown-linux-gnu/lib/rustlib/riscv32imac-unknown-none-elf/lib/libcore-c6eeea32d188506f.rlib(core-c6eeea32d188506f.core.f2b050c2002e39f1-cgu.0.rcgu.o):(.text._ZN4core3fmt3num3imp52_$LT$impl$u20$core..fmt..Display$u20$for$u20$u32$GT$3fmt17h3a3b01c2c200e3dfE)
80200648 80200648        0     1                 .L0 
80200648 80200648        0     1                 .L0 
80200648 80200648        0     1                 $x
80200648 80200648        0     1                 .L0 
80200648 80200648       4c     1                 core::fmt::num::imp::_$LT$impl$u20$core..fmt..Display$u20$for$u20$u32$GT$::fmt::h3a3b01c2c200e3df
80200648 80200648       4c     1                 core::fmt::num::imp::_$LT$impl$u20$core..fmt..Display$u20$for$u20$usize$GT$::fmt::h27b9f38dab907a22
8020065e 8020065e        0     1                 .L0 
8020066e 8020066e        0     1                 .L0 
80200672 80200672        0     1                 .L0 
80200694 80200694        0     1                 .L0 
80200694 80200694       58     2         /home/famous282/.rustup/toolchains/stable-x86_64-unknown-linux-gnu/lib/rustlib/riscv32imac-unknown-none-elf/lib/libcore-c6eeea32d188506f.rlib(core-c6eeea32d188506f.core.f2b050c2002e39f1-cgu.0.rcgu.o):(.text._ZN4core3fmt3num53_$LT$impl$u20$core..fmt..LowerHex$u20$for$u20$u32$GT$3fmt17hd93170c969492962E)
80200694 80200694        0     1                 .L0 
80200694 80200694        0     1                 .L0 
80200694 80200694        0     1                 $x
80200694 80200694        0     1                 .L0 
80200694 80200694       58     1                 core::fmt::num::_$LT$impl$u20$core..fmt..LowerHex$u20$for$u20$u32$GT$::fmt::hd93170c969492962
80200694 80200694       58     1                 core::fmt::num::_$LT$impl$u20$core..fmt..LowerHex$u20$for$u20$usize$GT$::fmt::h9f335f603fd24ac4
802006bc 802006bc        0     1                 .L0 
802006c0 802006c0        0     1                 .L0 
802006c4 802006c4        0     1                 .L0 
802006ec 802006ec        0     1                 .L0 
802006ec 802006ec      1d6     2         /home/famous282/.rustup/toolchains/stable-x86_64-unknown-linux-gnu/lib/rustlib/riscv32imac-unknown-none-elf/lib/libcore-c6eeea32d188506f.rlib(core-c6eeea32d188506f.core.f2b050c2002e39f1-cgu.0.rcgu.o):(.text._ZN4core3fmt5write17h08cf6cd1f1c92632E)
802006ec 802006ec        0     1                 .L0 
802006ec 802006ec        0     1                 .L0 
802006ec 802006ec        0     1                 $x
802006ec 802006ec        0     1                 .L0 
802006ec 802006ec      1d6     1                 core::fmt::write::h08cf6cd1f1c92632
8020070c 8020070c        0     1                 .L0 
80200712 80200712        0     1                 .L0 
80200712 80200712        0     1                 .L0 
80200716 80200716        0     1                 .L0 
80200716 80200716        0     1                 .L0 
8020071a 8020071a        0     1                 .L0 
8020071a 8020071a        0     1                 .L0 
8020071e 8020071e        0     1                 .L0 
80200736 80200736        0     1                 .L0 
80200736 80200736        0     1                 .L0 
8020073e 8020073e        0     1                 .L0 
80200742 80200742        0     1                 .L0 
80200752 80200752        0     1                 .L0 
80200758 80200758        0     1                 .L0 
80200758 80200758        0     1                 .L0 
8020075c 8020075c        0     1                 .L0 
8020075e 8020075e        0     1                 .L0 
80200764 80200764        0     1                 .L0 
80200764 80200764        0     1                 .L0 
80200768 80200768        0     1                 .L0 
8020076c 8020076c        0     1                 .L0 
80200770 80200770        0     1                 .L0 
80200774 80200774        0     1                 .L0 
8020077c 8020077c        0     1                 .L0 
80200780 80200780        0     1                 .L0 
80200782 80200782        0     1                 .L0 
80200784 80200784        0     1                 .L0 
8020078c 8020078c        0     1                 .L0 
80200794 80200794        0     1                 .L0 
80200794 80200794        0     1                 .L0 
802007b2 802007b2        0     1                 .L0 
802007b6 802007b6        0     1                 .L0 
802007bc 802007bc        0     1                 .L0 
802007be 802007be        0     1                 .L0 
802007c4 802007c4        0     1                 .L0 
802007c4 802007c4        0     1                 .L0 
802007d0 802007d0        0     1                 .L0 
802007d2 802007d2        0     1                 .L0 
802007da 802007da        0     1                 .L0 
802007da 802007da        0     1                 .L0 
802007e8 802007e8        0     1                 .L0 
802007f4 802007f4        0     1                 .L0 
802007f6 802007f6        0     1                 .L0 
802007f8 802007f8        0     1                 .L0 
802007fa 802007fa        0     1                 .L0 
802007fa 802007fa        0     1                 .L0 
80200806 80200806        0     1                 .L0 
80200808 80200808        0     1                 .L0 
8020080e 8020080e        0     1                 .L0 
80200810 80200810        0     1                 .L0 
80200816 80200816        0     1                 .L0 
80200816 80200816        0     1                 .L0 
80200824 80200824        0     1                 .L0 
80200826 80200826        0     1                 .L0 
8020082c 8020082c        0     1                 .L0 
80200832 80200832        0     1                 .L0 
80200832 80200832        0     1                 .L0 
80200836 80200836        0     1                 .L0 
8020083a 8020083a        0     1                 .L0 
80200842 80200842        0     1                 .L0 
80200846 80200846        0     1                 .L0 
8020085a 8020085a        0     1                 .L0 
80200860 80200860        0     1                 .L0 
80200860 80200860        0     1                 .L0 
80200866 80200866        0     1                 .L0 
80200866 80200866        0     1                 .L0 
8020086a 8020086a        0     1                 .L0 
8020086e 8020086e        0     1                 .L0 
80200876 80200876        0     1                 .L0 
8020087a 8020087a        0     1                 .L0 
8020087e 8020087e        0     1                 .L0 
802008a0 802008a0        0     1                 .L0 
802008a6 802008a6        0     1                 .L0 
802008c2 802008c2        0     1                 .L0 
802008c2 802008c2       60     2         /home/famous282/.rustup/toolchains/stable-x86_64-unknown-linux-gnu/lib/rustlib/riscv32imac-unknown-none-elf/lib/libcore-c6eeea32d188506f.rlib(core-c6eeea32d188506f.core.f2b050c2002e39f1-cgu.0.rcgu.o):(.text._ZN4core3fmt9Formatter12pad_integral12write_prefix17hbefd4732ff2afbc6E)
802008c2 802008c2       60     1                 core::fmt::Formatter::pad_integral::write_prefix::hbefd4732ff2afbc6
802008c2 802008c2        0     1                 .L0 
802008c2 802008c2        0     1                 .L0 
802008c2 802008c2        0     1                 $x
802008c2 802008c2        0     1                 .L0 
802008dc 802008dc        0     1                 .L0 
802008e0 802008e0        0     1                 .L0 
802008ee 802008ee        0     1                 .L0 
802008ee 802008ee        0     1                 .L0 
802008f0 802008f0        0     1                 .L0 
802008f2 802008f2        0     1                 .L0 
802008f4 802008f4        0     1                 .L0 
802008f8 802008f8        0     1                 .L0 
80200922 80200922        0     1                 .L0 
80200922 80200922      25e     2         /home/famous282/.rustup/toolchains/stable-x86_64-unknown-linux-gnu/lib/rustlib/riscv32imac-unknown-none-elf/lib/libcore-c6eeea32d188506f.rlib(core-c6eeea32d188506f.core.f2b050c2002e39f1-cgu.0.rcgu.o):(.text._ZN4core3fmt9Formatter12pad_integral17hadb0409c6de42a5cE)
80200922 80200922        0     1                 .L0 
80200922 80200922        0     1                 .L0 
80200922 80200922        0     1                 $x
80200922 80200922        0     1                 .L0 
80200922 80200922      25e     1                 core::fmt::Formatter::pad_integral::hadb0409c6de42a5c
8020094a 8020094a        0     1                 .L0 
8020094c 8020094c        0     1                 .L0 
8020094c 8020094c        0     1                 .L0 
8020095a 8020095a        0     1                 .L0 
8020095c 8020095c        0     1                 .L0 
80200966 80200966        0     1                 .L0 
8020096e 8020096e        0     1                 .L0 
80200970 80200970        0     1                 .L0 
80200970 80200970        0     1                 .L0 
80200974 80200974        0     1                 .L0 
80200976 80200976        0     1                 .L0 
80200976 80200976        0     1                 .L0 
8020097a 8020097a        0     1                 .L0 
80200986 80200986        0     1                 .L0 
8020098e 8020098e        0     1                 .L0 
80200990 80200990        0     1                 .L0 
80200994 80200994        0     1                 .L0 
80200994 80200994        0     1                 .L0 
8020099a 8020099a        0     1                 .L0 
8020099e 8020099e        0     1                 .L0 
802009aa 802009aa        0     1                 .L0 
802009ae 802009ae        0     1                 .L0 
802009b6 802009b6        0     1                 .L0 
802009b8 802009b8        0     1                 .L0 
802009b8 802009b8        0     1                 .L0 
802009c0 802009c0        0     1                 .L0 
802009c2 802009c2        0     1                 .L0 
802009c4 802009c4        0     1                 .L0 
802009c4 802009c4        0     1                 .L0 
802009d0 802009d0        0     1                 .L0 
802009d8 802009d8        0     1                 .L0 
802009de 802009de        0     1                 .L0 
802009e2 802009e2        0     1                 .L0 
802009fc 802009fc        0     1                 .L0 
802009fc 802009fc        0     1                 .L0 
80200a00 80200a00        0     1                 .L0 
80200a26 80200a26        0     1                 .L0 
80200a32 80200a32        0     1                 .L0 
80200a38 80200a38        0     1                 .L0 
80200a3e 80200a3e        0     1                 .L0 
80200a56 80200a56        0     1                 .L0 
80200a5e 80200a5e        0     1                 .L0 
80200a64 80200a64        0     1                 .L0 
80200a7a 80200a7a        0     1                 .L0 
80200a8c 80200a8c        0     1                 .L0 
80200a8c 80200a8c        0     1                 .L0 
80200a94 80200a94        0     1                 .L0 
80200a94 80200a94        0     1                 .L0 
80200a98 80200a98        0     1                 .L0 
80200a9a 80200a9a        0     1                 .L0 
80200aa2 80200aa2        0     1                 .L0 
80200aa2 80200aa2        0     1                 .L0 
80200aa6 80200aa6        0     1                 .L0 
80200aaa 80200aaa        0     1                 .L0 
80200aaa 80200aaa        0     1                 .L0 
80200aae 80200aae        0     1                 .L0 
80200aae 80200aae        0     1                 .L0 
80200ab8 80200ab8        0     1                 .L0 
80200ab8 80200ab8        0     1                 .L0 
80200ac6 80200ac6        0     1                 .L0 
80200ac8 80200ac8        0     1                 .L0 
80200aca 80200aca        0     1                 .L0 
80200ad8 80200ad8        0     1                 .L0 
80200af4 80200af4        0     1                 .L0 
80200af8 80200af8        0     1                 .L0 
80200afc 80200afc        0     1                 .L0 
80200afc 80200afc        0     1                 .L0 
80200b00 80200b00        0     1                 .L0 
80200b02 80200b02        0     1                 .L0 
80200b08 80200b08        0     1                 .L0 
80200b08 80200b08        0     1                 .L0 
80200b0a 80200b0a        0     1                 .L0 
80200b0a 80200b0a        0     1                 .L0 
80200b2c 80200b2c        0     1                 .L0 
80200b42 80200b42        0     1                 .L0 
80200b50 80200b50        0     1                 .L0 
80200b52 80200b52        0     1                 .L0 
80200b64 80200b64        0     1                 .L0 
80200b6c 80200b6c        0     1                 .L0 
80200b70 80200b70        0     1                 .L0 
80200b70 80200b70        0     1                 .L0 
80200b74 80200b74        0     1                 .L0 
80200b76 80200b76        0     1                 .L0 
80200b7c 80200b7c        0     1                 .L0 
80200b7c 80200b7c        0     1                 .L0 
80200b80 80200b80        0     1                 .L0 
80200b80 80200b80      1c2     2         /home/famous282/.rustup/toolchains/stable-x86_64-unknown-linux-gnu/lib/rustlib/riscv32imac-unknown-none-elf/lib/libcore-c6eeea32d188506f.rlib(core-c6eeea32d188506f.core.f2b050c2002e39f1-cgu.0.rcgu.o):(.text._ZN4core3fmt9Formatter3pad17hc840830cded8a376E)
80200b80 80200b80        0     1                 .L0 
80200b80 80200b80        0     1                 .L0 
80200b80 80200b80        0     1                 $x
80200b80 80200b80        0     1                 .L0 
80200b80 80200b80      1c2     1                 core::fmt::Formatter::pad::hc840830cded8a376
80200b9e 80200b9e        0     1                 .L0 
80200baa 80200baa        0     1                 .L0 
80200baa 80200baa        0     1                 .L0 
80200bb2 80200bb2        0     1                 .L0 
80200bb2 80200bb2        0     1                 .L0 
80200bb4 80200bb4        0     1                 .L0 
80200bb4 80200bb4        0     1                 .L0 
80200bb8 80200bb8        0     1                 .L0 
80200bba 80200bba        0     1                 .L0 
80200bba 80200bba        0     1                 .L0 
80200bbe 80200bbe        0     1                 .L0 
80200bca 80200bca        0     1                 .L0 
80200bd2 80200bd2        0     1                 .L0 
80200bd4 80200bd4        0     1                 .L0 
80200bd8 80200bd8        0     1                 .L0 
80200bd8 80200bd8        0     1                 .L0 
80200be0 80200be0        0     1                 .L0 
80200be6 80200be6        0     1                 .L0 
80200bee 80200bee        0     1                 .L0 
80200bf2 80200bf2        0     1                 .L0 
80200bf2 80200bf2        0     1                 .L0 
80200bf8 80200bf8        0     1                 .L0 
80200bf8 80200bf8        0     1                 .L0 
80200bfa 80200bfa        0     1                 .L0 
80200bfc 80200bfc        0     1                 .L0 
80200bfc 80200bfc        0     1                 .L0 
80200c00 80200c00        0     1                 .L0 
80200c00 80200c00        0     1                 .L0 
80200c04 80200c04        0     1                 .L0 
80200c18 80200c18        0     1                 .L0 
80200c1c 80200c1c        0     1                 .L0 
80200c1c 80200c1c        0     1                 .L0 
80200c20 80200c20        0     1                 .L0 
80200c22 80200c22        0     1                 .L0 
80200c28 80200c28        0     1                 .L0 
80200c28 80200c28        0     1                 .L0 
80200c2a 80200c2a        0     1                 .L0 
80200c2a 80200c2a        0     1                 .L0 
80200c2e 80200c2e        0     1                 .L0 
80200c32 80200c32        0     1                 .L0 
80200c36 80200c36        0     1                 .L0 
80200c3a 80200c3a        0     1                 .L0 
80200c3e 80200c3e        0     1                 .L0 
80200c42 80200c42        0     1                 .L0 
80200c42 80200c42        0     1                 .L0 
80200c48 80200c48        0     1                 .L0 
80200c4c 80200c4c        0     1                 .L0 
80200c4e 80200c4e        0     1                 .L0 
80200c52 80200c52        0     1                 .L0 
80200c54 80200c54        0     1                 .L0 
80200c54 80200c54        0     1                 .L0 
80200c56 80200c56        0     1                 .L0 
80200c5e 80200c5e        0     1                 .L0 
80200c86 80200c86        0     1                 .L0 
80200c96 80200c96        0     1                 .L0 
80200c96 80200c96        0     1                 .L0 
80200ca0 80200ca0        0     1                 .L0 
80200ca2 80200ca2        0     1                 .L0 
80200ca2 80200ca2        0     1                 .L0 
80200ca6 80200ca6        0     1                 .L0 
80200ca6 80200ca6        0     1                 .L0 
80200cc4 80200cc4        0     1                 .L0 
80200cc8 80200cc8        0     1                 .L0 
80200ccc 80200ccc        0     1                 .L0 
80200ccc 80200ccc        0     1                 .L0 
80200cd0 80200cd0        0     1                 .L0 
80200cd2 80200cd2        0     1                 .L0 
80200cd8 80200cd8        0     1                 .L0 
80200cd8 80200cd8        0     1                 .L0 
80200cdc 80200cdc        0     1                 .L0 
80200cdc 80200cdc        0     1                 .L0 
80200ce8 80200ce8        0     1                 .L0 
80200cea 80200cea        0     1                 .L0 
80200d0e 80200d0e        0     1                 .L0 
80200d18 80200d18        0     1                 .L0 
80200d26 80200d26        0     1                 .L0 
80200d26 80200d26        0     1                 .L0 
80200d32 80200d32        0     1                 .L0 
80200d32 80200d32        0     1                 .L0 
80200d36 80200d36        0     1                 .L0 
80200d38 80200d38        0     1                 .L0 
80200d38 80200d38        0     1                 .L0 
80200d42 80200d42        0     1                 .L0 
80200d42 80200d42      17e     2         /home/famous282/.rustup/toolchains/stable-x86_64-unknown-linux-gnu/lib/rustlib/riscv32imac-unknown-none-elf/lib/libcore-c6eeea32d188506f.rlib(core-c6eeea32d188506f.core.f2b050c2002e39f1-cgu.0.rcgu.o):(.text._ZN4core3str5count14do_count_chars17ha085528f26cab3c8E)
80200d42 80200d42        0     1                 .L0 
80200d42 80200d42        0     1                 .L0 
80200d42 80200d42        0     1                 $x
80200d42 80200d42        0     1                 .L0 
80200d42 80200d42      17e     1                 core::str::count::do_count_chars::ha085528f26cab3c8
80200d48 80200d48        0     1                 .L0 
80200d50 80200d50        0     1                 .L0 
80200d54 80200d54        0     1                 .L0 
80200d54 80200d54        0     1                 .L0 
80200d56 80200d56        0     1                 .L0 
80200d56 80200d56        0     1                 .L0 
80200d58 80200d58        0     1                 .L0 
80200d60 80200d60        0     1                 .L0 
80200d68 80200d68        0     1                 .L0 
80200d6a 80200d6a        0     1                 .L0 
80200d6e 80200d6e        0     1                 .L0 
80200d74 80200d74        0     1                 .L0 
80200d78 80200d78        0     1                 .L0 
80200d7c 80200d7c        0     1                 .L0 
80200d7c 80200d7c        0     1                 .L0 
80200d80 80200d80        0     1                 .L0 
80200d8a 80200d8a        0     1                 .L0 
80200d8a 80200d8a        0     1                 .L0 
80200d8e 80200d8e        0     1                 .L0 
80200d94 80200d94        0     1                 .L0 
80200d9c 80200d9c        0     1                 .L0 
80200d9e 80200d9e        0     1                 .L0 
80200da2 80200da2        0     1                 .L0 
80200da4 80200da4        0     1                 .L0 
80200da4 80200da4        0     1                 .L0 
80200da6 80200da6        0     1                 .L0 
80200db8 80200db8        0     1                 .L0 
80200dc0 80200dc0        0     1                 .L0 
80200dc2 80200dc2        0     1                 .L0 
80200dc6 80200dc6        0     1                 .L0 
80200dd6 80200dd6        0     1                 .L0 
80200dda 80200dda        0     1                 .L0 
80200de4 80200de4        0     1                 .L0 
80200df2 80200df2        0     1                 .L0 
80200dfa 80200dfa        0     1                 .L0 
80200dfe 80200dfe        0     1                 .L0 
80200e12 80200e12        0     1                 .L0 
80200e12 80200e12        0     1                 .L0 
80200e18 80200e18        0     1                 .L0 
80200e18 80200e18        0     1                 .L0 
80200e1e 80200e1e        0     1                 .L0 
80200e2c 80200e2c        0     1                 .L0 
80200e5e 80200e5e        0     1                 .L0 
80200e60 80200e60        0     1                 .L0 
80200e62 80200e62        0     1                 .L0 
80200e6e 80200e6e        0     1                 .L0 
80200e76 80200e76        0     1                 .L0 
80200e76 80200e76        0     1                 .L0 
80200e7c 80200e7c        0     1                 .L0 
80200e7c 80200e7c        0     1                 .L0 
80200e86 80200e86        0     1                 .L0 
80200e8e 80200e8e        0     1                 .L0 
80200e90 80200e90        0     1                 .L0 
80200e9e 80200e9e        0     1                 .L0 
80200ea0 80200ea0        0     1                 .L0 
80200ea0 80200ea0        0     1                 .L0 
80200ea4 80200ea4        0     1                 .L0 
80200ea4 80200ea4        0     1                 .L0 
80200eb0 80200eb0        0     1                 .L0 
80200ec0 80200ec0        0     1                 .L0 
80200ec0 80200ec0       1e     2         /home/famous282/.rustup/toolchains/stable-x86_64-unknown-linux-gnu/lib/rustlib/riscv32imac-unknown-none-elf/lib/libcore-c6eeea32d188506f.rlib(core-c6eeea32d188506f.core.f2b050c2002e39f1-cgu.0.rcgu.o):(.text.unlikely._ZN4core9panicking11panic_const24panic_const_add_overflow17hbaab9548facd7ec2E)
80200ec0 80200ec0        0     1                 .L0 
80200ec0 80200ec0        0     1                 .L0 
80200ec0 80200ec0        0     1                 $x
80200ec0 80200ec0        0     1                 .L0 
80200ec0 80200ec0       1e     1                 core::panicking::panic_const::panic_const_add_overflow::hbaab9548facd7ec2
80200ede 80200ede        0     1                 .L0 
80200ede 80200ede       1e     2         /home/famous282/.rustup/toolchains/stable-x86_64-unknown-linux-gnu/lib/rustlib/riscv32imac-unknown-none-elf/lib/libcore-c6eeea32d188506f.rlib(core-c6eeea32d188506f.core.f2b050c2002e39f1-cgu.0.rcgu.o):(.text.unlikely._ZN4core9panicking11panic_const24panic_const_sub_overflow17hae11a25074c61f95E)
80200ede 80200ede        0     1                 .L0 
80200ede 80200ede        0     1                 .L0 
80200ede 80200ede        0     1                 $x
80200ede 80200ede        0     1                 .L0 
80200ede 80200ede       1e     1                 core::panicking::panic_const::panic_const_sub_overflow::hae11a25074c61f95
80200efc 80200efc        0     1                 .L0 
80200efc 80200efc       3c     2         /home/famous282/.rustup/toolchains/stable-x86_64-unknown-linux-gnu/lib/rustlib/riscv32imac-unknown-none-elf/lib/libcore-c6eeea32d188506f.rlib(core-c6eeea32d188506f.core.f2b050c2002e39f1-cgu.0.rcgu.o):(.text.unlikely._ZN4core9panicking18panic_bounds_check17h8c475dbd9aaa9c2fE)
80200efc 80200efc        0     1                 .L0 
80200efc 80200efc        0     1                 .L0 
80200efc 80200efc        0     1                 $x
80200efc 80200efc        0     1                 .L0 
80200efc 80200efc       3c     1                 core::panicking::panic_bounds_check::h8c475dbd9aaa9c2f
80200f38 80200f38        0     1                 .L0 
80200f38 80200f38       30     2         /home/famous282/.rustup/toolchains/stable-x86_64-unknown-linux-gnu/lib/rustlib/riscv32imac-unknown-none-elf/lib/libcore-c6eeea32d188506f.rlib(core-c6eeea32d188506f.core.f2b050c2002e39f1-cgu.0.rcgu.o):(.text.unlikely._ZN4core9panicking18panic_nounwind_fmt17hbca8acd98a7f1dccE)
80200f38 80200f38        0     1                 .L0 
80200f38 80200f38        0     1                 .L0 
80200f38 80200f38        0     1                 $x
80200f38 80200f38        0     1                 .L0 
80200f38 80200f38       30     1                 core::panicking::panic_nounwind_fmt::hbca8acd98a7f1dcc
80200f4c 80200f4c        0     1                 .L0 
80200f68 80200f68        0     1                 .L0 
80200f68 80200f68       2e     2         /home/famous282/.rustup/toolchains/stable-x86_64-unknown-linux-gnu/lib/rustlib/riscv32imac-unknown-none-elf/lib/libcore-c6eeea32d188506f.rlib(core-c6eeea32d188506f.core.f2b050c2002e39f1-cgu.0.rcgu.o):(.text.unlikely._ZN4core9panicking9panic_fmt17hf2b467cfc0e561d3E)
80200f68 80200f68        0     1                 .L0 
80200f68 80200f68        0     1                 .L0 
80200f68 80200f68        0     1                 $x
80200f68 80200f68        0     1                 .L0 
80200f68 80200f68       2e     1                 core::panicking::panic_fmt::hf2b467cfc0e561d3
80200f7e 80200f7e        0     1                 .L0 
80200f96 80200f96        0     1                 .L0 
80200f96 80200f96       c6     2         /home/famous282/.rustup/toolchains/stable-x86_64-unknown-linux-gnu/lib/rustlib/riscv32imac-unknown-none-elf/lib/libcore-c6eeea32d188506f.rlib(core-c6eeea32d188506f.core.f2b050c2002e39f1-cgu.0.rcgu.o):(.text._ZN73_$LT$core..panic..panic_info..PanicInfo$u20$as$u20$core..fmt..Display$GT$3fmt17hb5a14bd6be532762E)
80200f96 80200f96        0     1                 .L0 
80200f96 80200f96        0     1                 .L0 
80200f96 80200f96        0     1                 $x
80200f96 80200f96        0     1                 .L0 
80200f96 80200f96       c6     1                 _$LT$core..panic..panic_info..PanicInfo$u20$as$u20$core..fmt..Display$GT$::fmt::hb5a14bd6be532762
80200fa8 80200fa8        0     1                 .L0 
80200fc4 80200fc4        0     1                 .L0 
80200fc4 80200fc4        0     1                 .L0 
80200fc6 80200fc6        0     1                 .L0 
80200fce 80200fce        0     1                 .L0 
80200fde 80200fde        0     1                 .L0 
80200fe2 80200fe2        0     1                 .L0 
80200ff8 80200ff8        0     1                 .L0 
80201000 80201000        0     1                 .L0 
80201008 80201008        0     1                 .L0 
80201020 80201020        0     1                 .L0 
80201020 80201020        0     1                 .L0 
80201022 80201022        0     1                 .L0 
80201022 80201022        0     1                 .L0 
80201030 80201030        0     1                 .L0 
80201030 80201030        0     1                 .L0 
80201032 80201032        0     1                 .L0 
8020103a 8020103a        0     1                 .L0 
8020105c 8020105c        0     1                 .L0 
8020105c 8020105c      559     4 .rodata
8020105c 8020105c       18     4         /home/famous282/1000linesOS/kernel/target/riscv32imac-unknown-none-elf/debug/deps/kernel-e423684175293233.1gy28gr8yncw9yg4wm3kw95ip.179u2fp.rcgu.o:(.rodata.anon.115b1549741a66689ede8b6afce1a372.0.llvm.11468890524131549399)
8020105c 8020105c        0     1                 $d
8020105c 8020105c       18     1                 anon.115b1549741a66689ede8b6afce1a372.0.llvm.11468890524131549399
80201074 80201074        e     1         /home/famous282/1000linesOS/kernel/target/riscv32imac-unknown-none-elf/debug/deps/kernel-e423684175293233.1zwa976huie3oeuiu5py3i96v.179u2fp.rcgu.o:(.rodata..Lanon.d386e10f8ffd8bb0a94322403120df25.0)
80201074 80201074        e     1                 .Lanon.d386e10f8ffd8bb0a94322403120df25.0
80201074 80201074        0     1                 $d
80201082 80201082      1dc     1         <internal>:(.rodata.str1.1)
80201260 80201260       10     4         /home/famous282/1000linesOS/kernel/target/riscv32imac-unknown-none-elf/debug/deps/kernel-e423684175293233.5775z1s3a7kqb3rgz5lv2w5b1.179u2fp.rcgu.o:(.rodata..Lanon.c6ca01c3ef7a9928a0f7f70aa5ba5c2a.2)
80201260 80201260       10     1                 .Lanon.c6ca01c3ef7a9928a0f7f70aa5ba5c2a.2
80201260 80201260        0     1                 $d
80201270 80201270       10     4         /home/famous282/1000linesOS/kernel/target/riscv32imac-unknown-none-elf/debug/deps/kernel-e423684175293233.7hqkh35l985iompa8en7ayj8i.179u2fp.rcgu.o:(.rodata..Lanon.a4f2901f9d648e2ce06a4e08b4f358ce.1)
80201270 80201270       10     1                 .Lanon.a4f2901f9d648e2ce06a4e08b4f358ce.1
80201270 80201270        0     1                 $d
80201280 80201280        d     1         /home/famous282/1000linesOS/kernel/target/riscv32imac-unknown-none-elf/debug/deps/kernel-e423684175293233.7hqkh35l985iompa8en7ayj8i.179u2fp.rcgu.o:(.rodata..Lanon.a4f2901f9d648e2ce06a4e08b4f358ce.2)
80201280 80201280        d     1                 .Lanon.a4f2901f9d648e2ce06a4e08b4f358ce.2
80201280 80201280        0     1                 $d
80201290 80201290       10     4         /home/famous282/1000linesOS/kernel/target/riscv32imac-unknown-none-elf/debug/deps/kernel-e423684175293233.7hqkh35l985iompa8en7ayj8i.179u2fp.rcgu.o:(.rodata..Lanon.a4f2901f9d648e2ce06a4e08b4f358ce.3)
80201290 80201290       10     1                 .Lanon.a4f2901f9d648e2ce06a4e08b4f358ce.3
80201290 80201290        0     1                 $d
802012a0 802012a0       10     4         /home/famous282/1000linesOS/kernel/target/riscv32imac-unknown-none-elf/debug/deps/kernel-e423684175293233.7hqkh35l985iompa8en7ayj8i.179u2fp.rcgu.o:(.rodata..Lanon.a4f2901f9d648e2ce06a4e08b4f358ce.4)
802012a0 802012a0       10     1                 .Lanon.a4f2901f9d648e2ce06a4e08b4f358ce.4
802012a0 802012a0        0     1                 $d
802012b0 802012b0        7     1         /home/famous282/1000linesOS/kernel/target/riscv32imac-unknown-none-elf/debug/deps/kernel-e423684175293233.7hqkh35l985iompa8en7ayj8i.179u2fp.rcgu.o:(.rodata..Lanon.a4f2901f9d648e2ce06a4e08b4f358ce.7)
802012b0 802012b0        7     1                 .Lanon.a4f2901f9d648e2ce06a4e08b4f358ce.7
802012b0 802012b0        0     1                 $d
802012b8 802012b8       10     4         /home/famous282/1000linesOS/kernel/target/riscv32imac-unknown-none-elf/debug/deps/kernel-e423684175293233.7hqkh35l985iompa8en7ayj8i.179u2fp.rcgu.o:(.rodata..Lanon.a4f2901f9d648e2ce06a4e08b4f358ce.8)
802012b8 802012b8       10     1                 .Lanon.a4f2901f9d648e2ce06a4e08b4f358ce.8
802012b8 802012b8        0     1                 $d
802012c8 802012c8       10     4         /home/famous282/1000linesOS/kernel/target/riscv32imac-unknown-none-elf/debug/deps/kernel-e423684175293233.7wj5zoa8xxs3t0yy1onealpk8.179u2fp.rcgu.o:(.rodata.anon.04ccc33b5066ea8aff05e46f4f19a542.1.llvm.5727941747683799958)
802012c8 802012c8        0     1                 $d
802012c8 802012c8       10     1                 anon.04ccc33b5066ea8aff05e46f4f19a542.1.llvm.5727941747683799958
802012d8 802012d8       10     4         /home/famous282/1000linesOS/kernel/target/riscv32imac-unknown-none-elf/debug/deps/kernel-e423684175293233.7wj5zoa8xxs3t0yy1onealpk8.179u2fp.rcgu.o:(.rodata.anon.04ccc33b5066ea8aff05e46f4f19a542.2.llvm.5727941747683799958)
802012d8 802012d8        0     1                 $d
802012d8 802012d8       10     1                 anon.04ccc33b5066ea8aff05e46f4f19a542.2.llvm.5727941747683799958
802012e8 802012e8       10     4         /home/famous282/1000linesOS/kernel/target/riscv32imac-unknown-none-elf/debug/deps/kernel-e423684175293233.7wj5zoa8xxs3t0yy1onealpk8.179u2fp.rcgu.o:(.rodata.anon.04ccc33b5066ea8aff05e46f4f19a542.3.llvm.5727941747683799958)
802012e8 802012e8        0     1                 $d
802012e8 802012e8       10     1                 anon.04ccc33b5066ea8aff05e46f4f19a542.3.llvm.5727941747683799958
802012f8 802012f8       ae     1         /home/famous282/1000linesOS/kernel/target/riscv32imac-unknown-none-elf/debug/deps/kernel-e423684175293233.7wj5zoa8xxs3t0yy1onealpk8.179u2fp.rcgu.o:(.rodata.anon.04ccc33b5066ea8aff05e46f4f19a542.4.llvm.5727941747683799958)
802012f8 802012f8        0     1                 $d
802012f8 802012f8       ae     1                 anon.04ccc33b5066ea8aff05e46f4f19a542.4.llvm.5727941747683799958
802013a6 802013a6       c7     1         /home/famous282/1000linesOS/kernel/target/riscv32imac-unknown-none-elf/debug/deps/kernel-e423684175293233.7wj5zoa8xxs3t0yy1onealpk8.179u2fp.rcgu.o:(.rodata.anon.04ccc33b5066ea8aff05e46f4f19a542.5.llvm.5727941747683799958)
802013a6 802013a6        0     1                 $d
802013a6 802013a6       c7     1                 anon.04ccc33b5066ea8aff05e46f4f19a542.5.llvm.5727941747683799958
80201470 80201470       10     4         /home/famous282/1000linesOS/kernel/target/riscv32imac-unknown-none-elf/debug/deps/kernel-e423684175293233.7wj5zoa8xxs3t0yy1onealpk8.179u2fp.rcgu.o:(.rodata.anon.04ccc33b5066ea8aff05e46f4f19a542.7.llvm.5727941747683799958)
80201470 80201470        0     1                 $d
80201470 80201470       10     1                 anon.04ccc33b5066ea8aff05e46f4f19a542.7.llvm.5727941747683799958
80201480 80201480       c8     1         /home/famous282/.rustup/toolchains/stable-x86_64-unknown-linux-gnu/lib/rustlib/riscv32imac-unknown-none-elf/lib/libcore-c6eeea32d188506f.rlib(core-c6eeea32d188506f.core.f2b050c2002e39f1-cgu.0.rcgu.o):(.rodata..Lanon.f74838b38e70b6e7b417ca0660cf6a38.14)
80201480 80201480       c8     1                 .Lanon.f74838b38e70b6e7b417ca0660cf6a38.14
80201480 80201480        0     1                 $d
80201548 80201548       10     4         /home/famous282/.rustup/toolchains/stable-x86_64-unknown-linux-gnu/lib/rustlib/riscv32imac-unknown-none-elf/lib/libcore-c6eeea32d188506f.rlib(core-c6eeea32d188506f.core.f2b050c2002e39f1-cgu.0.rcgu.o):(.rodata..Lanon.f74838b38e70b6e7b417ca0660cf6a38.26)
80201548 80201548       10     1                 .Lanon.f74838b38e70b6e7b417ca0660cf6a38.26
80201548 80201548        0     1                 $d
80201558 80201558       10     2         <internal>:(.rodata.cst16)
80201568 80201568        2     1         /home/famous282/.rustup/toolchains/stable-x86_64-unknown-linux-gnu/lib/rustlib/riscv32imac-unknown-none-elf/lib/libcore-c6eeea32d188506f.rlib(core-c6eeea32d188506f.core.f2b050c2002e39f1-cgu.0.rcgu.o):(.rodata..Lanon.f74838b38e70b6e7b417ca0660cf6a38.37)
80201568 80201568        2     1                 .Lanon.f74838b38e70b6e7b417ca0660cf6a38.37
80201568 80201568        0     1                 $d
8020156a 8020156a       1c     1         /home/famous282/.rustup/toolchains/stable-x86_64-unknown-linux-gnu/lib/rustlib/riscv32imac-unknown-none-elf/lib/libcore-c6eeea32d188506f.rlib(core-c6eeea32d188506f.core.f2b050c2002e39f1-cgu.0.rcgu.o):(.rodata..Lanon.f74838b38e70b6e7b417ca0660cf6a38.88)
8020156a 8020156a       1c     1                 .Lanon.f74838b38e70b6e7b417ca0660cf6a38.88
8020156a 8020156a        0     1                 $d
80201586 80201586       21     1         /home/famous282/.rustup/toolchains/stable-x86_64-unknown-linux-gnu/lib/rustlib/riscv32imac-unknown-none-elf/lib/libcore-c6eeea32d188506f.rlib(core-c6eeea32d188506f.core.f2b050c2002e39f1-cgu.0.rcgu.o):(.rodata..Lanon.f74838b38e70b6e7b417ca0660cf6a38.95)
80201586 80201586       21     1                 .Lanon.f74838b38e70b6e7b417ca0660cf6a38.95
80201586 80201586        0     1                 $d
802015a7 802015a7        c     1         /home/famous282/.rustup/toolchains/stable-x86_64-unknown-linux-gnu/lib/rustlib/riscv32imac-unknown-none-elf/lib/libcore-c6eeea32d188506f.rlib(core-c6eeea32d188506f.core.f2b050c2002e39f1-cgu.0.rcgu.o):(.rodata..Lanon.f74838b38e70b6e7b417ca0660cf6a38.408)
802015a7 802015a7        c     1                 .Lanon.f74838b38e70b6e7b417ca0660cf6a38.408
802015a7 802015a7        0     1                 $d
802015b3 802015b3        2     1         /home/famous282/.rustup/toolchains/stable-x86_64-unknown-linux-gnu/lib/rustlib/riscv32imac-unknown-none-elf/lib/libcore-c6eeea32d188506f.rlib(core-c6eeea32d188506f.core.f2b050c2002e39f1-cgu.0.rcgu.o):(.rodata..Lanon.f74838b38e70b6e7b417ca0660cf6a38.409)
802015b3 802015b3        2     1                 .Lanon.f74838b38e70b6e7b417ca0660cf6a38.409
802015b3 802015b3        0     1                 $d
802015b8 802015b8      338     4 .eh_frame
802015b8 802015b8       14     1         /home/famous282/.rustup/toolchains/stable-x86_64-unknown-linux-gnu/lib/rustlib/riscv32imac-unknown-none-elf/lib/libcore-c6eeea32d188506f.rlib(core-c6eeea32d188506f.core.f2b050c2002e39f1-cgu.0.rcgu.o):(.eh_frame+0x0)
802015cc 802015cc       14     1         /home/famous282/.rustup/toolchains/stable-x86_64-unknown-linux-gnu/lib/rustlib/riscv32imac-unknown-none-elf/lib/libcore-c6eeea32d188506f.rlib(core-c6eeea32d188506f.core.f2b050c2002e39f1-cgu.0.rcgu.o):(.eh_frame+0x300)
802015e0 802015e0       44     1         /home/famous282/.rustup/toolchains/stable-x86_64-unknown-linux-gnu/lib/rustlib/riscv32imac-unknown-none-elf/lib/libcore-c6eeea32d188506f.rlib(core-c6eeea32d188506f.core.f2b050c2002e39f1-cgu.0.rcgu.o):(.eh_frame+0x7b0)
80201624 80201624       30     1         /home/famous282/.rustup/toolchains/stable-x86_64-unknown-linux-gnu/lib/rustlib/riscv32imac-unknown-none-elf/lib/libcore-c6eeea32d188506f.rlib(core-c6eeea32d188506f.core.f2b050c2002e39f1-cgu.0.rcgu.o):(.eh_frame+0xa0c)
80201654 80201654       28     1         /home/famous282/.rustup/toolchains/stable-x86_64-unknown-linux-gnu/lib/rustlib/riscv32imac-unknown-none-elf/lib/libcore-c6eeea32d188506f.rlib(core-c6eeea32d188506f.core.f2b050c2002e39f1-cgu.0.rcgu.o):(.eh_frame+0x12bc)
8020167c 8020167c       60     1         /home/famous282/.rustup/toolchains/stable-x86_64-unknown-linux-gnu/lib/rustlib/riscv32imac-unknown-none-elf/lib/libcore-c6eeea32d188506f.rlib(core-c6eeea32d188506f.core.f2b050c2002e39f1-cgu.0.rcgu.o):(.eh_frame+0x1b3c)
802016dc 802016dc       ac     1         /home/famous282/.rustup/toolchains/stable-x86_64-unknown-linux-gnu/lib/rustlib/riscv32imac-unknown-none-elf/lib/libcore-c6eeea32d188506f.rlib(core-c6eeea32d188506f.core.f2b050c2002e39f1-cgu.0.rcgu.o):(.eh_frame+0x1fe0)
80201788 80201788       64     1         /home/famous282/.rustup/toolchains/stable-x86_64-unknown-linux-gnu/lib/rustlib/riscv32imac-unknown-none-elf/lib/libcore-c6eeea32d188506f.rlib(core-c6eeea32d188506f.core.f2b050c2002e39f1-cgu.0.rcgu.o):(.eh_frame+0x248c)
802017ec 802017ec       28     1         /home/famous282/.rustup/toolchains/stable-x86_64-unknown-linux-gnu/lib/rustlib/riscv32imac-unknown-none-elf/lib/libcore-c6eeea32d188506f.rlib(core-c6eeea32d188506f.core.f2b050c2002e39f1-cgu.0.rcgu.o):(.eh_frame+0x3838)
80201814 80201814       20     1         /home/famous282/.rustup/toolchains/stable-x86_64-unknown-linux-gnu/lib/rustlib/riscv32imac-unknown-none-elf/lib/libcore-c6eeea32d188506f.rlib(core-c6eeea32d188506f.core.f2b050c2002e39f1-cgu.0.rcgu.o):(.eh_frame+0x3e98)
80201834 80201834       20     1         /home/famous282/.rustup/toolchains/stable-x86_64-unknown-linux-gnu/lib/rustlib/riscv32imac-unknown-none-elf/lib/libcore-c6eeea32d188506f.rlib(core-c6eeea32d188506f.core.f2b050c2002e39f1-cgu.0.rcgu.o):(.eh_frame+0x3f78)
80201854 80201854       40     1         /home/famous282/.rustup/toolchains/stable-x86_64-unknown-linux-gnu/lib/rustlib/riscv32imac-unknown-none-elf/lib/libcore-c6eeea32d188506f.rlib(core-c6eeea32d188506f.core.f2b050c2002e39f1-cgu.0.rcgu.o):(.eh_frame+0x41b8)
80201894 80201894       20     1         /home/famous282/.rustup/toolchains/stable-x86_64-unknown-linux-gnu/lib/rustlib/riscv32imac-unknown-none-elf/lib/libcore-c6eeea32d188506f.rlib(core-c6eeea32d188506f.core.f2b050c2002e39f1-cgu.0.rcgu.o):(.eh_frame+0x42d8)
802018b4 802018b4       38     1         /home/famous282/.rustup/toolchains/stable-x86_64-unknown-linux-gnu/lib/rustlib/riscv32imac-unknown-none-elf/lib/libcore-c6eeea32d188506f.rlib(core-c6eeea32d188506f.core.f2b050c2002e39f1-cgu.0.rcgu.o):(.eh_frame+0x51d4)
802018f0 802018f0        4     4 .bss
802018f0 802018f0        0     1         __bss = .
802018f0 802018f0        4     4         /home/famous282/1000linesOS/kernel/target/riscv32imac-unknown-none-elf/debug/deps/kernel-e423684175293233.7hqkh35l985iompa8en7ayj8i.179u2fp.rcgu.o:(.bss._ZN6kernel6kernel10NEXT_PADDR17hd94a3e5e61b0a126E.0)
802018f0 802018f0        4     1                 kernel::kernel::NEXT_PADDR::hd94a3e5e61b0a126 (.0)
802018f0 802018f0        0     1                 $d
802018f4 802018f4        0     1         __bss_end = .
802018f4 802018f4        0     1 . = ALIGN(4)
802018f4 802018f4    20000     1 . += 128 * 1024
802218f4 802218f4        0     1 __stack_top = .
802218f4 802218f4      70c     1 . = ALIGN(4096)
80222000 80222000        0     1 __free_ram = .
80222000 80222000  4000000     1 . += 64 * 1024 * 1024
84222000 84222000        0     1 __free_ram_end = .
       0        0      8f2     1 .debug_loc
       0        0       13     1         /home/famous282/1000linesOS/kernel/target/riscv32imac-unknown-none-elf/debug/deps/kernel-e423684175293233.0xglbqqcmy1h5ke8v4z244zh3.179u2fp.rcgu.o:(.debug_loc)
       0        0        0     1                 .L0 
       0        0        0     1                 $d
      13       13      29a     1         /home/famous282/1000linesOS/kernel/target/riscv32imac-unknown-none-elf/debug/deps/kernel-e423684175293233.1gy28gr8yncw9yg4wm3kw95ip.179u2fp.rcgu.o:(.debug_loc)
      13       13        0     1                 .L0 
      13       13        0     1                 $d
      2e       2e        0     1                 .L0 
      5f       5f        0     1                 .L0 
      90       90        0     1                 .L0 
      b3       b3        0     1                 .L0 
      e4       e4        0     1                 .L0 
     115      115        0     1                 .L0 
     138      138        0     1                 .L0 
     154      154        0     1                 .L0 
     185      185        0     1                 .L0 
     1af      1af        0     1                 .L0 
     1cb      1cb        0     1                 .L0 
     1fc      1fc        0     1                 .L0 
     217      217        0     1                 .L0 
     232      232        0     1                 .L0 
     24d      24d        0     1                 .L0 
     28d      28d        0     1                 .L0 
     2ad      2ad      101     1         /home/famous282/1000linesOS/kernel/target/riscv32imac-unknown-none-elf/debug/deps/kernel-e423684175293233.1zwa976huie3oeuiu5py3i96v.179u2fp.rcgu.o:(.debug_loc)
     2ad      2ad        0     1                 .L0 
     2ad      2ad        0     1                 $d
     2e6      2e6        0     1                 .L0 
     31f      31f        0     1                 .L0 
     358      358        0     1                 .L0 
     383      383        0     1                 .L0 
     3ae      3ae       36     1         /home/famous282/1000linesOS/kernel/target/riscv32imac-unknown-none-elf/debug/deps/kernel-e423684175293233.5775z1s3a7kqb3rgz5lv2w5b1.179u2fp.rcgu.o:(.debug_loc)
     3ae      3ae        0     1                 .L0 
     3ae      3ae        0     1                 $d
     3c9      3c9        0     1                 .L0 
     3e4      3e4      152     1         /home/famous282/1000linesOS/kernel/target/riscv32imac-unknown-none-elf/debug/deps/kernel-e423684175293233.7hqkh35l985iompa8en7ayj8i.179u2fp.rcgu.o:(.debug_loc)
     3e4      3e4        0     1                 .L0 
     3e4      3e4        0     1                 $d
     3ff      3ff        0     1                 .L0 
     430      430        0     1                 .L0 
     44b      44b        0     1                 .L0 
     466      466        0     1                 .L0 
     48c      48c        0     1                 .L0 
     4a7      4a7        0     1                 .L0 
     4e5      4e5        0     1                 .L0 
     500      500        0     1                 .L0 
     51b      51b        0     1                 .L0 
     536      536      3bc     1         /home/famous282/1000linesOS/kernel/target/riscv32imac-unknown-none-elf/debug/deps/kernel-e423684175293233.7wj5zoa8xxs3t0yy1onealpk8.179u2fp.rcgu.o:(.debug_loc)
     536      536        0     1                 .L0 
     536      536        0     1                 $d
     57d      57d        0     1                 .L0 
     598      598        0     1                 .L0 
     5c8      5c8        0     1                 .L0 
     6c0      6c0        0     1                 .L0 
     6e6      6e6        0     1                 .L0 
     717      717        0     1                 .L0 
     73d      73d        0     1                 .L0 
     758      758        0     1                 .L0 
     773      773        0     1                 .L0 
     78e      78e        0     1                 .L0 
     7bf      7bf        0     1                 .L0 
     7ff      7ff        0     1                 .L0 
     825      825        0     1                 .L0 
     84b      84b        0     1                 .L0 
     871      871        0     1                 .L0 
     897      897        0     1                 .L0 
     8bd      8bd        0     1                 .L0 
       0        0     1f95     1 .debug_abbrev
       0        0      114     1         /home/famous282/1000linesOS/kernel/target/riscv32imac-unknown-none-elf/debug/deps/kernel-e423684175293233.0xglbqqcmy1h5ke8v4z244zh3.179u2fp.rcgu.o:(.debug_abbrev)
       0        0        0     1                 $d
     114      114      1f2     1         /home/famous282/1000linesOS/kernel/target/riscv32imac-unknown-none-elf/debug/deps/kernel-e423684175293233.1gy28gr8yncw9yg4wm3kw95ip.179u2fp.rcgu.o:(.debug_abbrev)
     114      114        0     1                 $d
     306      306      1e3     1         /home/famous282/1000linesOS/kernel/target/riscv32imac-unknown-none-elf/debug/deps/kernel-e423684175293233.1zwa976huie3oeuiu5py3i96v.179u2fp.rcgu.o:(.debug_abbrev)
     306      306        0     1                 $d
     4e9      4e9      12b     1         /home/famous282/1000linesOS/kernel/target/riscv32imac-unknown-none-elf/debug/deps/kernel-e423684175293233.5775z1s3a7kqb3rgz5lv2w5b1.179u2fp.rcgu.o:(.debug_abbrev)
     4e9      4e9        0     1                 $d
     614      614      284     1         /home/famous282/1000linesOS/kernel/target/riscv32imac-unknown-none-elf/debug/deps/kernel-e423684175293233.7hqkh35l985iompa8en7ayj8i.179u2fp.rcgu.o:(.debug_abbrev)
     614      614        0     1                 $d
     898      898      273     1         /home/famous282/1000linesOS/kernel/target/riscv32imac-unknown-none-elf/debug/deps/kernel-e423684175293233.7wj5zoa8xxs3t0yy1onealpk8.179u2fp.rcgu.o:(.debug_abbrev)
     898      898        0     1                 $d
     b0b      b0b      312     1         /home/famous282/.rustup/toolchains/stable-x86_64-unknown-linux-gnu/lib/rustlib/riscv32imac-unknown-none-elf/lib/libcore-c6eeea32d188506f.rlib(core-c6eeea32d188506f.core.f2b050c2002e39f1-cgu.0.rcgu.o):(.debug_abbrev)
     b0b      b0b        0     1                 $d
     e1d      e1d       5b     1         /home/famous282/.rustup/toolchains/stable-x86_64-unknown-linux-gnu/lib/rustlib/riscv32imac-unknown-none-elf/lib/libcompiler_builtins-ad31f96eaed4fe7a.rlib(compiler_builtins-ad31f96eaed4fe7a.compiler_builtins.a8dbbfe33f18591e-cgu.105.rcgu.o):(.debug_abbrev)
     e1d      e1d        0     1                 $d
     e78      e78       5f     1         /home/famous282/.rustup/toolchains/stable-x86_64-unknown-linux-gnu/lib/rustlib/riscv32imac-unknown-none-elf/lib/libcompiler_builtins-ad31f96eaed4fe7a.rlib(compiler_builtins-ad31f96eaed4fe7a.compiler_builtins.a8dbbfe33f18591e-cgu.157.rcgu.o):(.debug_abbrev)
     e78      e78        0     1                 $d
     ed7      ed7       a8     1         /home/famous282/.rustup/toolchains/stable-x86_64-unknown-linux-gnu/lib/rustlib/riscv32imac-unknown-none-elf/lib/libcompiler_builtins-ad31f96eaed4fe7a.rlib(compiler_builtins-ad31f96eaed4fe7a.compiler_builtins.a8dbbfe33f18591e-cgu.016.rcgu.o):(.debug_abbrev)
     ed7      ed7        0     1                 $d
     f7f      f7f       aa     1         /home/famous282/.rustup/toolchains/stable-x86_64-unknown-linux-gnu/lib/rustlib/riscv32imac-unknown-none-elf/lib/libcompiler_builtins-ad31f96eaed4fe7a.rlib(compiler_builtins-ad31f96eaed4fe7a.compiler_builtins.a8dbbfe33f18591e-cgu.162.rcgu.o):(.debug_abbrev)
     f7f      f7f        0     1                 $d
    1029     1029       e9     1         /home/famous282/.rustup/toolchains/stable-x86_64-unknown-linux-gnu/lib/rustlib/riscv32imac-unknown-none-elf/lib/libcompiler_builtins-ad31f96eaed4fe7a.rlib(compiler_builtins-ad31f96eaed4fe7a.compiler_builtins.a8dbbfe33f18591e-cgu.199.rcgu.o):(.debug_abbrev)
    1029     1029        0     1                 $d
    1112     1112       cf     1         /home/famous282/.rustup/toolchains/stable-x86_64-unknown-linux-gnu/lib/rustlib/riscv32imac-unknown-none-elf/lib/libcompiler_builtins-ad31f96eaed4fe7a.rlib(compiler_builtins-ad31f96eaed4fe7a.compiler_builtins.a8dbbfe33f18591e-cgu.225.rcgu.o):(.debug_abbrev)
    1112     1112        0     1                 $d
    11e1     11e1       2e     1         /home/famous282/.rustup/toolchains/stable-x86_64-unknown-linux-gnu/lib/rustlib/riscv32imac-unknown-none-elf/lib/libcompiler_builtins-ad31f96eaed4fe7a.rlib(compiler_builtins-ad31f96eaed4fe7a.compiler_builtins.a8dbbfe33f18591e-cgu.228.rcgu.o):(.debug_abbrev)
    11e1     11e1        0     1                 $d
    120f     120f      134     1         /home/famous282/.rustup/toolchains/stable-x86_64-unknown-linux-gnu/lib/rustlib/riscv32imac-unknown-none-elf/lib/libcompiler_builtins-ad31f96eaed4fe7a.rlib(compiler_builtins-ad31f96eaed4fe7a.compiler_builtins.a8dbbfe33f18591e-cgu.003.rcgu.o):(.debug_abbrev)
    120f     120f        0     1                 $d
    1343     1343      181     1         /home/famous282/.rustup/toolchains/stable-x86_64-unknown-linux-gnu/lib/rustlib/riscv32imac-unknown-none-elf/lib/libcompiler_builtins-ad31f96eaed4fe7a.rlib(compiler_builtins-ad31f96eaed4fe7a.compiler_builtins.a8dbbfe33f18591e-cgu.017.rcgu.o):(.debug_abbrev)
    1343     1343        0     1                 $d
    14c4     14c4       e0     1         /home/famous282/.rustup/toolchains/stable-x86_64-unknown-linux-gnu/lib/rustlib/riscv32imac-unknown-none-elf/lib/libcompiler_builtins-ad31f96eaed4fe7a.rlib(compiler_builtins-ad31f96eaed4fe7a.compiler_builtins.a8dbbfe33f18591e-cgu.236.rcgu.o):(.debug_abbrev)
    14c4     14c4        0     1                 $d
    15a4     15a4       aa     1         /home/famous282/.rustup/toolchains/stable-x86_64-unknown-linux-gnu/lib/rustlib/riscv32imac-unknown-none-elf/lib/libcompiler_builtins-ad31f96eaed4fe7a.rlib(compiler_builtins-ad31f96eaed4fe7a.compiler_builtins.a8dbbfe33f18591e-cgu.239.rcgu.o):(.debug_abbrev)
    15a4     15a4        0     1                 $d
    164e     164e       2e     1         /home/famous282/.rustup/toolchains/stable-x86_64-unknown-linux-gnu/lib/rustlib/riscv32imac-unknown-none-elf/lib/libcompiler_builtins-ad31f96eaed4fe7a.rlib(compiler_builtins-ad31f96eaed4fe7a.compiler_builtins.a8dbbfe33f18591e-cgu.256.rcgu.o):(.debug_abbrev)
    164e     164e        0     1                 $d
    167c     167c      14e     1         /home/famous282/.rustup/toolchains/stable-x86_64-unknown-linux-gnu/lib/rustlib/riscv32imac-unknown-none-elf/lib/libcompiler_builtins-ad31f96eaed4fe7a.rlib(compiler_builtins-ad31f96eaed4fe7a.compiler_builtins.a8dbbfe33f18591e-cgu.000.rcgu.o):(.debug_abbrev)
    167c     167c        0     1                 $d
    17ca     17ca       b9     1         /home/famous282/.rustup/toolchains/stable-x86_64-unknown-linux-gnu/lib/rustlib/riscv32imac-unknown-none-elf/lib/libcompiler_builtins-ad31f96eaed4fe7a.rlib(compiler_builtins-ad31f96eaed4fe7a.compiler_builtins.a8dbbfe33f18591e-cgu.285.rcgu.o):(.debug_abbrev)
    17ca     17ca        0     1                 $d
    1883     1883       5f     1         /home/famous282/.rustup/toolchains/stable-x86_64-unknown-linux-gnu/lib/rustlib/riscv32imac-unknown-none-elf/lib/libcompiler_builtins-ad31f96eaed4fe7a.rlib(compiler_builtins-ad31f96eaed4fe7a.compiler_builtins.a8dbbfe33f18591e-cgu.287.rcgu.o):(.debug_abbrev)
    1883     1883        0     1                 $d
    18e2     18e2       2e     1         /home/famous282/.rustup/toolchains/stable-x86_64-unknown-linux-gnu/lib/rustlib/riscv32imac-unknown-none-elf/lib/libcompiler_builtins-ad31f96eaed4fe7a.rlib(compiler_builtins-ad31f96eaed4fe7a.compiler_builtins.a8dbbfe33f18591e-cgu.295.rcgu.o):(.debug_abbrev)
    18e2     18e2        0     1                 $d
    1910     1910       b9     1         /home/famous282/.rustup/toolchains/stable-x86_64-unknown-linux-gnu/lib/rustlib/riscv32imac-unknown-none-elf/lib/libcompiler_builtins-ad31f96eaed4fe7a.rlib(compiler_builtins-ad31f96eaed4fe7a.compiler_builtins.a8dbbfe33f18591e-cgu.300.rcgu.o):(.debug_abbrev)
    1910     1910        0     1                 $d
    19c9     19c9       ca     1         /home/famous282/.rustup/toolchains/stable-x86_64-unknown-linux-gnu/lib/rustlib/riscv32imac-unknown-none-elf/lib/libcompiler_builtins-ad31f96eaed4fe7a.rlib(compiler_builtins-ad31f96eaed4fe7a.compiler_builtins.a8dbbfe33f18591e-cgu.303.rcgu.o):(.debug_abbrev)
    19c9     19c9        0     1                 $d
    1a93     1a93       5f     1         /home/famous282/.rustup/toolchains/stable-x86_64-unknown-linux-gnu/lib/rustlib/riscv32imac-unknown-none-elf/lib/libcompiler_builtins-ad31f96eaed4fe7a.rlib(compiler_builtins-ad31f96eaed4fe7a.compiler_builtins.a8dbbfe33f18591e-cgu.308.rcgu.o):(.debug_abbrev)
    1a93     1a93        0     1                 $d
    1af2     1af2       5f     1         /home/famous282/.rustup/toolchains/stable-x86_64-unknown-linux-gnu/lib/rustlib/riscv32imac-unknown-none-elf/lib/libcompiler_builtins-ad31f96eaed4fe7a.rlib(compiler_builtins-ad31f96eaed4fe7a.compiler_builtins.a8dbbfe33f18591e-cgu.315.rcgu.o):(.debug_abbrev)
    1af2     1af2        0     1                 $d
    1b51     1b51       aa     1         /home/famous282/.rustup/toolchains/stable-x86_64-unknown-linux-gnu/lib/rustlib/riscv32imac-unknown-none-elf/lib/libcompiler_builtins-ad31f96eaed4fe7a.rlib(compiler_builtins-ad31f96eaed4fe7a.compiler_builtins.a8dbbfe33f18591e-cgu.325.rcgu.o):(.debug_abbrev)
    1b51     1b51        0     1                 $d
    1bfb     1bfb       2e     1         /home/famous282/.rustup/toolchains/stable-x86_64-unknown-linux-gnu/lib/rustlib/riscv32imac-unknown-none-elf/lib/libcompiler_builtins-ad31f96eaed4fe7a.rlib(compiler_builtins-ad31f96eaed4fe7a.compiler_builtins.a8dbbfe33f18591e-cgu.326.rcgu.o):(.debug_abbrev)
    1bfb     1bfb        0     1                 $d
    1c29     1c29       aa     1         /home/famous282/.rustup/toolchains/stable-x86_64-unknown-linux-gnu/lib/rustlib/riscv32imac-unknown-none-elf/lib/libcompiler_builtins-ad31f96eaed4fe7a.rlib(compiler_builtins-ad31f96eaed4fe7a.compiler_builtins.a8dbbfe33f18591e-cgu.327.rcgu.o):(.debug_abbrev)
    1c29     1c29        0     1                 $d
    1cd3     1cd3       b9     1         /home/famous282/.rustup/toolchains/stable-x86_64-unknown-linux-gnu/lib/rustlib/riscv32imac-unknown-none-elf/lib/libcompiler_builtins-ad31f96eaed4fe7a.rlib(compiler_builtins-ad31f96eaed4fe7a.compiler_builtins.a8dbbfe33f18591e-cgu.331.rcgu.o):(.debug_abbrev)
    1cd3     1cd3        0     1                 $d
    1d8c     1d8c       aa     1         /home/famous282/.rustup/toolchains/stable-x86_64-unknown-linux-gnu/lib/rustlib/riscv32imac-unknown-none-elf/lib/libcompiler_builtins-ad31f96eaed4fe7a.rlib(compiler_builtins-ad31f96eaed4fe7a.compiler_builtins.a8dbbfe33f18591e-cgu.332.rcgu.o):(.debug_abbrev)
    1d8c     1d8c        0     1                 $d
    1e36     1e36       2e     1         /home/famous282/.rustup/toolchains/stable-x86_64-unknown-linux-gnu/lib/rustlib/riscv32imac-unknown-none-elf/lib/libcompiler_builtins-ad31f96eaed4fe7a.rlib(compiler_builtins-ad31f96eaed4fe7a.compiler_builtins.a8dbbfe33f18591e-cgu.351.rcgu.o):(.debug_abbrev)
    1e36     1e36        0     1                 $d
    1e64     1e64      131     1         /home/famous282/.rustup/toolchains/stable-x86_64-unknown-linux-gnu/lib/rustlib/riscv32imac-unknown-none-elf/lib/libcompiler_builtins-ad31f96eaed4fe7a.rlib(compiler_builtins-ad31f96eaed4fe7a.compiler_builtins.a8dbbfe33f18591e-cgu.012.rcgu.o):(.debug_abbrev)
    1e64     1e64        0     1                 $d
       0        0    29195     1 .debug_info
       0        0      488     1         /home/famous282/1000linesOS/kernel/target/riscv32imac-unknown-none-elf/debug/deps/kernel-e423684175293233.0xglbqqcmy1h5ke8v4z244zh3.179u2fp.rcgu.o:(.debug_info)
       0        0        0     1                 .L0 
       0        0        0     1                 $d
     488      488      6e6     1         /home/famous282/1000linesOS/kernel/target/riscv32imac-unknown-none-elf/debug/deps/kernel-e423684175293233.1gy28gr8yncw9yg4wm3kw95ip.179u2fp.rcgu.o:(.debug_info)
     488      488        0     1                 .L0 
     488      488        0     1                 $d
     b6e      b6e      648     1         /home/famous282/1000linesOS/kernel/target/riscv32imac-unknown-none-elf/debug/deps/kernel-e423684175293233.1zwa976huie3oeuiu5py3i96v.179u2fp.rcgu.o:(.debug_info)
     b6e      b6e        0     1                 .L0 
     b6e      b6e        0     1                 $d
    11b6     11b6      33c     1         /home/famous282/1000linesOS/kernel/target/riscv32imac-unknown-none-elf/debug/deps/kernel-e423684175293233.5775z1s3a7kqb3rgz5lv2w5b1.179u2fp.rcgu.o:(.debug_info)
    11b6     11b6        0     1                 .L0 
    11b6     11b6        0     1                 $d
    14f2     14f2      6f2     1         /home/famous282/1000linesOS/kernel/target/riscv32imac-unknown-none-elf/debug/deps/kernel-e423684175293233.7hqkh35l985iompa8en7ayj8i.179u2fp.rcgu.o:(.debug_info)
    14f2     14f2        0     1                 .L0 
    14f2     14f2        0     1                 $d
    1be4     1be4      bc7     1         /home/famous282/1000linesOS/kernel/target/riscv32imac-unknown-none-elf/debug/deps/kernel-e423684175293233.7wj5zoa8xxs3t0yy1onealpk8.179u2fp.rcgu.o:(.debug_info)
    1be4     1be4        0     1                 .L0 
    1be4     1be4        0     1                 $d
    27ab     27ab    20826     1         /home/famous282/.rustup/toolchains/stable-x86_64-unknown-linux-gnu/lib/rustlib/riscv32imac-unknown-none-elf/lib/libcore-c6eeea32d188506f.rlib(core-c6eeea32d188506f.core.f2b050c2002e39f1-cgu.0.rcgu.o):(.debug_info)
    27ab     27ab        0     1                 .L0 
    27ab     27ab        0     1                 $d
   22fd1    22fd1       86     1         /home/famous282/.rustup/toolchains/stable-x86_64-unknown-linux-gnu/lib/rustlib/riscv32imac-unknown-none-elf/lib/libcompiler_builtins-ad31f96eaed4fe7a.rlib(compiler_builtins-ad31f96eaed4fe7a.compiler_builtins.a8dbbfe33f18591e-cgu.105.rcgu.o):(.debug_info)
   22fd1    22fd1        0     1                 .L0 
   22fd1    22fd1        0     1                 $d
   23057    23057       a1     1         /home/famous282/.rustup/toolchains/stable-x86_64-unknown-linux-gnu/lib/rustlib/riscv32imac-unknown-none-elf/lib/libcompiler_builtins-ad31f96eaed4fe7a.rlib(compiler_builtins-ad31f96eaed4fe7a.compiler_builtins.a8dbbfe33f18591e-cgu.157.rcgu.o):(.debug_info)
   23057    23057        0     1                 .L0 
   23057    23057        0     1                 $d
   230f8    230f8      419     1         /home/famous282/.rustup/toolchains/stable-x86_64-unknown-linux-gnu/lib/rustlib/riscv32imac-unknown-none-elf/lib/libcompiler_builtins-ad31f96eaed4fe7a.rlib(compiler_builtins-ad31f96eaed4fe7a.compiler_builtins.a8dbbfe33f18591e-cgu.016.rcgu.o):(.debug_info)
   230f8    230f8        0     1                 .L0 
   230f8    230f8        0     1                 $d
   23511    23511      15e     1         /home/famous282/.rustup/toolchains/stable-x86_64-unknown-linux-gnu/lib/rustlib/riscv32imac-unknown-none-elf/lib/libcompiler_builtins-ad31f96eaed4fe7a.rlib(compiler_builtins-ad31f96eaed4fe7a.compiler_builtins.a8dbbfe33f18591e-cgu.162.rcgu.o):(.debug_info)
   23511    23511        0     1                 .L0 
   23511    23511        0     1                 $d
   2366f    2366f      2a7     1         /home/famous282/.rustup/toolchains/stable-x86_64-unknown-linux-gnu/lib/rustlib/riscv32imac-unknown-none-elf/lib/libcompiler_builtins-ad31f96eaed4fe7a.rlib(compiler_builtins-ad31f96eaed4fe7a.compiler_builtins.a8dbbfe33f18591e-cgu.199.rcgu.o):(.debug_info)
   2366f    2366f        0     1                 .L0 
   2366f    2366f        0     1                 $d
   23916    23916      273     1         /home/famous282/.rustup/toolchains/stable-x86_64-unknown-linux-gnu/lib/rustlib/riscv32imac-unknown-none-elf/lib/libcompiler_builtins-ad31f96eaed4fe7a.rlib(compiler_builtins-ad31f96eaed4fe7a.compiler_builtins.a8dbbfe33f18591e-cgu.225.rcgu.o):(.debug_info)
   23916    23916        0     1                 .L0 
   23916    23916        0     1                 $d
   23b89    23b89       51     1         /home/famous282/.rustup/toolchains/stable-x86_64-unknown-linux-gnu/lib/rustlib/riscv32imac-unknown-none-elf/lib/libcompiler_builtins-ad31f96eaed4fe7a.rlib(compiler_builtins-ad31f96eaed4fe7a.compiler_builtins.a8dbbfe33f18591e-cgu.228.rcgu.o):(.debug_info)
   23b89    23b89        0     1                 .L0 
   23b89    23b89        0     1                 $d
   23bda    23bda     14d6     1         /home/famous282/.rustup/toolchains/stable-x86_64-unknown-linux-gnu/lib/rustlib/riscv32imac-unknown-none-elf/lib/libcompiler_builtins-ad31f96eaed4fe7a.rlib(compiler_builtins-ad31f96eaed4fe7a.compiler_builtins.a8dbbfe33f18591e-cgu.003.rcgu.o):(.debug_info)
   23bda    23bda        0     1                 .L0 
   23bda    23bda        0     1                 $d
   250b0    250b0      37f     1         /home/famous282/.rustup/toolchains/stable-x86_64-unknown-linux-gnu/lib/rustlib/riscv32imac-unknown-none-elf/lib/libcompiler_builtins-ad31f96eaed4fe7a.rlib(compiler_builtins-ad31f96eaed4fe7a.compiler_builtins.a8dbbfe33f18591e-cgu.017.rcgu.o):(.debug_info)
   250b0    250b0        0     1                 .L0 
   250b0    250b0        0     1                 $d
   2542f    2542f      274     1         /home/famous282/.rustup/toolchains/stable-x86_64-unknown-linux-gnu/lib/rustlib/riscv32imac-unknown-none-elf/lib/libcompiler_builtins-ad31f96eaed4fe7a.rlib(compiler_builtins-ad31f96eaed4fe7a.compiler_builtins.a8dbbfe33f18591e-cgu.236.rcgu.o):(.debug_info)
   2542f    2542f        0     1                 .L0 
   2542f    2542f        0     1                 $d
   256a3    256a3      15e     1         /home/famous282/.rustup/toolchains/stable-x86_64-unknown-linux-gnu/lib/rustlib/riscv32imac-unknown-none-elf/lib/libcompiler_builtins-ad31f96eaed4fe7a.rlib(compiler_builtins-ad31f96eaed4fe7a.compiler_builtins.a8dbbfe33f18591e-cgu.239.rcgu.o):(.debug_info)
   256a3    256a3        0     1                 .L0 
   256a3    256a3        0     1                 $d
   25801    25801       51     1         /home/famous282/.rustup/toolchains/stable-x86_64-unknown-linux-gnu/lib/rustlib/riscv32imac-unknown-none-elf/lib/libcompiler_builtins-ad31f96eaed4fe7a.rlib(compiler_builtins-ad31f96eaed4fe7a.compiler_builtins.a8dbbfe33f18591e-cgu.256.rcgu.o):(.debug_info)
   25801    25801        0     1                 .L0 
   25801    25801        0     1                 $d
   25852    25852     182c     1         /home/famous282/.rustup/toolchains/stable-x86_64-unknown-linux-gnu/lib/rustlib/riscv32imac-unknown-none-elf/lib/libcompiler_builtins-ad31f96eaed4fe7a.rlib(compiler_builtins-ad31f96eaed4fe7a.compiler_builtins.a8dbbfe33f18591e-cgu.000.rcgu.o):(.debug_info)
   25852    25852        0     1                 .L0 
   25852    25852        0     1                 $d
   2707e    2707e      1d8     1         /home/famous282/.rustup/toolchains/stable-x86_64-unknown-linux-gnu/lib/rustlib/riscv32imac-unknown-none-elf/lib/libcompiler_builtins-ad31f96eaed4fe7a.rlib(compiler_builtins-ad31f96eaed4fe7a.compiler_builtins.a8dbbfe33f18591e-cgu.285.rcgu.o):(.debug_info)
   2707e    2707e        0     1                 .L0 
   2707e    2707e        0     1                 $d
   27256    27256       a1     1         /home/famous282/.rustup/toolchains/stable-x86_64-unknown-linux-gnu/lib/rustlib/riscv32imac-unknown-none-elf/lib/libcompiler_builtins-ad31f96eaed4fe7a.rlib(compiler_builtins-ad31f96eaed4fe7a.compiler_builtins.a8dbbfe33f18591e-cgu.287.rcgu.o):(.debug_info)
   27256    27256        0     1                 .L0 
   27256    27256        0     1                 $d
   272f7    272f7       51     1         /home/famous282/.rustup/toolchains/stable-x86_64-unknown-linux-gnu/lib/rustlib/riscv32imac-unknown-none-elf/lib/libcompiler_builtins-ad31f96eaed4fe7a.rlib(compiler_builtins-ad31f96eaed4fe7a.compiler_builtins.a8dbbfe33f18591e-cgu.295.rcgu.o):(.debug_info)
   272f7    272f7        0     1                 .L0 
   272f7    272f7        0     1                 $d
   27348    27348      1d8     1         /home/famous282/.rustup/toolchains/stable-x86_64-unknown-linux-gnu/lib/rustlib/riscv32imac-unknown-none-elf/lib/libcompiler_builtins-ad31f96eaed4fe7a.rlib(compiler_builtins-ad31f96eaed4fe7a.compiler_builtins.a8dbbfe33f18591e-cgu.300.rcgu.o):(.debug_info)
   27348    27348        0     1                 .L0 
   27348    27348        0     1                 $d
   27520    27520      377     1         /home/famous282/.rustup/toolchains/stable-x86_64-unknown-linux-gnu/lib/rustlib/riscv32imac-unknown-none-elf/lib/libcompiler_builtins-ad31f96eaed4fe7a.rlib(compiler_builtins-ad31f96eaed4fe7a.compiler_builtins.a8dbbfe33f18591e-cgu.303.rcgu.o):(.debug_info)
   27520    27520        0     1                 .L0 
   27520    27520        0     1                 $d
   27897    27897       a1     1         /home/famous282/.rustup/toolchains/stable-x86_64-unknown-linux-gnu/lib/rustlib/riscv32imac-unknown-none-elf/lib/libcompiler_builtins-ad31f96eaed4fe7a.rlib(compiler_builtins-ad31f96eaed4fe7a.compiler_builtins.a8dbbfe33f18591e-cgu.308.rcgu.o):(.debug_info)
   27897    27897        0     1                 .L0 
   27897    27897        0     1                 $d
   27938    27938       a1     1         /home/famous282/.rustup/toolchains/stable-x86_64-unknown-linux-gnu/lib/rustlib/riscv32imac-unknown-none-elf/lib/libcompiler_builtins-ad31f96eaed4fe7a.rlib(compiler_builtins-ad31f96eaed4fe7a.compiler_builtins.a8dbbfe33f18591e-cgu.315.rcgu.o):(.debug_info)
   27938    27938        0     1                 .L0 
   27938    27938        0     1                 $d
   279d9    279d9      15e     1         /home/famous282/.rustup/toolchains/stable-x86_64-unknown-linux-gnu/lib/rustlib/riscv32imac-unknown-none-elf/lib/libcompiler_builtins-ad31f96eaed4fe7a.rlib(compiler_builtins-ad31f96eaed4fe7a.compiler_builtins.a8dbbfe33f18591e-cgu.325.rcgu.o):(.debug_info)
   279d9    279d9        0     1                 .L0 
   279d9    279d9        0     1                 $d
   27b37    27b37       51     1         /home/famous282/.rustup/toolchains/stable-x86_64-unknown-linux-gnu/lib/rustlib/riscv32imac-unknown-none-elf/lib/libcompiler_builtins-ad31f96eaed4fe7a.rlib(compiler_builtins-ad31f96eaed4fe7a.compiler_builtins.a8dbbfe33f18591e-cgu.326.rcgu.o):(.debug_info)
   27b37    27b37        0     1                 .L0 
   27b37    27b37        0     1                 $d
   27b88    27b88      373     1         /home/famous282/.rustup/toolchains/stable-x86_64-unknown-linux-gnu/lib/rustlib/riscv32imac-unknown-none-elf/lib/libcompiler_builtins-ad31f96eaed4fe7a.rlib(compiler_builtins-ad31f96eaed4fe7a.compiler_builtins.a8dbbfe33f18591e-cgu.327.rcgu.o):(.debug_info)
   27b88    27b88        0     1                 .L0 
   27b88    27b88        0     1                 $d
   27efb    27efb      1d8     1         /home/famous282/.rustup/toolchains/stable-x86_64-unknown-linux-gnu/lib/rustlib/riscv32imac-unknown-none-elf/lib/libcompiler_builtins-ad31f96eaed4fe7a.rlib(compiler_builtins-ad31f96eaed4fe7a.compiler_builtins.a8dbbfe33f18591e-cgu.331.rcgu.o):(.debug_info)
   27efb    27efb        0     1                 .L0 
   27efb    27efb        0     1                 $d
   280d3    280d3      15e     1         /home/famous282/.rustup/toolchains/stable-x86_64-unknown-linux-gnu/lib/rustlib/riscv32imac-unknown-none-elf/lib/libcompiler_builtins-ad31f96eaed4fe7a.rlib(compiler_builtins-ad31f96eaed4fe7a.compiler_builtins.a8dbbfe33f18591e-cgu.332.rcgu.o):(.debug_info)
   280d3    280d3        0     1                 .L0 
   280d3    280d3        0     1                 $d
   28231    28231       4b     1         /home/famous282/.rustup/toolchains/stable-x86_64-unknown-linux-gnu/lib/rustlib/riscv32imac-unknown-none-elf/lib/libcompiler_builtins-ad31f96eaed4fe7a.rlib(compiler_builtins-ad31f96eaed4fe7a.compiler_builtins.a8dbbfe33f18591e-cgu.351.rcgu.o):(.debug_info)
   28231    28231        0     1                 .L0 
   28231    28231        0     1                 $d
   2827c    2827c      f19     1         /home/famous282/.rustup/toolchains/stable-x86_64-unknown-linux-gnu/lib/rustlib/riscv32imac-unknown-none-elf/lib/libcompiler_builtins-ad31f96eaed4fe7a.rlib(compiler_builtins-ad31f96eaed4fe7a.compiler_builtins.a8dbbfe33f18591e-cgu.012.rcgu.o):(.debug_info)
   2827c    2827c        0     1                 .L0 
   2827c    2827c        0     1                 $d
       0        0     1638     1 .debug_aranges
       0        0       20     1         /home/famous282/1000linesOS/kernel/target/riscv32imac-unknown-none-elf/debug/deps/kernel-e423684175293233.0xglbqqcmy1h5ke8v4z244zh3.179u2fp.rcgu.o:(.debug_aranges)
       0        0        0     1                 $d
      20       20       30     1         /home/famous282/1000linesOS/kernel/target/riscv32imac-unknown-none-elf/debug/deps/kernel-e423684175293233.1gy28gr8yncw9yg4wm3kw95ip.179u2fp.rcgu.o:(.debug_aranges)
      20       20        0     1                 $d
      50       50       20     1         /home/famous282/1000linesOS/kernel/target/riscv32imac-unknown-none-elf/debug/deps/kernel-e423684175293233.1zwa976huie3oeuiu5py3i96v.179u2fp.rcgu.o:(.debug_aranges)
      50       50        0     1                 $d
      70       70       28     1         /home/famous282/1000linesOS/kernel/target/riscv32imac-unknown-none-elf/debug/deps/kernel-e423684175293233.5775z1s3a7kqb3rgz5lv2w5b1.179u2fp.rcgu.o:(.debug_aranges)
      70       70        0     1                 $d
      98       98       38     1         /home/famous282/1000linesOS/kernel/target/riscv32imac-unknown-none-elf/debug/deps/kernel-e423684175293233.7hqkh35l985iompa8en7ayj8i.179u2fp.rcgu.o:(.debug_aranges)
      98       98        0     1                 $d
      d0       d0       28     1         /home/famous282/1000linesOS/kernel/target/riscv32imac-unknown-none-elf/debug/deps/kernel-e423684175293233.7wj5zoa8xxs3t0yy1onealpk8.179u2fp.rcgu.o:(.debug_aranges)
      d0       d0        0     1                 $d
      f8       f8     1160     1         /home/famous282/.rustup/toolchains/stable-x86_64-unknown-linux-gnu/lib/rustlib/riscv32imac-unknown-none-elf/lib/libcore-c6eeea32d188506f.rlib(core-c6eeea32d188506f.core.f2b050c2002e39f1-cgu.0.rcgu.o):(.debug_aranges)
      f8       f8        0     1                 $d
    1258     1258       20     1         /home/famous282/.rustup/toolchains/stable-x86_64-unknown-linux-gnu/lib/rustlib/riscv32imac-unknown-none-elf/lib/libcompiler_builtins-ad31f96eaed4fe7a.rlib(compiler_builtins-ad31f96eaed4fe7a.compiler_builtins.a8dbbfe33f18591e-cgu.105.rcgu.o):(.debug_aranges)
    1258     1258        0     1                 $d
    1278     1278       20     1         /home/famous282/.rustup/toolchains/stable-x86_64-unknown-linux-gnu/lib/rustlib/riscv32imac-unknown-none-elf/lib/libcompiler_builtins-ad31f96eaed4fe7a.rlib(compiler_builtins-ad31f96eaed4fe7a.compiler_builtins.a8dbbfe33f18591e-cgu.157.rcgu.o):(.debug_aranges)
    1278     1278        0     1                 $d
    1298     1298       28     1         /home/famous282/.rustup/toolchains/stable-x86_64-unknown-linux-gnu/lib/rustlib/riscv32imac-unknown-none-elf/lib/libcompiler_builtins-ad31f96eaed4fe7a.rlib(compiler_builtins-ad31f96eaed4fe7a.compiler_builtins.a8dbbfe33f18591e-cgu.016.rcgu.o):(.debug_aranges)
    1298     1298        0     1                 $d
    12c0     12c0       20     1         /home/famous282/.rustup/toolchains/stable-x86_64-unknown-linux-gnu/lib/rustlib/riscv32imac-unknown-none-elf/lib/libcompiler_builtins-ad31f96eaed4fe7a.rlib(compiler_builtins-ad31f96eaed4fe7a.compiler_builtins.a8dbbfe33f18591e-cgu.162.rcgu.o):(.debug_aranges)
    12c0     12c0        0     1                 $d
    12e0     12e0       20     1         /home/famous282/.rustup/toolchains/stable-x86_64-unknown-linux-gnu/lib/rustlib/riscv32imac-unknown-none-elf/lib/libcompiler_builtins-ad31f96eaed4fe7a.rlib(compiler_builtins-ad31f96eaed4fe7a.compiler_builtins.a8dbbfe33f18591e-cgu.199.rcgu.o):(.debug_aranges)
    12e0     12e0        0     1                 $d
    1300     1300       20     1         /home/famous282/.rustup/toolchains/stable-x86_64-unknown-linux-gnu/lib/rustlib/riscv32imac-unknown-none-elf/lib/libcompiler_builtins-ad31f96eaed4fe7a.rlib(compiler_builtins-ad31f96eaed4fe7a.compiler_builtins.a8dbbfe33f18591e-cgu.225.rcgu.o):(.debug_aranges)
    1300     1300        0     1                 $d
    1320     1320       20     1         /home/famous282/.rustup/toolchains/stable-x86_64-unknown-linux-gnu/lib/rustlib/riscv32imac-unknown-none-elf/lib/libcompiler_builtins-ad31f96eaed4fe7a.rlib(compiler_builtins-ad31f96eaed4fe7a.compiler_builtins.a8dbbfe33f18591e-cgu.228.rcgu.o):(.debug_aranges)
    1320     1320        0     1                 $d
    1340     1340       38     1         /home/famous282/.rustup/toolchains/stable-x86_64-unknown-linux-gnu/lib/rustlib/riscv32imac-unknown-none-elf/lib/libcompiler_builtins-ad31f96eaed4fe7a.rlib(compiler_builtins-ad31f96eaed4fe7a.compiler_builtins.a8dbbfe33f18591e-cgu.003.rcgu.o):(.debug_aranges)
    1340     1340        0     1                 $d
    1378     1378       60     1         /home/famous282/.rustup/toolchains/stable-x86_64-unknown-linux-gnu/lib/rustlib/riscv32imac-unknown-none-elf/lib/libcompiler_builtins-ad31f96eaed4fe7a.rlib(compiler_builtins-ad31f96eaed4fe7a.compiler_builtins.a8dbbfe33f18591e-cgu.017.rcgu.o):(.debug_aranges)
    1378     1378        0     1                 $d
    13d8     13d8       20     1         /home/famous282/.rustup/toolchains/stable-x86_64-unknown-linux-gnu/lib/rustlib/riscv32imac-unknown-none-elf/lib/libcompiler_builtins-ad31f96eaed4fe7a.rlib(compiler_builtins-ad31f96eaed4fe7a.compiler_builtins.a8dbbfe33f18591e-cgu.236.rcgu.o):(.debug_aranges)
    13d8     13d8        0     1                 $d
    13f8     13f8       20     1         /home/famous282/.rustup/toolchains/stable-x86_64-unknown-linux-gnu/lib/rustlib/riscv32imac-unknown-none-elf/lib/libcompiler_builtins-ad31f96eaed4fe7a.rlib(compiler_builtins-ad31f96eaed4fe7a.compiler_builtins.a8dbbfe33f18591e-cgu.239.rcgu.o):(.debug_aranges)
    13f8     13f8        0     1                 $d
    1418     1418       20     1         /home/famous282/.rustup/toolchains/stable-x86_64-unknown-linux-gnu/lib/rustlib/riscv32imac-unknown-none-elf/lib/libcompiler_builtins-ad31f96eaed4fe7a.rlib(compiler_builtins-ad31f96eaed4fe7a.compiler_builtins.a8dbbfe33f18591e-cgu.256.rcgu.o):(.debug_aranges)
    1418     1418        0     1                 $d
    1438     1438       30     1         /home/famous282/.rustup/toolchains/stable-x86_64-unknown-linux-gnu/lib/rustlib/riscv32imac-unknown-none-elf/lib/libcompiler_builtins-ad31f96eaed4fe7a.rlib(compiler_builtins-ad31f96eaed4fe7a.compiler_builtins.a8dbbfe33f18591e-cgu.000.rcgu.o):(.debug_aranges)
    1438     1438        0     1                 $d
    1468     1468       20     1         /home/famous282/.rustup/toolchains/stable-x86_64-unknown-linux-gnu/lib/rustlib/riscv32imac-unknown-none-elf/lib/libcompiler_builtins-ad31f96eaed4fe7a.rlib(compiler_builtins-ad31f96eaed4fe7a.compiler_builtins.a8dbbfe33f18591e-cgu.285.rcgu.o):(.debug_aranges)
    1468     1468        0     1                 $d
    1488     1488       20     1         /home/famous282/.rustup/toolchains/stable-x86_64-unknown-linux-gnu/lib/rustlib/riscv32imac-unknown-none-elf/lib/libcompiler_builtins-ad31f96eaed4fe7a.rlib(compiler_builtins-ad31f96eaed4fe7a.compiler_builtins.a8dbbfe33f18591e-cgu.287.rcgu.o):(.debug_aranges)
    1488     1488        0     1                 $d
    14a8     14a8       20     1         /home/famous282/.rustup/toolchains/stable-x86_64-unknown-linux-gnu/lib/rustlib/riscv32imac-unknown-none-elf/lib/libcompiler_builtins-ad31f96eaed4fe7a.rlib(compiler_builtins-ad31f96eaed4fe7a.compiler_builtins.a8dbbfe33f18591e-cgu.295.rcgu.o):(.debug_aranges)
    14a8     14a8        0     1                 $d
    14c8     14c8       20     1         /home/famous282/.rustup/toolchains/stable-x86_64-unknown-linux-gnu/lib/rustlib/riscv32imac-unknown-none-elf/lib/libcompiler_builtins-ad31f96eaed4fe7a.rlib(compiler_builtins-ad31f96eaed4fe7a.compiler_builtins.a8dbbfe33f18591e-cgu.300.rcgu.o):(.debug_aranges)
    14c8     14c8        0     1                 $d
    14e8     14e8       20     1         /home/famous282/.rustup/toolchains/stable-x86_64-unknown-linux-gnu/lib/rustlib/riscv32imac-unknown-none-elf/lib/libcompiler_builtins-ad31f96eaed4fe7a.rlib(compiler_builtins-ad31f96eaed4fe7a.compiler_builtins.a8dbbfe33f18591e-cgu.303.rcgu.o):(.debug_aranges)
    14e8     14e8        0     1                 $d
    1508     1508       20     1         /home/famous282/.rustup/toolchains/stable-x86_64-unknown-linux-gnu/lib/rustlib/riscv32imac-unknown-none-elf/lib/libcompiler_builtins-ad31f96eaed4fe7a.rlib(compiler_builtins-ad31f96eaed4fe7a.compiler_builtins.a8dbbfe33f18591e-cgu.308.rcgu.o):(.debug_aranges)
    1508     1508        0     1                 $d
    1528     1528       20     1         /home/famous282/.rustup/toolchains/stable-x86_64-unknown-linux-gnu/lib/rustlib/riscv32imac-unknown-none-elf/lib/libcompiler_builtins-ad31f96eaed4fe7a.rlib(compiler_builtins-ad31f96eaed4fe7a.compiler_builtins.a8dbbfe33f18591e-cgu.315.rcgu.o):(.debug_aranges)
    1528     1528        0     1                 $d
    1548     1548       20     1         /home/famous282/.rustup/toolchains/stable-x86_64-unknown-linux-gnu/lib/rustlib/riscv32imac-unknown-none-elf/lib/libcompiler_builtins-ad31f96eaed4fe7a.rlib(compiler_builtins-ad31f96eaed4fe7a.compiler_builtins.a8dbbfe33f18591e-cgu.325.rcgu.o):(.debug_aranges)
    1548     1548        0     1                 $d
    1568     1568       20     1         /home/famous282/.rustup/toolchains/stable-x86_64-unknown-linux-gnu/lib/rustlib/riscv32imac-unknown-none-elf/lib/libcompiler_builtins-ad31f96eaed4fe7a.rlib(compiler_builtins-ad31f96eaed4fe7a.compiler_builtins.a8dbbfe33f18591e-cgu.326.rcgu.o):(.debug_aranges)
    1568     1568        0     1                 $d
    1588     1588       20     1         /home/famous282/.rustup/toolchains/stable-x86_64-unknown-linux-gnu/lib/rustlib/riscv32imac-unknown-none-elf/lib/libcompiler_builtins-ad31f96eaed4fe7a.rlib(compiler_builtins-ad31f96eaed4fe7a.compiler_builtins.a8dbbfe33f18591e-cgu.327.rcgu.o):(.debug_aranges)
    1588     1588        0     1                 $d
    15a8     15a8       20     1         /home/famous282/.rustup/toolchains/stable-x86_64-unknown-linux-gnu/lib/rustlib/riscv32imac-unknown-none-elf/lib/libcompiler_builtins-ad31f96eaed4fe7a.rlib(compiler_builtins-ad31f96eaed4fe7a.compiler_builtins.a8dbbfe33f18591e-cgu.331.rcgu.o):(.debug_aranges)
    15a8     15a8        0     1                 $d
    15c8     15c8       20     1         /home/famous282/.rustup/toolchains/stable-x86_64-unknown-linux-gnu/lib/rustlib/riscv32imac-unknown-none-elf/lib/libcompiler_builtins-ad31f96eaed4fe7a.rlib(compiler_builtins-ad31f96eaed4fe7a.compiler_builtins.a8dbbfe33f18591e-cgu.332.rcgu.o):(.debug_aranges)
    15c8     15c8        0     1                 $d
    15e8     15e8       20     1         /home/famous282/.rustup/toolchains/stable-x86_64-unknown-linux-gnu/lib/rustlib/riscv32imac-unknown-none-elf/lib/libcompiler_builtins-ad31f96eaed4fe7a.rlib(compiler_builtins-ad31f96eaed4fe7a.compiler_builtins.a8dbbfe33f18591e-cgu.351.rcgu.o):(.debug_aranges)
    15e8     15e8        0     1                 $d
    1608     1608       30     1         /home/famous282/.rustup/toolchains/stable-x86_64-unknown-linux-gnu/lib/rustlib/riscv32imac-unknown-none-elf/lib/libcompiler_builtins-ad31f96eaed4fe7a.rlib(compiler_builtins-ad31f96eaed4fe7a.compiler_builtins.a8dbbfe33f18591e-cgu.012.rcgu.o):(.debug_aranges)
    1608     1608        0     1                 $d
       0        0    42546     1 .debug_str
       0        0    42546     1         <internal>:(.debug_str)
       0        0       8b     1 .comment
       0        0       8b     1         <internal>:(.comment)
       0        0       4e     1 .riscv.attributes
       0        0       4e     1         <internal>:(.riscv.attributes)
       0        0      16c     4 .debug_frame
       0        0       24     4         /home/famous282/1000linesOS/kernel/target/riscv32imac-unknown-none-elf/debug/deps/kernel-e423684175293233.0xglbqqcmy1h5ke8v4z244zh3.179u2fp.rcgu.o:(.debug_frame)
       0        0        0     1                 .L0 
       0        0        0     1                 $d
      24       24       40     4         /home/famous282/1000linesOS/kernel/target/riscv32imac-unknown-none-elf/debug/deps/kernel-e423684175293233.1gy28gr8yncw9yg4wm3kw95ip.179u2fp.rcgu.o:(.debug_frame)
      24       24        0     1                 .L0 
      24       24        0     1                 $d
      64       64       2c     4         /home/famous282/1000linesOS/kernel/target/riscv32imac-unknown-none-elf/debug/deps/kernel-e423684175293233.1zwa976huie3oeuiu5py3i96v.179u2fp.rcgu.o:(.debug_frame)
      64       64        0     1                 .L0 
      64       64        0     1                 $d
      90       90       38     4         /home/famous282/1000linesOS/kernel/target/riscv32imac-unknown-none-elf/debug/deps/kernel-e423684175293233.5775z1s3a7kqb3rgz5lv2w5b1.179u2fp.rcgu.o:(.debug_frame)
      90       90        0     1                 .L0 
      90       90        0     1                 $d
      c8       c8       4c     4         /home/famous282/1000linesOS/kernel/target/riscv32imac-unknown-none-elf/debug/deps/kernel-e423684175293233.7hqkh35l985iompa8en7ayj8i.179u2fp.rcgu.o:(.debug_frame)
      c8       c8        0     1                 .L0 
      c8       c8        0     1                 $d
     114      114       58     4         /home/famous282/1000linesOS/kernel/target/riscv32imac-unknown-none-elf/debug/deps/kernel-e423684175293233.7wj5zoa8xxs3t0yy1onealpk8.179u2fp.rcgu.o:(.debug_frame)
     114      114        0     1                 .L0 
     114      114        0     1                 $d
       0        0    23a5d     1 .debug_line
       0        0       ac     1         /home/famous282/1000linesOS/kernel/target/riscv32imac-unknown-none-elf/debug/deps/kernel-e423684175293233.0xglbqqcmy1h5ke8v4z244zh3.179u2fp.rcgu.o:(.debug_line)
       0        0        0     1                 .Lline_table_start0
       0        0        0     1                 $d
      ac       ac      1d0     1         /home/famous282/1000linesOS/kernel/target/riscv32imac-unknown-none-elf/debug/deps/kernel-e423684175293233.1gy28gr8yncw9yg4wm3kw95ip.179u2fp.rcgu.o:(.debug_line)
      ac       ac        0     1                 .Lline_table_start0
      ac       ac        0     1                 $d
     27c      27c      17c     1         /home/famous282/1000linesOS/kernel/target/riscv32imac-unknown-none-elf/debug/deps/kernel-e423684175293233.1zwa976huie3oeuiu5py3i96v.179u2fp.rcgu.o:(.debug_line)
     27c      27c        0     1                 .Lline_table_start0
     27c      27c        0     1                 $d
     363      363        0     1                 .Lline_table_start1
     3f8      3f8       88     1         /home/famous282/1000linesOS/kernel/target/riscv32imac-unknown-none-elf/debug/deps/kernel-e423684175293233.5775z1s3a7kqb3rgz5lv2w5b1.179u2fp.rcgu.o:(.debug_line)
     3f8      3f8        0     1                 .Lline_table_start0
     3f8      3f8        0     1                 $d
     480      480      2db     1         /home/famous282/1000linesOS/kernel/target/riscv32imac-unknown-none-elf/debug/deps/kernel-e423684175293233.7hqkh35l985iompa8en7ayj8i.179u2fp.rcgu.o:(.debug_line)
     480      480        0     1                 .Lline_table_start0
     480      480        0     1                 $d
     72e      72e        0     1                 .Lline_table_start1
     75b      75b      3fd     1         /home/famous282/1000linesOS/kernel/target/riscv32imac-unknown-none-elf/debug/deps/kernel-e423684175293233.7wj5zoa8xxs3t0yy1onealpk8.179u2fp.rcgu.o:(.debug_line)
     75b      75b        0     1                 .Lline_table_start0
     75b      75b        0     1                 $d
     b58      b58    1c42e     1         /home/famous282/.rustup/toolchains/stable-x86_64-unknown-linux-gnu/lib/rustlib/riscv32imac-unknown-none-elf/lib/libcore-c6eeea32d188506f.rlib(core-c6eeea32d188506f.core.f2b050c2002e39f1-cgu.0.rcgu.o):(.debug_line)
     b58      b58        0     1                 .Lline_table_start0
     b58      b58        0     1                 $d
   1cf86    1cf86       eb     1         /home/famous282/.rustup/toolchains/stable-x86_64-unknown-linux-gnu/lib/rustlib/riscv32imac-unknown-none-elf/lib/libcompiler_builtins-ad31f96eaed4fe7a.rlib(compiler_builtins-ad31f96eaed4fe7a.compiler_builtins.a8dbbfe33f18591e-cgu.105.rcgu.o):(.debug_line)
   1cf86    1cf86        0     1                 .Lline_table_start0
   1cf86    1cf86        0     1                 $d
   1d071    1d071      118     1         /home/famous282/.rustup/toolchains/stable-x86_64-unknown-linux-gnu/lib/rustlib/riscv32imac-unknown-none-elf/lib/libcompiler_builtins-ad31f96eaed4fe7a.rlib(compiler_builtins-ad31f96eaed4fe7a.compiler_builtins.a8dbbfe33f18591e-cgu.157.rcgu.o):(.debug_line)
   1d071    1d071        0     1                 .Lline_table_start0
   1d071    1d071        0     1                 $d
   1d12e    1d12e        0     1                 .Lline_table_start1
   1d189    1d189      a08     1         /home/famous282/.rustup/toolchains/stable-x86_64-unknown-linux-gnu/lib/rustlib/riscv32imac-unknown-none-elf/lib/libcompiler_builtins-ad31f96eaed4fe7a.rlib(compiler_builtins-ad31f96eaed4fe7a.compiler_builtins.a8dbbfe33f18591e-cgu.016.rcgu.o):(.debug_line)
   1d189    1d189        0     1                 .Lline_table_start0
   1d189    1d189        0     1                 $d
   1db91    1db91      245     1         /home/famous282/.rustup/toolchains/stable-x86_64-unknown-linux-gnu/lib/rustlib/riscv32imac-unknown-none-elf/lib/libcompiler_builtins-ad31f96eaed4fe7a.rlib(compiler_builtins-ad31f96eaed4fe7a.compiler_builtins.a8dbbfe33f18591e-cgu.162.rcgu.o):(.debug_line)
   1db91    1db91        0     1                 .Lline_table_start0
   1db91    1db91        0     1                 $d
   1dd01    1dd01        0     1                 .Lline_table_start1
   1ddd6    1ddd6      2f6     1         /home/famous282/.rustup/toolchains/stable-x86_64-unknown-linux-gnu/lib/rustlib/riscv32imac-unknown-none-elf/lib/libcompiler_builtins-ad31f96eaed4fe7a.rlib(compiler_builtins-ad31f96eaed4fe7a.compiler_builtins.a8dbbfe33f18591e-cgu.199.rcgu.o):(.debug_line)
   1ddd6    1ddd6        0     1                 .Lline_table_start0
   1ddd6    1ddd6        0     1                 $d
   1dfc1    1dfc1        0     1                 .Lline_table_start1
   1e0cc    1e0cc      2b9     1         /home/famous282/.rustup/toolchains/stable-x86_64-unknown-linux-gnu/lib/rustlib/riscv32imac-unknown-none-elf/lib/libcompiler_builtins-ad31f96eaed4fe7a.rlib(compiler_builtins-ad31f96eaed4fe7a.compiler_builtins.a8dbbfe33f18591e-cgu.225.rcgu.o):(.debug_line)
   1e0cc    1e0cc        0     1                 .Lline_table_start0
   1e0cc    1e0cc        0     1                 $d
   1e279    1e279        0     1                 .Lline_table_start1
   1e32a    1e32a        0     1                 .Lline_table_start2
   1e385    1e385       6e     1         /home/famous282/.rustup/toolchains/stable-x86_64-unknown-linux-gnu/lib/rustlib/riscv32imac-unknown-none-elf/lib/libcompiler_builtins-ad31f96eaed4fe7a.rlib(compiler_builtins-ad31f96eaed4fe7a.compiler_builtins.a8dbbfe33f18591e-cgu.228.rcgu.o):(.debug_line)
   1e385    1e385        0     1                 .Lline_table_start0
   1e385    1e385        0     1                 $d
   1e3f3    1e3f3     125d     1         /home/famous282/.rustup/toolchains/stable-x86_64-unknown-linux-gnu/lib/rustlib/riscv32imac-unknown-none-elf/lib/libcompiler_builtins-ad31f96eaed4fe7a.rlib(compiler_builtins-ad31f96eaed4fe7a.compiler_builtins.a8dbbfe33f18591e-cgu.003.rcgu.o):(.debug_line)
   1e3f3    1e3f3        0     1                 .Lline_table_start0
   1e3f3    1e3f3        0     1                 $d
   1f509    1f509        0     1                 .Lline_table_start1
   1f593    1f593        0     1                 .Lline_table_start2
   1f5f1    1f5f1        0     1                 .Lline_table_start3
   1f650    1f650      6ae     1         /home/famous282/.rustup/toolchains/stable-x86_64-unknown-linux-gnu/lib/rustlib/riscv32imac-unknown-none-elf/lib/libcompiler_builtins-ad31f96eaed4fe7a.rlib(compiler_builtins-ad31f96eaed4fe7a.compiler_builtins.a8dbbfe33f18591e-cgu.017.rcgu.o):(.debug_line)
   1f650    1f650        0     1                 .Lline_table_start0
   1f650    1f650        0     1                 $d
   1fca0    1fca0        0     1                 .Lline_table_start1
   1fcfe    1fcfe      2c0     1         /home/famous282/.rustup/toolchains/stable-x86_64-unknown-linux-gnu/lib/rustlib/riscv32imac-unknown-none-elf/lib/libcompiler_builtins-ad31f96eaed4fe7a.rlib(compiler_builtins-ad31f96eaed4fe7a.compiler_builtins.a8dbbfe33f18591e-cgu.236.rcgu.o):(.debug_line)
   1fcfe    1fcfe        0     1                 .Lline_table_start0
   1fcfe    1fcfe        0     1                 $d
   1feb2    1feb2        0     1                 .Lline_table_start1
   1ff63    1ff63        0     1                 .Lline_table_start2
   1ffbe    1ffbe      245     1         /home/famous282/.rustup/toolchains/stable-x86_64-unknown-linux-gnu/lib/rustlib/riscv32imac-unknown-none-elf/lib/libcompiler_builtins-ad31f96eaed4fe7a.rlib(compiler_builtins-ad31f96eaed4fe7a.compiler_builtins.a8dbbfe33f18591e-cgu.239.rcgu.o):(.debug_line)
   1ffbe    1ffbe        0     1                 .Lline_table_start0
   1ffbe    1ffbe        0     1                 $d
   2012e    2012e        0     1                 .Lline_table_start1
   20203    20203       6e     1         /home/famous282/.rustup/toolchains/stable-x86_64-unknown-linux-gnu/lib/rustlib/riscv32imac-unknown-none-elf/lib/libcompiler_builtins-ad31f96eaed4fe7a.rlib(compiler_builtins-ad31f96eaed4fe7a.compiler_builtins.a8dbbfe33f18591e-cgu.256.rcgu.o):(.debug_line)
   20203    20203        0     1                 .Lline_table_start0
   20203    20203        0     1                 $d
   20271    20271     14de     1         /home/famous282/.rustup/toolchains/stable-x86_64-unknown-linux-gnu/lib/rustlib/riscv32imac-unknown-none-elf/lib/libcompiler_builtins-ad31f96eaed4fe7a.rlib(compiler_builtins-ad31f96eaed4fe7a.compiler_builtins.a8dbbfe33f18591e-cgu.000.rcgu.o):(.debug_line)
   20271    20271        0     1                 .Lline_table_start0
   20271    20271        0     1                 $d
   216f3    216f3        0     1                 .Lline_table_start1
   2174f    2174f      2d2     1         /home/famous282/.rustup/toolchains/stable-x86_64-unknown-linux-gnu/lib/rustlib/riscv32imac-unknown-none-elf/lib/libcompiler_builtins-ad31f96eaed4fe7a.rlib(compiler_builtins-ad31f96eaed4fe7a.compiler_builtins.a8dbbfe33f18591e-cgu.285.rcgu.o):(.debug_line)
   2174f    2174f        0     1                 .Lline_table_start0
   2174f    2174f        0     1                 $d
   2194c    2194c        0     1                 .Lline_table_start1
   21a21    21a21      11d     1         /home/famous282/.rustup/toolchains/stable-x86_64-unknown-linux-gnu/lib/rustlib/riscv32imac-unknown-none-elf/lib/libcompiler_builtins-ad31f96eaed4fe7a.rlib(compiler_builtins-ad31f96eaed4fe7a.compiler_builtins.a8dbbfe33f18591e-cgu.287.rcgu.o):(.debug_line)
   21a21    21a21        0     1                 .Lline_table_start0
   21a21    21a21        0     1                 $d
   21ae3    21ae3        0     1                 .Lline_table_start1
   21b3e    21b3e       6e     1         /home/famous282/.rustup/toolchains/stable-x86_64-unknown-linux-gnu/lib/rustlib/riscv32imac-unknown-none-elf/lib/libcompiler_builtins-ad31f96eaed4fe7a.rlib(compiler_builtins-ad31f96eaed4fe7a.compiler_builtins.a8dbbfe33f18591e-cgu.295.rcgu.o):(.debug_line)
   21b3e    21b3e        0     1                 .Lline_table_start0
   21b3e    21b3e        0     1                 $d
   21bac    21bac      2bc     1         /home/famous282/.rustup/toolchains/stable-x86_64-unknown-linux-gnu/lib/rustlib/riscv32imac-unknown-none-elf/lib/libcompiler_builtins-ad31f96eaed4fe7a.rlib(compiler_builtins-ad31f96eaed4fe7a.compiler_builtins.a8dbbfe33f18591e-cgu.300.rcgu.o):(.debug_line)
   21bac    21bac        0     1                 .Lline_table_start0
   21bac    21bac        0     1                 $d
   21d93    21d93        0     1                 .Lline_table_start1
   21e68    21e68      3a2     1         /home/famous282/.rustup/toolchains/stable-x86_64-unknown-linux-gnu/lib/rustlib/riscv32imac-unknown-none-elf/lib/libcompiler_builtins-ad31f96eaed4fe7a.rlib(compiler_builtins-ad31f96eaed4fe7a.compiler_builtins.a8dbbfe33f18591e-cgu.303.rcgu.o):(.debug_line)
   21e68    21e68        0     1                 .Lline_table_start0
   21e68    21e68        0     1                 $d
   220d7    220d7        0     1                 .Lline_table_start1
   2220a    2220a      118     1         /home/famous282/.rustup/toolchains/stable-x86_64-unknown-linux-gnu/lib/rustlib/riscv32imac-unknown-none-elf/lib/libcompiler_builtins-ad31f96eaed4fe7a.rlib(compiler_builtins-ad31f96eaed4fe7a.compiler_builtins.a8dbbfe33f18591e-cgu.308.rcgu.o):(.debug_line)
   2220a    2220a        0     1                 .Lline_table_start0
   2220a    2220a        0     1                 $d
   222c7    222c7        0     1                 .Lline_table_start1
   22322    22322      11d     1         /home/famous282/.rustup/toolchains/stable-x86_64-unknown-linux-gnu/lib/rustlib/riscv32imac-unknown-none-elf/lib/libcompiler_builtins-ad31f96eaed4fe7a.rlib(compiler_builtins-ad31f96eaed4fe7a.compiler_builtins.a8dbbfe33f18591e-cgu.315.rcgu.o):(.debug_line)
   22322    22322        0     1                 .Lline_table_start0
   22322    22322        0     1                 $d
   223e4    223e4        0     1                 .Lline_table_start1
   2243f    2243f      245     1         /home/famous282/.rustup/toolchains/stable-x86_64-unknown-linux-gnu/lib/rustlib/riscv32imac-unknown-none-elf/lib/libcompiler_builtins-ad31f96eaed4fe7a.rlib(compiler_builtins-ad31f96eaed4fe7a.compiler_builtins.a8dbbfe33f18591e-cgu.325.rcgu.o):(.debug_line)
   2243f    2243f        0     1                 .Lline_table_start0
   2243f    2243f        0     1                 $d
   225af    225af        0     1                 .Lline_table_start1
   22684    22684       6e     1         /home/famous282/.rustup/toolchains/stable-x86_64-unknown-linux-gnu/lib/rustlib/riscv32imac-unknown-none-elf/lib/libcompiler_builtins-ad31f96eaed4fe7a.rlib(compiler_builtins-ad31f96eaed4fe7a.compiler_builtins.a8dbbfe33f18591e-cgu.326.rcgu.o):(.debug_line)
   22684    22684        0     1                 .Lline_table_start0
   22684    22684        0     1                 $d
   226f2    226f2      474     1         /home/famous282/.rustup/toolchains/stable-x86_64-unknown-linux-gnu/lib/rustlib/riscv32imac-unknown-none-elf/lib/libcompiler_builtins-ad31f96eaed4fe7a.rlib(compiler_builtins-ad31f96eaed4fe7a.compiler_builtins.a8dbbfe33f18591e-cgu.327.rcgu.o):(.debug_line)
   226f2    226f2        0     1                 .Lline_table_start0
   226f2    226f2        0     1                 $d
   22a34    22a34        0     1                 .Lline_table_start1
   22b66    22b66      2d2     1         /home/famous282/.rustup/toolchains/stable-x86_64-unknown-linux-gnu/lib/rustlib/riscv32imac-unknown-none-elf/lib/libcompiler_builtins-ad31f96eaed4fe7a.rlib(compiler_builtins-ad31f96eaed4fe7a.compiler_builtins.a8dbbfe33f18591e-cgu.331.rcgu.o):(.debug_line)
   22b66    22b66        0     1                 .Lline_table_start0
   22b66    22b66        0     1                 $d
   22d63    22d63        0     1                 .Lline_table_start1
   22e38    22e38      230     1         /home/famous282/.rustup/toolchains/stable-x86_64-unknown-linux-gnu/lib/rustlib/riscv32imac-unknown-none-elf/lib/libcompiler_builtins-ad31f96eaed4fe7a.rlib(compiler_builtins-ad31f96eaed4fe7a.compiler_builtins.a8dbbfe33f18591e-cgu.332.rcgu.o):(.debug_line)
   22e38    22e38        0     1                 .Lline_table_start0
   22e38    22e38        0     1                 $d
   22f93    22f93        0     1                 .Lline_table_start1
   23068    23068       6e     1         /home/famous282/.rustup/toolchains/stable-x86_64-unknown-linux-gnu/lib/rustlib/riscv32imac-unknown-none-elf/lib/libcompiler_builtins-ad31f96eaed4fe7a.rlib(compiler_builtins-ad31f96eaed4fe7a.compiler_builtins.a8dbbfe33f18591e-cgu.351.rcgu.o):(.debug_line)
   23068    23068        0     1                 .Lline_table_start0
   23068    23068        0     1                 $d
   230d6    230d6      987     1         /home/famous282/.rustup/toolchains/stable-x86_64-unknown-linux-gnu/lib/rustlib/riscv32imac-unknown-none-elf/lib/libcompiler_builtins-ad31f96eaed4fe7a.rlib(compiler_builtins-ad31f96eaed4fe7a.compiler_builtins.a8dbbfe33f18591e-cgu.012.rcgu.o):(.debug_line)
   230d6    230d6        0     1                 .Lline_table_start0
   230d6    230d6        0     1                 $d
       0        0     d030     1 .debug_ranges
       0        0       a0     1         /home/famous282/1000linesOS/kernel/target/riscv32imac-unknown-none-elf/debug/deps/kernel-e423684175293233.1gy28gr8yncw9yg4wm3kw95ip.179u2fp.rcgu.o:(.debug_ranges)
       0        0        0     1                 .L0 
       0        0        0     1                 $d
      20       20        0     1                 .L0 
      48       48        0     1                 .L0 
      68       68        0     1                 .L0 
      88       88        0     1                 .L0 
      a0       a0       48     1         /home/famous282/1000linesOS/kernel/target/riscv32imac-unknown-none-elf/debug/deps/kernel-e423684175293233.5775z1s3a7kqb3rgz5lv2w5b1.179u2fp.rcgu.o:(.debug_ranges)
      a0       a0        0     1                 .L0 
      a0       a0        0     1                 $d
      b8       b8        0     1                 .L0 
      d0       d0        0     1                 .L0 
      e8       e8       68     1         /home/famous282/1000linesOS/kernel/target/riscv32imac-unknown-none-elf/debug/deps/kernel-e423684175293233.7hqkh35l985iompa8en7ayj8i.179u2fp.rcgu.o:(.debug_ranges)
      e8       e8        0     1                 .L0 
      e8       e8        0     1                 $d
     100      100        0     1                 .L0 
     118      118        0     1                 .L0 
     130      130        0     1                 .L0 
     150      150      118     1         /home/famous282/1000linesOS/kernel/target/riscv32imac-unknown-none-elf/debug/deps/kernel-e423684175293233.7wj5zoa8xxs3t0yy1onealpk8.179u2fp.rcgu.o:(.debug_ranges)
     150      150        0     1                 .L0 
     150      150        0     1                 $d
     168      168        0     1                 .L0 
     188      188        0     1                 .L0 
     1a8      1a8        0     1                 .L0 
     1c8      1c8        0     1                 .L0 
     1e0      1e0        0     1                 .L0 
     1f8      1f8        0     1                 .L0 
     218      218        0     1                 .L0 
     238      238        0     1                 .L0 
     250      250        0     1                 .L0 
     268      268     af18     1         /home/famous282/.rustup/toolchains/stable-x86_64-unknown-linux-gnu/lib/rustlib/riscv32imac-unknown-none-elf/lib/libcore-c6eeea32d188506f.rlib(core-c6eeea32d188506f.core.f2b050c2002e39f1-cgu.0.rcgu.o):(.debug_ranges)
     268      268        0     1                 .L0 
     268      268        0     1                 $d
     280      280        0     1                 .L0 
     2a0      2a0        0     1                 .L0 
     2c0      2c0        0     1                 .L0 
     2d8      2d8        0     1                 .L0 
     2f8      2f8        0     1                 .L0 
     318      318        0     1                 .L0 
     330      330        0     1                 .L0 
     348      348        0     1                 .L0 
     360      360        0     1                 .L0 
     380      380        0     1                 .L0 
     3a0      3a0        0     1                 .L0 
     3c0      3c0        0     1                 .L0 
     3d8      3d8        0     1                 .L0 
     3f0      3f0        0     1                 .L0 
     408      408        0     1                 .L0 
     420      420        0     1                 .L0 
     438      438        0     1                 .L0 
     450      450        0     1                 .L0 
     468      468        0     1                 .L0 
     480      480        0     1                 .L0 
     4a8      4a8        0     1                 .L0 
     4d0      4d0        0     1                 .L0 
     4e8      4e8        0     1                 .L0 
     508      508        0     1                 .L0 
     538      538        0     1                 .L0 
     558      558        0     1                 .L0 
     570      570        0     1                 .L0 
     588      588        0     1                 .L0 
     5a0      5a0        0     1                 .L0 
     5c0      5c0        0     1                 .L0 
     5e8      5e8        0     1                 .L0 
     608      608        0     1                 .L0 
     620      620        0     1                 .L0 
     638      638        0     1                 .L0 
     658      658        0     1                 .L0 
     670      670        0     1                 .L0 
     688      688        0     1                 .L0 
     6a0      6a0        0     1                 .L0 
     6b8      6b8        0     1                 .L0 
     6d8      6d8        0     1                 .L0 
     700      700        0     1                 .L0 
     720      720        0     1                 .L0 
     738      738        0     1                 .L0 
     750      750        0     1                 .L0 
     768      768        0     1                 .L0 
     780      780        0     1                 .L0 
     7a0      7a0        0     1                 .L0 
     7c8      7c8        0     1                 .L0 
     7e0      7e0        0     1                 .L0 
     7f8      7f8        0     1                 .L0 
     810      810        0     1                 .L0 
     828      828        0     1                 .L0 
     840      840        0     1                 .L0 
     858      858        0     1                 .L0 
     878      878        0     1                 .L0 
     890      890        0     1                 .L0 
     8b8      8b8        0     1                 .L0 
     8e0      8e0        0     1                 .L0 
     908      908        0     1                 .L0 
     930      930        0     1                 .L0 
     950      950        0     1                 .L0 
     970      970        0     1                 .L0 
     998      998        0     1                 .L0 
     9c0      9c0        0     1                 .L0 
     9e8      9e8        0     1                 .L0 
     a10      a10        0     1                 .L0 
     a28      a28        0     1                 .L0 
     a48      a48        0     1                 .L0 
     a60      a60        0     1                 .L0 
     a80      a80        0     1                 .L0 
     aa0      aa0        0     1                 .L0 
     ab8      ab8        0     1                 .L0 
     ad0      ad0        0     1                 .L0 
     ae8      ae8        0     1                 .L0 
     b00      b00        0     1                 .L0 
     b18      b18        0     1                 .L0 
     b30      b30        0     1                 .L0 
     b48      b48        0     1                 .L0 
     b70      b70        0     1                 .L0 
     b90      b90        0     1                 .L0 
     bb0      bb0        0     1                 .L0 
     bd0      bd0        0     1                 .L0 
     be8      be8        0     1                 .L0 
     c00      c00        0     1                 .L0 
     c18      c18        0     1                 .L0 
     c30      c30        0     1                 .L0 
     c48      c48        0     1                 .L0 
     c60      c60        0     1                 .L0 
     c78      c78        0     1                 .L0 
     c90      c90        0     1                 .L0 
     ca8      ca8        0     1                 .L0 
     cc0      cc0        0     1                 .L0 
     ce0      ce0        0     1                 .L0 
     d00      d00        0     1                 .L0 
     d20      d20        0     1                 .L0 
     d40      d40        0     1                 .L0 
     d58      d58        0     1                 .L0 
     d78      d78        0     1                 .L0 
     d98      d98        0     1                 .L0 
     db0      db0        0     1                 .L0 
     dc8      dc8        0     1                 .L0 
     de0      de0        0     1                 .L0 
     df8      df8        0     1                 .L0 
     e10      e10        0     1                 .L0 
     e28      e28        0     1                 .L0 
     e48      e48        0     1                 .L0 
     e60      e60        0     1                 .L0 
     e78      e78        0     1                 .L0 
     e90      e90        0     1                 .L0 
     eb0      eb0        0     1                 .L0 
     ec8      ec8        0     1                 .L0 
     ee0      ee0        0     1                 .L0 
     f00      f00        0     1                 .L0 
     f18      f18        0     1                 .L0 
     f30      f30        0     1                 .L0 
     f48      f48        0     1                 .L0 
     f60      f60        0     1                 .L0 
     f78      f78        0     1                 .L0 
     f90      f90        0     1                 .L0 
     fa8      fa8        0     1                 .L0 
     fc0      fc0        0     1                 .L0 
     fe8      fe8        0     1                 .L0 
    1008     1008        0     1                 .L0 
    1020     1020        0     1                 .L0 
    1038     1038        0     1                 .L0 
    1050     1050        0     1                 .L0 
    1068     1068        0     1                 .L0 
    1080     1080        0     1                 .L0 
    1098     1098        0     1                 .L0 
    10b0     10b0        0     1                 .L0 
    10c8     10c8        0     1                 .L0 
    10e8     10e8        0     1                 .L0 
    1100     1100        0     1                 .L0 
    1128     1128        0     1                 .L0 
    1140     1140        0     1                 .L0 
    1158     1158        0     1                 .L0 
    1170     1170        0     1                 .L0 
    1188     1188        0     1                 .L0 
    11a0     11a0        0     1                 .L0 
    11b8     11b8        0     1                 .L0 
    11e0     11e0        0     1                 .L0 
    11f8     11f8        0     1                 .L0 
    1210     1210        0     1                 .L0 
    1228     1228        0     1                 .L0 
    1240     1240        0     1                 .L0 
    1258     1258        0     1                 .L0 
    1270     1270        0     1                 .L0 
    1288     1288        0     1                 .L0 
    12b0     12b0        0     1                 .L0 
    12d8     12d8        0     1                 .L0 
    12f0     12f0        0     1                 .L0 
    1308     1308        0     1                 .L0 
    1330     1330        0     1                 .L0 
    1350     1350        0     1                 .L0 
    1380     1380        0     1                 .L0 
    1398     1398        0     1                 .L0 
    13b0     13b0        0     1                 .L0 
    13d0     13d0        0     1                 .L0 
    13e8     13e8        0     1                 .L0 
    1400     1400        0     1                 .L0 
    1420     1420        0     1                 .L0 
    1438     1438        0     1                 .L0 
    1450     1450        0     1                 .L0 
    1468     1468        0     1                 .L0 
    1480     1480        0     1                 .L0 
    14a0     14a0        0     1                 .L0 
    14c8     14c8        0     1                 .L0 
    14e0     14e0        0     1                 .L0 
    1500     1500        0     1                 .L0 
    1528     1528        0     1                 .L0 
    1540     1540        0     1                 .L0 
    1560     1560        0     1                 .L0 
    1588     1588        0     1                 .L0 
    15a0     15a0        0     1                 .L0 
    15c0     15c0        0     1                 .L0 
    15e8     15e8        0     1                 .L0 
    1600     1600        0     1                 .L0 
    1618     1618        0     1                 .L0 
    1638     1638        0     1                 .L0 
    1650     1650        0     1                 .L0 
    1678     1678        0     1                 .L0 
    1690     1690        0     1                 .L0 
    16a8     16a8        0     1                 .L0 
    16c8     16c8        0     1                 .L0 
    16e0     16e0        0     1                 .L0 
    1708     1708        0     1                 .L0 
    1720     1720        0     1                 .L0 
    1738     1738        0     1                 .L0 
    1750     1750        0     1                 .L0 
    1778     1778        0     1                 .L0 
    17a0     17a0        0     1                 .L0 
    17b8     17b8        0     1                 .L0 
    17d0     17d0        0     1                 .L0 
    17f8     17f8        0     1                 .L0 
    1810     1810        0     1                 .L0 
    1838     1838        0     1                 .L0 
    1860     1860        0     1                 .L0 
    1880     1880        0     1                 .L0 
    1898     1898        0     1                 .L0 
    18c0     18c0        0     1                 .L0 
    18d8     18d8        0     1                 .L0 
    18f8     18f8        0     1                 .L0 
    1910     1910        0     1                 .L0 
    1938     1938        0     1                 .L0 
    1950     1950        0     1                 .L0 
    1968     1968        0     1                 .L0 
    1980     1980        0     1                 .L0 
    1998     1998        0     1                 .L0 
    19c0     19c0        0     1                 .L0 
    19e8     19e8        0     1                 .L0 
    1a00     1a00        0     1                 .L0 
    1a18     1a18        0     1                 .L0 
    1a30     1a30        0     1                 .L0 
    1a50     1a50        0     1                 .L0 
    1a68     1a68        0     1                 .L0 
    1a90     1a90        0     1                 .L0 
    1aa8     1aa8        0     1                 .L0 
    1ac0     1ac0        0     1                 .L0 
    1ad8     1ad8        0     1                 .L0 
    1af0     1af0        0     1                 .L0 
    1b18     1b18        0     1                 .L0 
    1b40     1b40        0     1                 .L0 
    1b58     1b58        0     1                 .L0 
    1b80     1b80        0     1                 .L0 
    1b98     1b98        0     1                 .L0 
    1bb0     1bb0        0     1                 .L0 
    1bd0     1bd0        0     1                 .L0 
    1be8     1be8        0     1                 .L0 
    1c10     1c10        0     1                 .L0 
    1c28     1c28        0     1                 .L0 
    1c50     1c50        0     1                 .L0 
    1c68     1c68        0     1                 .L0 
    1c80     1c80        0     1                 .L0 
    1ca0     1ca0        0     1                 .L0 
    1cb8     1cb8        0     1                 .L0 
    1ce0     1ce0        0     1                 .L0 
    1cf8     1cf8        0     1                 .L0 
    1d20     1d20        0     1                 .L0 
    1d38     1d38        0     1                 .L0 
    1d68     1d68        0     1                 .L0 
    1d88     1d88        0     1                 .L0 
    1da0     1da0        0     1                 .L0 
    1dd0     1dd0        0     1                 .L0 
    1df0     1df0        0     1                 .L0 
    1e08     1e08        0     1                 .L0 
    1e38     1e38        0     1                 .L0 
    1e58     1e58        0     1                 .L0 
    1e70     1e70        0     1                 .L0 
    1e98     1e98        0     1                 .L0 
    1eb8     1eb8        0     1                 .L0 
    1ed0     1ed0        0     1                 .L0 
    1ef8     1ef8        0     1                 .L0 
    1f18     1f18        0     1                 .L0 
    1f30     1f30        0     1                 .L0 
    1f58     1f58        0     1                 .L0 
    1f78     1f78        0     1                 .L0 
    1f90     1f90        0     1                 .L0 
    1fb8     1fb8        0     1                 .L0 
    1fd8     1fd8        0     1                 .L0 
    1ff0     1ff0        0     1                 .L0 
    2018     2018        0     1                 .L0 
    2038     2038        0     1                 .L0 
    2050     2050        0     1                 .L0 
    2078     2078        0     1                 .L0 
    2098     2098        0     1                 .L0 
    20b0     20b0        0     1                 .L0 
    20d8     20d8        0     1                 .L0 
    20f8     20f8        0     1                 .L0 
    2110     2110        0     1                 .L0 
    2138     2138        0     1                 .L0 
    2158     2158        0     1                 .L0 
    2170     2170        0     1                 .L0 
    2198     2198        0     1                 .L0 
    21b8     21b8        0     1                 .L0 
    21d0     21d0        0     1                 .L0 
    21e8     21e8        0     1                 .L0 
    2200     2200        0     1                 .L0 
    2218     2218        0     1                 .L0 
    2230     2230        0     1                 .L0 
    2248     2248        0     1                 .L0 
    2260     2260        0     1                 .L0 
    2278     2278        0     1                 .L0 
    2298     2298        0     1                 .L0 
    22b0     22b0        0     1                 .L0 
    22c8     22c8        0     1                 .L0 
    22e0     22e0        0     1                 .L0 
    22f8     22f8        0     1                 .L0 
    2310     2310        0     1                 .L0 
    2328     2328        0     1                 .L0 
    2340     2340        0     1                 .L0 
    2358     2358        0     1                 .L0 
    2370     2370        0     1                 .L0 
    2388     2388        0     1                 .L0 
    23a0     23a0        0     1                 .L0 
    23b8     23b8        0     1                 .L0 
    23d0     23d0        0     1                 .L0 
    23e8     23e8        0     1                 .L0 
    2400     2400        0     1                 .L0 
    2418     2418        0     1                 .L0 
    2430     2430        0     1                 .L0 
    2448     2448        0     1                 .L0 
    2460     2460        0     1                 .L0 
    2478     2478        0     1                 .L0 
    2490     2490        0     1                 .L0 
    24b8     24b8        0     1                 .L0 
    24d8     24d8        0     1                 .L0 
    24f0     24f0        0     1                 .L0 
    2510     2510        0     1                 .L0 
    2528     2528        0     1                 .L0 
    2540     2540        0     1                 .L0 
    2558     2558        0     1                 .L0 
    2570     2570        0     1                 .L0 
    2590     2590        0     1                 .L0 
    25a8     25a8        0     1                 .L0 
    25c0     25c0        0     1                 .L0 
    25d8     25d8        0     1                 .L0 
    25f0     25f0        0     1                 .L0 
    2608     2608        0     1                 .L0 
    2628     2628        0     1                 .L0 
    2648     2648        0     1                 .L0 
    2660     2660        0     1                 .L0 
    2678     2678        0     1                 .L0 
    2690     2690        0     1                 .L0 
    26a8     26a8        0     1                 .L0 
    26c8     26c8        0     1                 .L0 
    26e0     26e0        0     1                 .L0 
    26f8     26f8        0     1                 .L0 
    2710     2710        0     1                 .L0 
    2728     2728        0     1                 .L0 
    2740     2740        0     1                 .L0 
    2760     2760        0     1                 .L0 
    2778     2778        0     1                 .L0 
    2790     2790        0     1                 .L0 
    27a8     27a8        0     1                 .L0 
    27c0     27c0        0     1                 .L0 
    27e0     27e0        0     1                 .L0 
    27f8     27f8        0     1                 .L0 
    2810     2810        0     1                 .L0 
    2830     2830        0     1                 .L0 
    2848     2848        0     1                 .L0 
    2868     2868        0     1                 .L0 
    2880     2880        0     1                 .L0 
    2898     2898        0     1                 .L0 
    28b0     28b0        0     1                 .L0 
    28d0     28d0        0     1                 .L0 
    28e8     28e8        0     1                 .L0 
    2900     2900        0     1                 .L0 
    2918     2918        0     1                 .L0 
    2930     2930        0     1                 .L0 
    2950     2950        0     1                 .L0 
    2968     2968        0     1                 .L0 
    2980     2980        0     1                 .L0 
    2998     2998        0     1                 .L0 
    29b0     29b0        0     1                 .L0 
    29c8     29c8        0     1                 .L0 
    29e8     29e8        0     1                 .L0 
    2a00     2a00        0     1                 .L0 
    2a18     2a18        0     1                 .L0 
    2a30     2a30        0     1                 .L0 
    2a48     2a48        0     1                 .L0 
    2a60     2a60        0     1                 .L0 
    2a78     2a78        0     1                 .L0 
    2a98     2a98        0     1                 .L0 
    2ab0     2ab0        0     1                 .L0 
    2ac8     2ac8        0     1                 .L0 
    2ae0     2ae0        0     1                 .L0 
    2af8     2af8        0     1                 .L0 
    2b10     2b10        0     1                 .L0 
    2b28     2b28        0     1                 .L0 
    2b40     2b40        0     1                 .L0 
    2b60     2b60        0     1                 .L0 
    2b88     2b88        0     1                 .L0 
    2ba8     2ba8        0     1                 .L0 
    2bc0     2bc0        0     1                 .L0 
    2bd8     2bd8        0     1                 .L0 
    2bf0     2bf0        0     1                 .L0 
    2c08     2c08        0     1                 .L0 
    2c40     2c40        0     1                 .L0 
    2c58     2c58        0     1                 .L0 
    2c90     2c90        0     1                 .L0 
    2ca8     2ca8        0     1                 .L0 
    2cc0     2cc0        0     1                 .L0 
    2cd8     2cd8        0     1                 .L0 
    2cf0     2cf0        0     1                 .L0 
    2d08     2d08        0     1                 .L0 
    2d20     2d20        0     1                 .L0 
    2d40     2d40        0     1                 .L0 
    2d58     2d58        0     1                 .L0 
    2d70     2d70        0     1                 .L0 
    2d88     2d88        0     1                 .L0 
    2da8     2da8        0     1                 .L0 
    2dc0     2dc0        0     1                 .L0 
    2dd8     2dd8        0     1                 .L0 
    2df8     2df8        0     1                 .L0 
    2e10     2e10        0     1                 .L0 
    2e28     2e28        0     1                 .L0 
    2e40     2e40        0     1                 .L0 
    2e58     2e58        0     1                 .L0 
    2e70     2e70        0     1                 .L0 
    2e98     2e98        0     1                 .L0 
    2ec0     2ec0        0     1                 .L0 
    2ed8     2ed8        0     1                 .L0 
    2ef0     2ef0        0     1                 .L0 
    2f10     2f10        0     1                 .L0 
    2f28     2f28        0     1                 .L0 
    2f40     2f40        0     1                 .L0 
    2f58     2f58        0     1                 .L0 
    2f78     2f78        0     1                 .L0 
    2f90     2f90        0     1                 .L0 
    2fb0     2fb0        0     1                 .L0 
    2fd0     2fd0        0     1                 .L0 
    2ff0     2ff0        0     1                 .L0 
    3008     3008        0     1                 .L0 
    3020     3020        0     1                 .L0 
    3038     3038        0     1                 .L0 
    3050     3050        0     1                 .L0 
    3068     3068        0     1                 .L0 
    3080     3080        0     1                 .L0 
    30a0     30a0        0     1                 .L0 
    30b8     30b8        0     1                 .L0 
    30d0     30d0        0     1                 .L0 
    30e8     30e8        0     1                 .L0 
    3100     3100        0     1                 .L0 
    3150     3150        0     1                 .L0 
    31a0     31a0        0     1                 .L0 
    31e8     31e8        0     1                 .L0 
    3210     3210        0     1                 .L0 
    3240     3240        0     1                 .L0 
    3260     3260        0     1                 .L0 
    3278     3278        0     1                 .L0 
    32b8     32b8        0     1                 .L0 
    32f8     32f8        0     1                 .L0 
    3330     3330        0     1                 .L0 
    3358     3358        0     1                 .L0 
    3378     3378        0     1                 .L0 
    3398     3398        0     1                 .L0 
    33c0     33c0        0     1                 .L0 
    33d8     33d8        0     1                 .L0 
    33f0     33f0        0     1                 .L0 
    3408     3408        0     1                 .L0 
    3420     3420        0     1                 .L0 
    3438     3438        0     1                 .L0 
    3460     3460        0     1                 .L0 
    3498     3498        0     1                 .L0 
    34c0     34c0        0     1                 .L0 
    34d8     34d8        0     1                 .L0 
    3500     3500        0     1                 .L0 
    35c8     35c8        0     1                 .L0 
    36b0     36b0        0     1                 .L0 
    3760     3760        0     1                 .L0 
    37e8     37e8        0     1                 .L0 
    3850     3850        0     1                 .L0 
    38a0     38a0        0     1                 .L0 
    38d8     38d8        0     1                 .L0 
    38f8     38f8        0     1                 .L0 
    3920     3920        0     1                 .L0 
    3950     3950        0     1                 .L0 
    3990     3990        0     1                 .L0 
    39a8     39a8        0     1                 .L0 
    39c0     39c0        0     1                 .L0 
    39d8     39d8        0     1                 .L0 
    39f8     39f8        0     1                 .L0 
    3a10     3a10        0     1                 .L0 
    3a28     3a28        0     1                 .L0 
    3a40     3a40        0     1                 .L0 
    3a58     3a58        0     1                 .L0 
    3a78     3a78        0     1                 .L0 
    3a90     3a90        0     1                 .L0 
    3aa8     3aa8        0     1                 .L0 
    3ac0     3ac0        0     1                 .L0 
    3ad8     3ad8        0     1                 .L0 
    3af0     3af0        0     1                 .L0 
    3b08     3b08        0     1                 .L0 
    3b20     3b20        0     1                 .L0 
    3b38     3b38        0     1                 .L0 
    3b58     3b58        0     1                 .L0 
    3b70     3b70        0     1                 .L0 
    3b88     3b88        0     1                 .L0 
    3ba0     3ba0        0     1                 .L0 
    3bb8     3bb8        0     1                 .L0 
    3be0     3be0        0     1                 .L0 
    3c00     3c00        0     1                 .L0 
    3c20     3c20        0     1                 .L0 
    3c38     3c38        0     1                 .L0 
    3c50     3c50        0     1                 .L0 
    3c68     3c68        0     1                 .L0 
    3c80     3c80        0     1                 .L0 
    3ca0     3ca0        0     1                 .L0 
    3cc0     3cc0        0     1                 .L0 
    3ce0     3ce0        0     1                 .L0 
    3cf8     3cf8        0     1                 .L0 
    3d10     3d10        0     1                 .L0 
    3d30     3d30        0     1                 .L0 
    3d48     3d48        0     1                 .L0 
    3d60     3d60        0     1                 .L0 
    3d78     3d78        0     1                 .L0 
    3d90     3d90        0     1                 .L0 
    3da8     3da8        0     1                 .L0 
    3dc0     3dc0        0     1                 .L0 
    3dd8     3dd8        0     1                 .L0 
    3e00     3e00        0     1                 .L0 
    3e18     3e18        0     1                 .L0 
    3e30     3e30        0     1                 .L0 
    3e48     3e48        0     1                 .L0 
    3e60     3e60        0     1                 .L0 
    3e78     3e78        0     1                 .L0 
    3e98     3e98        0     1                 .L0 
    3eb0     3eb0        0     1                 .L0 
    3ec8     3ec8        0     1                 .L0 
    3ee0     3ee0        0     1                 .L0 
    3ef8     3ef8        0     1                 .L0 
    3f10     3f10        0     1                 .L0 
    3f30     3f30        0     1                 .L0 
    3f58     3f58        0     1                 .L0 
    3f70     3f70        0     1                 .L0 
    3f88     3f88        0     1                 .L0 
    3fa0     3fa0        0     1                 .L0 
    3fb8     3fb8        0     1                 .L0 
    3fd0     3fd0        0     1                 .L0 
    3fe8     3fe8        0     1                 .L0 
    4000     4000        0     1                 .L0 
    4018     4018        0     1                 .L0 
    4038     4038        0     1                 .L0 
    4050     4050        0     1                 .L0 
    4068     4068        0     1                 .L0 
    4080     4080        0     1                 .L0 
    4098     4098        0     1                 .L0 
    40b0     40b0        0     1                 .L0 
    40e0     40e0        0     1                 .L0 
    4100     4100        0     1                 .L0 
    4120     4120        0     1                 .L0 
    4138     4138        0     1                 .L0 
    4168     4168        0     1                 .L0 
    4188     4188        0     1                 .L0 
    41a8     41a8        0     1                 .L0 
    41c8     41c8        0     1                 .L0 
    41e8     41e8        0     1                 .L0 
    4200     4200        0     1                 .L0 
    4220     4220        0     1                 .L0 
    4238     4238        0     1                 .L0 
    4250     4250        0     1                 .L0 
    4278     4278        0     1                 .L0 
    4290     4290        0     1                 .L0 
    42b0     42b0        0     1                 .L0 
    42c8     42c8        0     1                 .L0 
    42e0     42e0        0     1                 .L0 
    4308     4308        0     1                 .L0 
    4328     4328        0     1                 .L0 
    4348     4348        0     1                 .L0 
    4360     4360        0     1                 .L0 
    4378     4378        0     1                 .L0 
    4390     4390        0     1                 .L0 
    43a8     43a8        0     1                 .L0 
    43c8     43c8        0     1                 .L0 
    43f0     43f0        0     1                 .L0 
    4410     4410        0     1                 .L0 
    4428     4428        0     1                 .L0 
    4448     4448        0     1                 .L0 
    4460     4460        0     1                 .L0 
    4478     4478        0     1                 .L0 
    44a0     44a0        0     1                 .L0 
    44c0     44c0        0     1                 .L0 
    44d8     44d8        0     1                 .L0 
    44f0     44f0        0     1                 .L0 
    4518     4518        0     1                 .L0 
    4538     4538        0     1                 .L0 
    4550     4550        0     1                 .L0 
    4568     4568        0     1                 .L0 
    4580     4580        0     1                 .L0 
    4598     4598        0     1                 .L0 
    45b0     45b0        0     1                 .L0 
    45c8     45c8        0     1                 .L0 
    45f0     45f0        0     1                 .L0 
    4618     4618        0     1                 .L0 
    4630     4630        0     1                 .L0 
    4648     4648        0     1                 .L0 
    4668     4668        0     1                 .L0 
    4680     4680        0     1                 .L0 
    4698     4698        0     1                 .L0 
    46c0     46c0        0     1                 .L0 
    46d8     46d8        0     1                 .L0 
    46f0     46f0        0     1                 .L0 
    4708     4708        0     1                 .L0 
    4728     4728        0     1                 .L0 
    4740     4740        0     1                 .L0 
    4758     4758        0     1                 .L0 
    4778     4778        0     1                 .L0 
    4798     4798        0     1                 .L0 
    47b0     47b0        0     1                 .L0 
    47c8     47c8        0     1                 .L0 
    47e0     47e0        0     1                 .L0 
    4800     4800        0     1                 .L0 
    4818     4818        0     1                 .L0 
    4840     4840        0     1                 .L0 
    4860     4860        0     1                 .L0 
    4878     4878        0     1                 .L0 
    4898     4898        0     1                 .L0 
    48b0     48b0        0     1                 .L0 
    48c8     48c8        0     1                 .L0 
    48f0     48f0        0     1                 .L0 
    4910     4910        0     1                 .L0 
    4a50     4a50        0     1                 .L0 
    4a68     4a68        0     1                 .L0 
    4a90     4a90        0     1                 .L0 
    4ab0     4ab0        0     1                 .L0 
    4ad0     4ad0        0     1                 .L0 
    4ae8     4ae8        0     1                 .L0 
    4b08     4b08        0     1                 .L0 
    4b28     4b28        0     1                 .L0 
    4b40     4b40        0     1                 .L0 
    4b70     4b70        0     1                 .L0 
    4b88     4b88        0     1                 .L0 
    4ba0     4ba0        0     1                 .L0 
    4bb8     4bb8        0     1                 .L0 
    4bd0     4bd0        0     1                 .L0 
    4bf0     4bf0        0     1                 .L0 
    4c10     4c10        0     1                 .L0 
    4c28     4c28        0     1                 .L0 
    4c40     4c40        0     1                 .L0 
    4c68     4c68        0     1                 .L0 
    4c80     4c80        0     1                 .L0 
    4c98     4c98        0     1                 .L0 
    4cb8     4cb8        0     1                 .L0 
    4cd8     4cd8        0     1                 .L0 
    4cf8     4cf8        0     1                 .L0 
    4d18     4d18        0     1                 .L0 
    4d30     4d30        0     1                 .L0 
    4d48     4d48        0     1                 .L0 
    4d60     4d60        0     1                 .L0 
    4d78     4d78        0     1                 .L0 
    4d90     4d90        0     1                 .L0 
    4db0     4db0        0     1                 .L0 
    4dd0     4dd0        0     1                 .L0 
    4de8     4de8        0     1                 .L0 
    4e08     4e08        0     1                 .L0 
    4e28     4e28        0     1                 .L0 
    4e48     4e48        0     1                 .L0 
    4e60     4e60        0     1                 .L0 
    4e78     4e78        0     1                 .L0 
    4e90     4e90        0     1                 .L0 
    4ea8     4ea8        0     1                 .L0 
    4ec0     4ec0        0     1                 .L0 
    4ee0     4ee0        0     1                 .L0 
    4f00     4f00        0     1                 .L0 
    4f20     4f20        0     1                 .L0 
    4f40     4f40        0     1                 .L0 
    4f58     4f58        0     1                 .L0 
    4f70     4f70        0     1                 .L0 
    4f90     4f90        0     1                 .L0 
    4fa8     4fa8        0     1                 .L0 
    4fc8     4fc8        0     1                 .L0 
    4fe8     4fe8        0     1                 .L0 
    5000     5000        0     1                 .L0 
    5020     5020        0     1                 .L0 
    5038     5038        0     1                 .L0 
    5050     5050        0     1                 .L0 
    5070     5070        0     1                 .L0 
    5090     5090        0     1                 .L0 
    50a8     50a8        0     1                 .L0 
    50c8     50c8        0     1                 .L0 
    50e0     50e0        0     1                 .L0 
    50f8     50f8        0     1                 .L0 
    5110     5110        0     1                 .L0 
    5130     5130        0     1                 .L0 
    5158     5158        0     1                 .L0 
    5170     5170        0     1                 .L0 
    5188     5188        0     1                 .L0 
    51a0     51a0        0     1                 .L0 
    51b8     51b8        0     1                 .L0 
    51d0     51d0        0     1                 .L0 
    51e8     51e8        0     1                 .L0 
    5200     5200        0     1                 .L0 
    5218     5218        0     1                 .L0 
    5230     5230        0     1                 .L0 
    5248     5248        0     1                 .L0 
    5260     5260        0     1                 .L0 
    5278     5278        0     1                 .L0 
    5290     5290        0     1                 .L0 
    52a8     52a8        0     1                 .L0 
    52c0     52c0        0     1                 .L0 
    52d8     52d8        0     1                 .L0 
    52f0     52f0        0     1                 .L0 
    5308     5308        0     1                 .L0 
    5320     5320        0     1                 .L0 
    5338     5338        0     1                 .L0 
    5350     5350        0     1                 .L0 
    5368     5368        0     1                 .L0 
    5388     5388        0     1                 .L0 
    53a0     53a0        0     1                 .L0 
    53b8     53b8        0     1                 .L0 
    53d0     53d0        0     1                 .L0 
    53e8     53e8        0     1                 .L0 
    5400     5400        0     1                 .L0 
    5418     5418        0     1                 .L0 
    5430     5430        0     1                 .L0 
    5448     5448        0     1                 .L0 
    5468     5468        0     1                 .L0 
    5490     5490        0     1                 .L0 
    54c0     54c0        0     1                 .L0 
    5500     5500        0     1                 .L0 
    5530     5530        0     1                 .L0 
    5558     5558        0     1                 .L0 
    5570     5570        0     1                 .L0 
    5588     5588        0     1                 .L0 
    55e0     55e0        0     1                 .L0 
    5620     5620        0     1                 .L0 
    5658     5658        0     1                 .L0 
    5690     5690        0     1                 .L0 
    56c8     56c8        0     1                 .L0 
    56e0     56e0        0     1                 .L0 
    5700     5700        0     1                 .L0 
    5738     5738        0     1                 .L0 
    5760     5760        0     1                 .L0 
    5788     5788        0     1                 .L0 
    57a0     57a0        0     1                 .L0 
    57b8     57b8        0     1                 .L0 
    57d0     57d0        0     1                 .L0 
    57f8     57f8        0     1                 .L0 
    5810     5810        0     1                 .L0 
    5828     5828        0     1                 .L0 
    5840     5840        0     1                 .L0 
    5868     5868        0     1                 .L0 
    5880     5880        0     1                 .L0 
    5898     5898        0     1                 .L0 
    58b8     58b8        0     1                 .L0 
    58d0     58d0        0     1                 .L0 
    58f0     58f0        0     1                 .L0 
    5910     5910        0     1                 .L0 
    5938     5938        0     1                 .L0 
    5958     5958        0     1                 .L0 
    5970     5970        0     1                 .L0 
    5988     5988        0     1                 .L0 
    59b0     59b0        0     1                 .L0 
    59d0     59d0        0     1                 .L0 
    59e8     59e8        0     1                 .L0 
    5a00     5a00        0     1                 .L0 
    5a18     5a18        0     1                 .L0 
    5a38     5a38        0     1                 .L0 
    5a50     5a50        0     1                 .L0 
    5a68     5a68        0     1                 .L0 
    5a80     5a80        0     1                 .L0 
    5a98     5a98        0     1                 .L0 
    5ab0     5ab0        0     1                 .L0 
    5ac8     5ac8        0     1                 .L0 
    5ae8     5ae8        0     1                 .L0 
    5b08     5b08        0     1                 .L0 
    5b28     5b28        0     1                 .L0 
    5b40     5b40        0     1                 .L0 
    5b58     5b58        0     1                 .L0 
    5b78     5b78        0     1                 .L0 
    5b98     5b98        0     1                 .L0 
    5bb8     5bb8        0     1                 .L0 
    5bd0     5bd0        0     1                 .L0 
    5be8     5be8        0     1                 .L0 
    5c08     5c08        0     1                 .L0 
    5c28     5c28        0     1                 .L0 
    5c40     5c40        0     1                 .L0 
    5c58     5c58        0     1                 .L0 
    5c78     5c78        0     1                 .L0 
    5c98     5c98        0     1                 .L0 
    5cc0     5cc0        0     1                 .L0 
    5ce0     5ce0        0     1                 .L0 
    5d00     5d00        0     1                 .L0 
    5d18     5d18        0     1                 .L0 
    5d40     5d40        0     1                 .L0 
    5d60     5d60        0     1                 .L0 
    5d90     5d90        0     1                 .L0 
    5db8     5db8        0     1                 .L0 
    5dd0     5dd0        0     1                 .L0 
    5de8     5de8        0     1                 .L0 
    5e00     5e00        0     1                 .L0 
    5e20     5e20        0     1                 .L0 
    5e40     5e40        0     1                 .L0 
    5e60     5e60        0     1                 .L0 
    5e78     5e78        0     1                 .L0 
    5e90     5e90        0     1                 .L0 
    5eb8     5eb8        0     1                 .L0 
    5ed8     5ed8        0     1                 .L0 
    5ef8     5ef8        0     1                 .L0 
    5f10     5f10        0     1                 .L0 
    5f38     5f38        0     1                 .L0 
    5f58     5f58        0     1                 .L0 
    5f80     5f80        0     1                 .L0 
    5fa0     5fa0        0     1                 .L0 
    5fb8     5fb8        0     1                 .L0 
    5fd0     5fd0        0     1                 .L0 
    5ff0     5ff0        0     1                 .L0 
    6010     6010        0     1                 .L0 
    6038     6038        0     1                 .L0 
    6058     6058        0     1                 .L0 
    6070     6070        0     1                 .L0 
    6088     6088        0     1                 .L0 
    60a8     60a8        0     1                 .L0 
    60c8     60c8        0     1                 .L0 
    60e8     60e8        0     1                 .L0 
    6100     6100        0     1                 .L0 
    6118     6118        0     1                 .L0 
    6138     6138        0     1                 .L0 
    6158     6158        0     1                 .L0 
    6180     6180        0     1                 .L0 
    61a0     61a0        0     1                 .L0 
    61b8     61b8        0     1                 .L0 
    61d0     61d0        0     1                 .L0 
    61f0     61f0        0     1                 .L0 
    6210     6210        0     1                 .L0 
    6230     6230        0     1                 .L0 
    6250     6250        0     1                 .L0 
    6270     6270        0     1                 .L0 
    6288     6288        0     1                 .L0 
    62a0     62a0        0     1                 .L0 
    62c0     62c0        0     1                 .L0 
    62d8     62d8        0     1                 .L0 
    62f8     62f8        0     1                 .L0 
    6310     6310        0     1                 .L0 
    6330     6330        0     1                 .L0 
    6348     6348        0     1                 .L0 
    6360     6360        0     1                 .L0 
    6378     6378        0     1                 .L0 
    6390     6390        0     1                 .L0 
    63b8     63b8        0     1                 .L0 
    63d8     63d8        0     1                 .L0 
    6400     6400        0     1                 .L0 
    6420     6420        0     1                 .L0 
    6440     6440        0     1                 .L0 
    6458     6458        0     1                 .L0 
    6470     6470        0     1                 .L0 
    6488     6488        0     1                 .L0 
    64a0     64a0        0     1                 .L0 
    64b8     64b8        0     1                 .L0 
    64d0     64d0        0     1                 .L0 
    64e8     64e8        0     1                 .L0 
    6500     6500        0     1                 .L0 
    6528     6528        0     1                 .L0 
    6540     6540        0     1                 .L0 
    6558     6558        0     1                 .L0 
    6570     6570        0     1                 .L0 
    65a8     65a8        0     1                 .L0 
    65c0     65c0        0     1                 .L0 
    65d8     65d8        0     1                 .L0 
    65f0     65f0        0     1                 .L0 
    6650     6650        0     1                 .L0 
    6668     6668        0     1                 .L0 
    6680     6680        0     1                 .L0 
    6698     6698        0     1                 .L0 
    66c0     66c0        0     1                 .L0 
    66e0     66e0        0     1                 .L0 
    66f8     66f8        0     1                 .L0 
    6710     6710        0     1                 .L0 
    6750     6750        0     1                 .L0 
    6788     6788        0     1                 .L0 
    67a0     67a0        0     1                 .L0 
    67d0     67d0        0     1                 .L0 
    67e8     67e8        0     1                 .L0 
    6818     6818        0     1                 .L0 
    6838     6838        0     1                 .L0 
    6850     6850        0     1                 .L0 
    6868     6868        0     1                 .L0 
    6880     6880        0     1                 .L0 
    6898     6898        0     1                 .L0 
    68b0     68b0        0     1                 .L0 
    68d0     68d0        0     1                 .L0 
    68e8     68e8        0     1                 .L0 
    6900     6900        0     1                 .L0 
    6918     6918        0     1                 .L0 
    6930     6930        0     1                 .L0 
    6948     6948        0     1                 .L0 
    6960     6960        0     1                 .L0 
    6980     6980        0     1                 .L0 
    69a0     69a0        0     1                 .L0 
    69b8     69b8        0     1                 .L0 
    69d8     69d8        0     1                 .L0 
    69f8     69f8        0     1                 .L0 
    6a10     6a10        0     1                 .L0 
    6a28     6a28        0     1                 .L0 
    6a48     6a48        0     1                 .L0 
    6a60     6a60        0     1                 .L0 
    6a78     6a78        0     1                 .L0 
    6a90     6a90        0     1                 .L0 
    6ac8     6ac8        0     1                 .L0 
    6af8     6af8        0     1                 .L0 
    6b30     6b30        0     1                 .L0 
    6b60     6b60        0     1                 .L0 
    6b78     6b78        0     1                 .L0 
    6b98     6b98        0     1                 .L0 
    6bf8     6bf8        0     1                 .L0 
    6c58     6c58        0     1                 .L0 
    6cb0     6cb0        0     1                 .L0 
    6cc8     6cc8        0     1                 .L0 
    6ce0     6ce0        0     1                 .L0 
    6d38     6d38        0     1                 .L0 
    6d98     6d98        0     1                 .L0 
    6df0     6df0        0     1                 .L0 
    6e08     6e08        0     1                 .L0 
    6e20     6e20        0     1                 .L0 
    6e38     6e38        0     1                 .L0 
    6e50     6e50        0     1                 .L0 
    6e68     6e68        0     1                 .L0 
    6ea0     6ea0        0     1                 .L0 
    6ec8     6ec8        0     1                 .L0 
    6f00     6f00        0     1                 .L0 
    6f30     6f30        0     1                 .L0 
    6f48     6f48        0     1                 .L0 
    6f68     6f68        0     1                 .L0 
    6f80     6f80        0     1                 .L0 
    6fb8     6fb8        0     1                 .L0 
    6ff0     6ff0        0     1                 .L0 
    7008     7008        0     1                 .L0 
    7038     7038        0     1                 .L0 
    7050     7050        0     1                 .L0 
    7070     7070        0     1                 .L0 
    7088     7088        0     1                 .L0 
    70c0     70c0        0     1                 .L0 
    70f8     70f8        0     1                 .L0 
    7130     7130        0     1                 .L0 
    7160     7160        0     1                 .L0 
    7178     7178        0     1                 .L0 
    7198     7198        0     1                 .L0 
    71b0     71b0        0     1                 .L0 
    71e8     71e8        0     1                 .L0 
    7218     7218        0     1                 .L0 
    7248     7248        0     1                 .L0 
    7270     7270        0     1                 .L0 
    7288     7288        0     1                 .L0 
    72a8     72a8        0     1                 .L0 
    72c8     72c8        0     1                 .L0 
    72e8     72e8        0     1                 .L0 
    7300     7300        0     1                 .L0 
    7318     7318        0     1                 .L0 
    7330     7330        0     1                 .L0 
    7350     7350        0     1                 .L0 
    7368     7368        0     1                 .L0 
    7380     7380        0     1                 .L0 
    7398     7398        0     1                 .L0 
    73b0     73b0        0     1                 .L0 
    73c8     73c8        0     1                 .L0 
    73e0     73e0        0     1                 .L0 
    7400     7400        0     1                 .L0 
    7418     7418        0     1                 .L0 
    7430     7430        0     1                 .L0 
    7448     7448        0     1                 .L0 
    7460     7460        0     1                 .L0 
    7478     7478        0     1                 .L0 
    7490     7490        0     1                 .L0 
    74a8     74a8        0     1                 .L0 
    74c0     74c0        0     1                 .L0 
    74d8     74d8        0     1                 .L0 
    74f0     74f0        0     1                 .L0 
    7508     7508        0     1                 .L0 
    7520     7520        0     1                 .L0 
    7550     7550        0     1                 .L0 
    7580     7580        0     1                 .L0 
    75a0     75a0        0     1                 .L0 
    75c8     75c8        0     1                 .L0 
    75e0     75e0        0     1                 .L0 
    7600     7600        0     1                 .L0 
    7628     7628        0     1                 .L0 
    7640     7640        0     1                 .L0 
    7658     7658        0     1                 .L0 
    7670     7670        0     1                 .L0 
    7688     7688        0     1                 .L0 
    76a0     76a0        0     1                 .L0 
    76b8     76b8        0     1                 .L0 
    76d0     76d0        0     1                 .L0 
    76e8     76e8        0     1                 .L0 
    7700     7700        0     1                 .L0 
    7720     7720        0     1                 .L0 
    7738     7738        0     1                 .L0 
    7750     7750        0     1                 .L0 
    7780     7780        0     1                 .L0 
    7798     7798        0     1                 .L0 
    77b0     77b0        0     1                 .L0 
    77c8     77c8        0     1                 .L0 
    77e0     77e0        0     1                 .L0 
    77f8     77f8        0     1                 .L0 
    7810     7810        0     1                 .L0 
    7828     7828        0     1                 .L0 
    7840     7840        0     1                 .L0 
    7858     7858        0     1                 .L0 
    7870     7870        0     1                 .L0 
    7890     7890        0     1                 .L0 
    78a8     78a8        0     1                 .L0 
    78c0     78c0        0     1                 .L0 
    78d8     78d8        0     1                 .L0 
    78f0     78f0        0     1                 .L0 
    7908     7908        0     1                 .L0 
    7920     7920        0     1                 .L0 
    7940     7940        0     1                 .L0 
    7958     7958        0     1                 .L0 
    7970     7970        0     1                 .L0 
    7988     7988        0     1                 .L0 
    79a0     79a0        0     1                 .L0 
    79b8     79b8        0     1                 .L0 
    79d0     79d0        0     1                 .L0 
    79e8     79e8        0     1                 .L0 
    7a58     7a58        0     1                 .L0 
    7a80     7a80        0     1                 .L0 
    7aa0     7aa0        0     1                 .L0 
    7ac0     7ac0        0     1                 .L0 
    7ae0     7ae0        0     1                 .L0 
    7b08     7b08        0     1                 .L0 
    7b78     7b78        0     1                 .L0 
    7ba8     7ba8        0     1                 .L0 
    7bd0     7bd0        0     1                 .L0 
    7be8     7be8        0     1                 .L0 
    7c00     7c00        0     1                 .L0 
    7c28     7c28        0     1                 .L0 
    7c40     7c40        0     1                 .L0 
    7c58     7c58        0     1                 .L0 
    7c70     7c70        0     1                 .L0 
    7c88     7c88        0     1                 .L0 
    7ca0     7ca0        0     1                 .L0 
    7cb8     7cb8        0     1                 .L0 
    7ce0     7ce0        0     1                 .L0 
    7cf8     7cf8        0     1                 .L0 
    7d10     7d10        0     1                 .L0 
    7d28     7d28        0     1                 .L0 
    7d48     7d48        0     1                 .L0 
    7d60     7d60        0     1                 .L0 
    7d78     7d78        0     1                 .L0 
    7da0     7da0        0     1                 .L0 
    7dc8     7dc8        0     1                 .L0 
    7df0     7df0        0     1                 .L0 
    7e08     7e08        0     1                 .L0 
    7e20     7e20        0     1                 .L0 
    7e38     7e38        0     1                 .L0 
    7e50     7e50        0     1                 .L0 
    7e68     7e68        0     1                 .L0 
    7e80     7e80        0     1                 .L0 
    7ea8     7ea8        0     1                 .L0 
    7ec0     7ec0        0     1                 .L0 
    7ed8     7ed8        0     1                 .L0 
    7ef0     7ef0        0     1                 .L0 
    7f08     7f08        0     1                 .L0 
    7f20     7f20        0     1                 .L0 
    7f40     7f40        0     1                 .L0 
    7fa0     7fa0        0     1                 .L0 
    7ff8     7ff8        0     1                 .L0 
    8018     8018        0     1                 .L0 
    8038     8038        0     1                 .L0 
    8058     8058        0     1                 .L0 
    8078     8078        0     1                 .L0 
    8098     8098        0     1                 .L0 
    80b8     80b8        0     1                 .L0 
    80e8     80e8        0     1                 .L0 
    8118     8118        0     1                 .L0 
    8190     8190        0     1                 .L0 
    81c8     81c8        0     1                 .L0 
    81e8     81e8        0     1                 .L0 
    8200     8200        0     1                 .L0 
    8218     8218        0     1                 .L0 
    8230     8230        0     1                 .L0 
    8248     8248        0     1                 .L0 
    8288     8288        0     1                 .L0 
    82b0     82b0        0     1                 .L0 
    82c8     82c8        0     1                 .L0 
    82e0     82e0        0     1                 .L0 
    82f8     82f8        0     1                 .L0 
    8320     8320        0     1                 .L0 
    8338     8338        0     1                 .L0 
    8350     8350        0     1                 .L0 
    8368     8368        0     1                 .L0 
    8380     8380        0     1                 .L0 
    8398     8398        0     1                 .L0 
    83b0     83b0        0     1                 .L0 
    83d0     83d0        0     1                 .L0 
    83e8     83e8        0     1                 .L0 
    8400     8400        0     1                 .L0 
    8418     8418        0     1                 .L0 
    8430     8430        0     1                 .L0 
    8448     8448        0     1                 .L0 
    8468     8468        0     1                 .L0 
    8480     8480        0     1                 .L0 
    8498     8498        0     1                 .L0 
    84b0     84b0        0     1                 .L0 
    84d0     84d0        0     1                 .L0 
    84f0     84f0        0     1                 .L0 
    8508     8508        0     1                 .L0 
    8520     8520        0     1                 .L0 
    8538     8538        0     1                 .L0 
    8550     8550        0     1                 .L0 
    8568     8568        0     1                 .L0 
    8580     8580        0     1                 .L0 
    8598     8598        0     1                 .L0 
    85c8     85c8        0     1                 .L0 
    85f0     85f0        0     1                 .L0 
    8608     8608        0     1                 .L0 
    8620     8620        0     1                 .L0 
    8638     8638        0     1                 .L0 
    8650     8650        0     1                 .L0 
    8668     8668        0     1                 .L0 
    8680     8680        0     1                 .L0 
    8698     8698        0     1                 .L0 
    86b0     86b0        0     1                 .L0 
    86c8     86c8        0     1                 .L0 
    86e0     86e0        0     1                 .L0 
    86f8     86f8        0     1                 .L0 
    8710     8710        0     1                 .L0 
    8728     8728        0     1                 .L0 
    8748     8748        0     1                 .L0 
    8768     8768        0     1                 .L0 
    8780     8780        0     1                 .L0 
    8798     8798        0     1                 .L0 
    87b0     87b0        0     1                 .L0 
    87d0     87d0        0     1                 .L0 
    87e8     87e8        0     1                 .L0 
    8800     8800        0     1                 .L0 
    8818     8818        0     1                 .L0 
    8830     8830        0     1                 .L0 
    8858     8858        0     1                 .L0 
    8870     8870        0     1                 .L0 
    8888     8888        0     1                 .L0 
    88a0     88a0        0     1                 .L0 
    88b8     88b8        0     1                 .L0 
    88d0     88d0        0     1                 .L0 
    88e8     88e8        0     1                 .L0 
    8900     8900        0     1                 .L0 
    8918     8918        0     1                 .L0 
    8930     8930        0     1                 .L0 
    8948     8948        0     1                 .L0 
    8960     8960        0     1                 .L0 
    8978     8978        0     1                 .L0 
    8998     8998        0     1                 .L0 
    89b0     89b0        0     1                 .L0 
    89d0     89d0        0     1                 .L0 
    89e8     89e8        0     1                 .L0 
    8a28     8a28        0     1                 .L0 
    8a68     8a68        0     1                 .L0 
    8a80     8a80        0     1                 .L0 
    8ac0     8ac0        0     1                 .L0 
    8ae0     8ae0        0     1                 .L0 
    8af8     8af8        0     1                 .L0 
    8b10     8b10        0     1                 .L0 
    8b28     8b28        0     1                 .L0 
    8b48     8b48        0     1                 .L0 
    8b60     8b60        0     1                 .L0 
    8b88     8b88        0     1                 .L0 
    8bc8     8bc8        0     1                 .L0 
    8be8     8be8        0     1                 .L0 
    8c00     8c00        0     1                 .L0 
    8c18     8c18        0     1                 .L0 
    8c40     8c40        0     1                 .L0 
    8c68     8c68        0     1                 .L0 
    8c80     8c80        0     1                 .L0 
    8c98     8c98        0     1                 .L0 
    8cb0     8cb0        0     1                 .L0 
    8cc8     8cc8        0     1                 .L0 
    8ce0     8ce0        0     1                 .L0 
    8d08     8d08        0     1                 .L0 
    8d30     8d30        0     1                 .L0 
    8d48     8d48        0     1                 .L0 
    8d70     8d70        0     1                 .L0 
    8d98     8d98        0     1                 .L0 
    8dc0     8dc0        0     1                 .L0 
    8dd8     8dd8        0     1                 .L0 
    8e00     8e00        0     1                 .L0 
    8e18     8e18        0     1                 .L0 
    8e40     8e40        0     1                 .L0 
    8e68     8e68        0     1                 .L0 
    8e80     8e80        0     1                 .L0 
    8ea8     8ea8        0     1                 .L0 
    8ed8     8ed8        0     1                 .L0 
    8ef0     8ef0        0     1                 .L0 
    8f20     8f20        0     1                 .L0 
    8f58     8f58        0     1                 .L0 
    8f78     8f78        0     1                 .L0 
    8f98     8f98        0     1                 .L0 
    8fb0     8fb0        0     1                 .L0 
    8fc8     8fc8        0     1                 .L0 
    8fe8     8fe8        0     1                 .L0 
    9000     9000        0     1                 .L0 
    9018     9018        0     1                 .L0 
    9040     9040        0     1                 .L0 
    9068     9068        0     1                 .L0 
    9080     9080        0     1                 .L0 
    9098     9098        0     1                 .L0 
    90c0     90c0        0     1                 .L0 
    90d8     90d8        0     1                 .L0 
    90f0     90f0        0     1                 .L0 
    9108     9108        0     1                 .L0 
    9120     9120        0     1                 .L0 
    9138     9138        0     1                 .L0 
    9158     9158        0     1                 .L0 
    9170     9170        0     1                 .L0 
    9188     9188        0     1                 .L0 
    91a8     91a8        0     1                 .L0 
    91c0     91c0        0     1                 .L0 
    91d8     91d8        0     1                 .L0 
    91f0     91f0        0     1                 .L0 
    9218     9218        0     1                 .L0 
    9238     9238        0     1                 .L0 
    9250     9250        0     1                 .L0 
    9280     9280        0     1                 .L0 
    92a8     92a8        0     1                 .L0 
    92e0     92e0        0     1                 .L0 
    9300     9300        0     1                 .L0 
    9338     9338        0     1                 .L0 
    9350     9350        0     1                 .L0 
    9368     9368        0     1                 .L0 
    9388     9388        0     1                 .L0 
    93a8     93a8        0     1                 .L0 
    93d8     93d8        0     1                 .L0 
    93f0     93f0        0     1                 .L0 
    9410     9410        0     1                 .L0 
    9428     9428        0     1                 .L0 
    9440     9440        0     1                 .L0 
    9460     9460        0     1                 .L0 
    9478     9478        0     1                 .L0 
    94a8     94a8        0     1                 .L0 
    94d0     94d0        0     1                 .L0 
    94f0     94f0        0     1                 .L0 
    9510     9510        0     1                 .L0 
    9528     9528        0     1                 .L0 
    9540     9540        0     1                 .L0 
    9558     9558        0     1                 .L0 
    9578     9578        0     1                 .L0 
    9590     9590        0     1                 .L0 
    95a8     95a8        0     1                 .L0 
    95c0     95c0        0     1                 .L0 
    95e0     95e0        0     1                 .L0 
    9600     9600        0     1                 .L0 
    9618     9618        0     1                 .L0 
    9630     9630        0     1                 .L0 
    9648     9648        0     1                 .L0 
    9660     9660        0     1                 .L0 
    9678     9678        0     1                 .L0 
    9690     9690        0     1                 .L0 
    96a8     96a8        0     1                 .L0 
    96c0     96c0        0     1                 .L0 
    96d8     96d8        0     1                 .L0 
    96f0     96f0        0     1                 .L0 
    9708     9708        0     1                 .L0 
    9720     9720        0     1                 .L0 
    9738     9738        0     1                 .L0 
    9750     9750        0     1                 .L0 
    9768     9768        0     1                 .L0 
    9780     9780        0     1                 .L0 
    9798     9798        0     1                 .L0 
    97b0     97b0        0     1                 .L0 
    97c8     97c8        0     1                 .L0 
    97e0     97e0        0     1                 .L0 
    97f8     97f8        0     1                 .L0 
    9810     9810        0     1                 .L0 
    9828     9828        0     1                 .L0 
    9840     9840        0     1                 .L0 
    9868     9868        0     1                 .L0 
    9890     9890        0     1                 .L0 
    98a8     98a8        0     1                 .L0 
    98c0     98c0        0     1                 .L0 
    98e0     98e0        0     1                 .L0 
    98f8     98f8        0     1                 .L0 
    9910     9910        0     1                 .L0 
    9928     9928        0     1                 .L0 
    9940     9940        0     1                 .L0 
    9958     9958        0     1                 .L0 
    9970     9970        0     1                 .L0 
    9988     9988        0     1                 .L0 
    99a0     99a0        0     1                 .L0 
    99b8     99b8        0     1                 .L0 
    99d0     99d0        0     1                 .L0 
    99e8     99e8        0     1                 .L0 
    9a18     9a18        0     1                 .L0 
    9a30     9a30        0     1                 .L0 
    9a60     9a60        0     1                 .L0 
    9a88     9a88        0     1                 .L0 
    9aa8     9aa8        0     1                 .L0 
    9ac0     9ac0        0     1                 .L0 
    9ad8     9ad8        0     1                 .L0 
    9af0     9af0        0     1                 .L0 
    9b18     9b18        0     1                 .L0 
    9b40     9b40        0     1                 .L0 
    9b60     9b60        0     1                 .L0 
    9b78     9b78        0     1                 .L0 
    9ba0     9ba0        0     1                 .L0 
    9bc0     9bc0        0     1                 .L0 
    9bd8     9bd8        0     1                 .L0 
    9bf8     9bf8        0     1                 .L0 
    9c18     9c18        0     1                 .L0 
    9c30     9c30        0     1                 .L0 
    9c58     9c58        0     1                 .L0 
    9c88     9c88        0     1                 .L0 
    9ca0     9ca0        0     1                 .L0 
    9cb8     9cb8        0     1                 .L0 
    9cd0     9cd0        0     1                 .L0 
    9ce8     9ce8        0     1                 .L0 
    9d08     9d08        0     1                 .L0 
    9d20     9d20        0     1                 .L0 
    9d38     9d38        0     1                 .L0 
    9d50     9d50        0     1                 .L0 
    9d68     9d68        0     1                 .L0 
    9d80     9d80        0     1                 .L0 
    9d98     9d98        0     1                 .L0 
    9db0     9db0        0     1                 .L0 
    9dc8     9dc8        0     1                 .L0 
    9de0     9de0        0     1                 .L0 
    9e08     9e08        0     1                 .L0 
    9e20     9e20        0     1                 .L0 
    9e38     9e38        0     1                 .L0 
    9e50     9e50        0     1                 .L0 
    9e68     9e68        0     1                 .L0 
    9e80     9e80        0     1                 .L0 
    9e98     9e98        0     1                 .L0 
    9eb0     9eb0        0     1                 .L0 
    9ec8     9ec8        0     1                 .L0 
    9ee0     9ee0        0     1                 .L0 
    9f00     9f00        0     1                 .L0 
    9f18     9f18        0     1                 .L0 
    9f30     9f30        0     1                 .L0 
    9f48     9f48        0     1                 .L0 
    9f68     9f68        0     1                 .L0 
    9f80     9f80        0     1                 .L0 
    9fa0     9fa0        0     1                 .L0 
    9fb8     9fb8        0     1                 .L0 
    9fd0     9fd0        0     1                 .L0 
    9fe8     9fe8        0     1                 .L0 
    a000     a000        0     1                 .L0 
    a018     a018        0     1                 .L0 
    a030     a030        0     1                 .L0 
    b180     b180       18     1         /home/famous282/.rustup/toolchains/stable-x86_64-unknown-linux-gnu/lib/rustlib/riscv32imac-unknown-none-elf/lib/libcompiler_builtins-ad31f96eaed4fe7a.rlib(compiler_builtins-ad31f96eaed4fe7a.compiler_builtins.a8dbbfe33f18591e-cgu.105.rcgu.o):(.debug_ranges)
    b180     b180        0     1                 .L0 
    b180     b180        0     1                 $d
    b198     b198      168     1         /home/famous282/.rustup/toolchains/stable-x86_64-unknown-linux-gnu/lib/rustlib/riscv32imac-unknown-none-elf/lib/libcompiler_builtins-ad31f96eaed4fe7a.rlib(compiler_builtins-ad31f96eaed4fe7a.compiler_builtins.a8dbbfe33f18591e-cgu.016.rcgu.o):(.debug_ranges)
    b198     b198        0     1                 .L0 
    b198     b198        0     1                 $d
    b1b0     b1b0        0     1                 .L0 
    b1d0     b1d0        0     1                 .L0 
    b1e8     b1e8        0     1                 .L0 
    b200     b200        0     1                 .L0 
    b218     b218        0     1                 .L0 
    b238     b238        0     1                 .L0 
    b258     b258        0     1                 .L0 
    b270     b270        0     1                 .L0 
    b288     b288        0     1                 .L0 
    b2a0     b2a0        0     1                 .L0 
    b2b8     b2b8        0     1                 .L0 
    b2d0     b2d0        0     1                 .L0 
    b2e8     b2e8        0     1                 .L0 
    b300     b300       20     1         /home/famous282/.rustup/toolchains/stable-x86_64-unknown-linux-gnu/lib/rustlib/riscv32imac-unknown-none-elf/lib/libcompiler_builtins-ad31f96eaed4fe7a.rlib(compiler_builtins-ad31f96eaed4fe7a.compiler_builtins.a8dbbfe33f18591e-cgu.162.rcgu.o):(.debug_ranges)
    b300     b300        0     1                 .L0 
    b300     b300        0     1                 $d
    b320     b320       48     1         /home/famous282/.rustup/toolchains/stable-x86_64-unknown-linux-gnu/lib/rustlib/riscv32imac-unknown-none-elf/lib/libcompiler_builtins-ad31f96eaed4fe7a.rlib(compiler_builtins-ad31f96eaed4fe7a.compiler_builtins.a8dbbfe33f18591e-cgu.199.rcgu.o):(.debug_ranges)
    b320     b320        0     1                 .L0 
    b320     b320        0     1                 $d
    b338     b338        0     1                 .L0 
    b350     b350        0     1                 .L0 
    b368     b368       60     1         /home/famous282/.rustup/toolchains/stable-x86_64-unknown-linux-gnu/lib/rustlib/riscv32imac-unknown-none-elf/lib/libcompiler_builtins-ad31f96eaed4fe7a.rlib(compiler_builtins-ad31f96eaed4fe7a.compiler_builtins.a8dbbfe33f18591e-cgu.225.rcgu.o):(.debug_ranges)
    b368     b368        0     1                 .L0 
    b368     b368        0     1                 $d
    b380     b380        0     1                 .L0 
    b398     b398        0     1                 .L0 
    b3b0     b3b0        0     1                 .L0 
    b3c8     b3c8      620     1         /home/famous282/.rustup/toolchains/stable-x86_64-unknown-linux-gnu/lib/rustlib/riscv32imac-unknown-none-elf/lib/libcompiler_builtins-ad31f96eaed4fe7a.rlib(compiler_builtins-ad31f96eaed4fe7a.compiler_builtins.a8dbbfe33f18591e-cgu.003.rcgu.o):(.debug_ranges)
    b3c8     b3c8        0     1                 .L0 
    b3c8     b3c8        0     1                 $d
    b3e0     b3e0        0     1                 .L0 
    b3f8     b3f8        0     1                 .L0 
    b410     b410        0     1                 .L0 
    b428     b428        0     1                 .L0 
    b440     b440        0     1                 .L0 
    b470     b470        0     1                 .L0 
    b4b8     b4b8        0     1                 .L0 
    b510     b510        0     1                 .L0 
    b560     b560        0     1                 .L0 
    b578     b578        0     1                 .L0 
    b5a8     b5a8        0     1                 .L0 
    b5c0     b5c0        0     1                 .L0 
    b5d8     b5d8        0     1                 .L0 
    b5f0     b5f0        0     1                 .L0 
    b608     b608        0     1                 .L0 
    b620     b620        0     1                 .L0 
    b638     b638        0     1                 .L0 
    b650     b650        0     1                 .L0 
    b668     b668        0     1                 .L0 
    b680     b680        0     1                 .L0 
    b698     b698        0     1                 .L0 
    b6b0     b6b0        0     1                 .L0 
    b6c8     b6c8        0     1                 .L0 
    b710     b710        0     1                 .L0 
    b728     b728        0     1                 .L0 
    b740     b740        0     1                 .L0 
    b760     b760        0     1                 .L0 
    b778     b778        0     1                 .L0 
    b790     b790        0     1                 .L0 
    b7b8     b7b8        0     1                 .L0 
    b7f8     b7f8        0     1                 .L0 
    b810     b810        0     1                 .L0 
    b830     b830        0     1                 .L0 
    b858     b858        0     1                 .L0 
    b870     b870        0     1                 .L0 
    b888     b888        0     1                 .L0 
    b8a0     b8a0        0     1                 .L0 
    b8b8     b8b8        0     1                 .L0 
    b8d0     b8d0        0     1                 .L0 
    b8e8     b8e8        0     1                 .L0 
    b930     b930        0     1                 .L0 
    b948     b948        0     1                 .L0 
    b960     b960        0     1                 .L0 
    b978     b978        0     1                 .L0 
    b990     b990        0     1                 .L0 
    b9a8     b9a8        0     1                 .L0 
    b9c0     b9c0        0     1                 .L0 
    b9e8     b9e8      1f0     1         /home/famous282/.rustup/toolchains/stable-x86_64-unknown-linux-gnu/lib/rustlib/riscv32imac-unknown-none-elf/lib/libcompiler_builtins-ad31f96eaed4fe7a.rlib(compiler_builtins-ad31f96eaed4fe7a.compiler_builtins.a8dbbfe33f18591e-cgu.017.rcgu.o):(.debug_ranges)
    b9e8     b9e8        0     1                 .L0 
    b9e8     b9e8        0     1                 $d
    ba10     ba10        0     1                 .L0 
    ba60     ba60        0     1                 .L0 
    bab0     bab0        0     1                 .L0 
    bb08     bb08        0     1                 .L0 
    bb48     bb48        0     1                 .L0 
    bb88     bb88        0     1                 .L0 
    bbd8     bbd8       58     1         /home/famous282/.rustup/toolchains/stable-x86_64-unknown-linux-gnu/lib/rustlib/riscv32imac-unknown-none-elf/lib/libcompiler_builtins-ad31f96eaed4fe7a.rlib(compiler_builtins-ad31f96eaed4fe7a.compiler_builtins.a8dbbfe33f18591e-cgu.236.rcgu.o):(.debug_ranges)
    bbd8     bbd8        0     1                 .L0 
    bbd8     bbd8        0     1                 $d
    bbf0     bbf0        0     1                 .L0 
    bc10     bc10        0     1                 .L0 
    bc30     bc30       20     1         /home/famous282/.rustup/toolchains/stable-x86_64-unknown-linux-gnu/lib/rustlib/riscv32imac-unknown-none-elf/lib/libcompiler_builtins-ad31f96eaed4fe7a.rlib(compiler_builtins-ad31f96eaed4fe7a.compiler_builtins.a8dbbfe33f18591e-cgu.239.rcgu.o):(.debug_ranges)
    bc30     bc30        0     1                 .L0 
    bc30     bc30        0     1                 $d
    bc50     bc50      d30     1         /home/famous282/.rustup/toolchains/stable-x86_64-unknown-linux-gnu/lib/rustlib/riscv32imac-unknown-none-elf/lib/libcompiler_builtins-ad31f96eaed4fe7a.rlib(compiler_builtins-ad31f96eaed4fe7a.compiler_builtins.a8dbbfe33f18591e-cgu.000.rcgu.o):(.debug_ranges)
    bc50     bc50        0     1                 .L0 
    bc50     bc50        0     1                 $d
    bc68     bc68        0     1                 .L0 
    bc80     bc80        0     1                 .L0 
    bca0     bca0        0     1                 .L0 
    bcc0     bcc0        0     1                 .L0 
    bce0     bce0        0     1                 .L0 
    bd60     bd60        0     1                 .L0 
    bde0     bde0        0     1                 .L0 
    be88     be88        0     1                 .L0 
    bf30     bf30        0     1                 .L0 
    bf48     bf48        0     1                 .L0 
    bf88     bf88        0     1                 .L0 
    bfd0     bfd0        0     1                 .L0 
    c000     c000        0     1                 .L0 
    c040     c040        0     1                 .L0 
    c0a8     c0a8        0     1                 .L0 
    c0e0     c0e0        0     1                 .L0 
    c110     c110        0     1                 .L0 
    c138     c138        0     1                 .L0 
    c158     c158        0     1                 .L0 
    c178     c178        0     1                 .L0 
    c198     c198        0     1                 .L0 
    c1b0     c1b0        0     1                 .L0 
    c1e8     c1e8        0     1                 .L0 
    c228     c228        0     1                 .L0 
    c250     c250        0     1                 .L0 
    c270     c270        0     1                 .L0 
    c2a8     c2a8        0     1                 .L0 
    c2c0     c2c0        0     1                 .L0 
    c300     c300        0     1                 .L0 
    c318     c318        0     1                 .L0 
    c330     c330        0     1                 .L0 
    c350     c350        0     1                 .L0 
    c370     c370        0     1                 .L0 
    c388     c388        0     1                 .L0 
    c3b0     c3b0        0     1                 .L0 
    c3d8     c3d8        0     1                 .L0 
    c3f0     c3f0        0     1                 .L0 
    c440     c440        0     1                 .L0 
    c458     c458        0     1                 .L0 
    c470     c470        0     1                 .L0 
    c490     c490        0     1                 .L0 
    c4a8     c4a8        0     1                 .L0 
    c4c8     c4c8        0     1                 .L0 
    c4f0     c4f0        0     1                 .L0 
    c510     c510        0     1                 .L0 
    c528     c528        0     1                 .L0 
    c540     c540        0     1                 .L0 
    c558     c558        0     1                 .L0 
    c570     c570        0     1                 .L0 
    c588     c588        0     1                 .L0 
    c5c8     c5c8        0     1                 .L0 
    c5f8     c5f8        0     1                 .L0 
    c618     c618        0     1                 .L0 
    c630     c630        0     1                 .L0 
    c648     c648        0     1                 .L0 
    c660     c660        0     1                 .L0 
    c680     c680        0     1                 .L0 
    c6a0     c6a0        0     1                 .L0 
    c6c0     c6c0        0     1                 .L0 
    c6e0     c6e0        0     1                 .L0 
    c700     c700        0     1                 .L0 
    c718     c718        0     1                 .L0 
    c730     c730        0     1                 .L0 
    c748     c748        0     1                 .L0 
    c760     c760        0     1                 .L0 
    c788     c788        0     1                 .L0 
    c7a8     c7a8        0     1                 .L0 
    c7c0     c7c0        0     1                 .L0 
    c808     c808        0     1                 .L0 
    c820     c820        0     1                 .L0 
    c838     c838        0     1                 .L0 
    c850     c850        0     1                 .L0 
    c868     c868        0     1                 .L0 
    c880     c880        0     1                 .L0 
    c898     c898        0     1                 .L0 
    c8b0     c8b0        0     1                 .L0 
    c8c8     c8c8        0     1                 .L0 
    c8e0     c8e0        0     1                 .L0 
    c8f8     c8f8        0     1                 .L0 
    c910     c910        0     1                 .L0 
    c928     c928        0     1                 .L0 
    c940     c940        0     1                 .L0 
    c960     c960        0     1                 .L0 
    c980     c980       78     1         /home/famous282/.rustup/toolchains/stable-x86_64-unknown-linux-gnu/lib/rustlib/riscv32imac-unknown-none-elf/lib/libcompiler_builtins-ad31f96eaed4fe7a.rlib(compiler_builtins-ad31f96eaed4fe7a.compiler_builtins.a8dbbfe33f18591e-cgu.285.rcgu.o):(.debug_ranges)
    c980     c980        0     1                 .L0 
    c980     c980        0     1                 $d
    c9b0     c9b0        0     1                 .L0 
    c9c8     c9c8        0     1                 .L0 
    c9e0     c9e0        0     1                 .L0 
    c9f8     c9f8       68     1         /home/famous282/.rustup/toolchains/stable-x86_64-unknown-linux-gnu/lib/rustlib/riscv32imac-unknown-none-elf/lib/libcompiler_builtins-ad31f96eaed4fe7a.rlib(compiler_builtins-ad31f96eaed4fe7a.compiler_builtins.a8dbbfe33f18591e-cgu.300.rcgu.o):(.debug_ranges)
    c9f8     c9f8        0     1                 .L0 
    c9f8     c9f8        0     1                 $d
    ca18     ca18        0     1                 .L0 
    ca30     ca30        0     1                 .L0 
    ca48     ca48        0     1                 .L0 
    ca60     ca60       98     1         /home/famous282/.rustup/toolchains/stable-x86_64-unknown-linux-gnu/lib/rustlib/riscv32imac-unknown-none-elf/lib/libcompiler_builtins-ad31f96eaed4fe7a.rlib(compiler_builtins-ad31f96eaed4fe7a.compiler_builtins.a8dbbfe33f18591e-cgu.303.rcgu.o):(.debug_ranges)
    ca60     ca60        0     1                 .L0 
    ca60     ca60        0     1                 $d
    ca80     ca80        0     1                 .L0 
    caa0     caa0        0     1                 .L0 
    cac0     cac0        0     1                 .L0 
    cae0     cae0        0     1                 .L0 
    caf8     caf8       20     1         /home/famous282/.rustup/toolchains/stable-x86_64-unknown-linux-gnu/lib/rustlib/riscv32imac-unknown-none-elf/lib/libcompiler_builtins-ad31f96eaed4fe7a.rlib(compiler_builtins-ad31f96eaed4fe7a.compiler_builtins.a8dbbfe33f18591e-cgu.325.rcgu.o):(.debug_ranges)
    caf8     caf8        0     1                 .L0 
    caf8     caf8        0     1                 $d
    cb18     cb18       d8     1         /home/famous282/.rustup/toolchains/stable-x86_64-unknown-linux-gnu/lib/rustlib/riscv32imac-unknown-none-elf/lib/libcompiler_builtins-ad31f96eaed4fe7a.rlib(compiler_builtins-ad31f96eaed4fe7a.compiler_builtins.a8dbbfe33f18591e-cgu.327.rcgu.o):(.debug_ranges)
    cb18     cb18        0     1                 .L0 
    cb18     cb18        0     1                 $d
    cb58     cb58        0     1                 .L0 
    cb98     cb98        0     1                 .L0 
    cbd8     cbd8        0     1                 .L0 
    cbf0     cbf0       78     1         /home/famous282/.rustup/toolchains/stable-x86_64-unknown-linux-gnu/lib/rustlib/riscv32imac-unknown-none-elf/lib/libcompiler_builtins-ad31f96eaed4fe7a.rlib(compiler_builtins-ad31f96eaed4fe7a.compiler_builtins.a8dbbfe33f18591e-cgu.331.rcgu.o):(.debug_ranges)
    cbf0     cbf0        0     1                 .L0 
    cbf0     cbf0        0     1                 $d
    cc20     cc20        0     1                 .L0 
    cc38     cc38        0     1                 .L0 
    cc50     cc50        0     1                 .L0 
    cc68     cc68       18     1         /home/famous282/.rustup/toolchains/stable-x86_64-unknown-linux-gnu/lib/rustlib/riscv32imac-unknown-none-elf/lib/libcompiler_builtins-ad31f96eaed4fe7a.rlib(compiler_builtins-ad31f96eaed4fe7a.compiler_builtins.a8dbbfe33f18591e-cgu.332.rcgu.o):(.debug_ranges)
    cc68     cc68        0     1                 .L0 
    cc68     cc68        0     1                 $d
    cc80     cc80      3b0     1         /home/famous282/.rustup/toolchains/stable-x86_64-unknown-linux-gnu/lib/rustlib/riscv32imac-unknown-none-elf/lib/libcompiler_builtins-ad31f96eaed4fe7a.rlib(compiler_builtins-ad31f96eaed4fe7a.compiler_builtins.a8dbbfe33f18591e-cgu.012.rcgu.o):(.debug_ranges)
    cc80     cc80        0     1                 .L0 
    cc80     cc80        0     1                 $d
    cc98     cc98        0     1                 .L0 
    ccb0     ccb0        0     1                 .L0 
    ccd0     ccd0        0     1                 .L0 
    ccf0     ccf0        0     1                 .L0 
    cd08     cd08        0     1                 .L0 
    cd20     cd20        0     1                 .L0 
    cd38     cd38        0     1                 .L0 
    cd50     cd50        0     1                 .L0 
    cd68     cd68        0     1                 .L0 
    cd80     cd80        0     1                 .L0 
    cd98     cd98        0     1                 .L0 
    cdb0     cdb0        0     1                 .L0 
    cde0     cde0        0     1                 .L0 
    cdf8     cdf8        0     1                 .L0 
    ce18     ce18        0     1                 .L0 
    ce40     ce40        0     1                 .L0 
    ce60     ce60        0     1                 .L0 
    ce80     ce80        0     1                 .L0 
    ce98     ce98        0     1                 .L0 
    ceb0     ceb0        0     1                 .L0 
    ced0     ced0        0     1                 .L0 
    cef0     cef0        0     1                 .L0 
    cf18     cf18        0     1                 .L0 
    cf30     cf30        0     1                 .L0 
    cf48     cf48        0     1                 .L0 
    cf68     cf68        0     1                 .L0 
    cf88     cf88        0     1                 .L0 
    cfa0     cfa0        0     1                 .L0 
    cfb8     cfb8        0     1                 .L0 
    cfd0     cfd0        0     1                 .L0 
    cff0     cff0        0     1                 .L0 
    d010     d010        0     1                 .L0 
       0        0     ab60     4 .symtab
       0        0     ab60     4         <internal>:(.symtab)
       0        0       b9     1 .shstrtab
       0        0       b9     1         <internal>:(.shstrtab)
       0        0     4602     1 .strtab
       0        0     4602     1         <internal>:(.strtab)
