     VMA      LMA     Size Align Out     In      Symbol
       0        0 80200000     1 . = 0x80200000
80200000 80200000     1210     4 .text
80200000 80200000        c     4         /home/famous282/1000linesOS/kernel/target/riscv32imac-unknown-none-elf/debug/deps/kernel-dfa3df23995ef8b4.24qdkavsqt2e6ckh6joba0u2j.1g4k02t.rcgu.o:(.text.boot)
80200000 80200000        0     1                 .Lpcrel_hi0
80200000 80200000        0     1                 $x
80200000 80200000        c     1                 boot
8020000c 8020000c       96     4         /home/famous282/1000linesOS/kernel/target/riscv32imac-unknown-none-elf/debug/deps/kernel-dfa3df23995ef8b4.24qdkavsqt2e6ckh6joba0u2j.1g4k02t.rcgu.o:(.text)
8020000c 8020000c        0     1                 trap_handler
802000a2 802000a2       62     2         /home/famous282/1000linesOS/kernel/target/riscv32imac-unknown-none-elf/debug/deps/kernel-dfa3df23995ef8b4.24qdkavsqt2e6ckh6joba0u2j.1g4k02t.rcgu.o:(.text._ZN6kernel6kernel12proc_a_entry17h499cf061b07a7cf1E)
802000a2 802000a2       62     1                 kernel::kernel::proc_a_entry::h499cf061b07a7cf1
802000a2 802000a2        0     1                 .L0 
802000a2 802000a2        0     1                 .L0 
802000a2 802000a2        0     1                 $x
802000a2 802000a2        0     1                 .L0 
802000ac 802000ac        0     1                 .L0 
802000d2 802000d2        0     1                 .L0 
802000ec 802000ec        0     1                 .L0 
802000ee 802000ee        0     1                 .L0 
802000f0 802000f0        0     1                 .L0 
802000f2 802000f2        0     1                 .L0 
802000fc 802000fc        0     1                 .L0 
802000fe 802000fe        0     1                 .L0 
80200100 80200100        0     1                 .L0 
80200104 80200104        0     1                 .L0 
80200104 80200104       62     2         /home/famous282/1000linesOS/kernel/target/riscv32imac-unknown-none-elf/debug/deps/kernel-dfa3df23995ef8b4.24qdkavsqt2e6ckh6joba0u2j.1g4k02t.rcgu.o:(.text._ZN6kernel6kernel12proc_b_entry17h9ea391ce5fc2f741E)
80200104 80200104       62     1                 kernel::kernel::proc_b_entry::h9ea391ce5fc2f741
80200104 80200104        0     1                 .L0 
80200104 80200104        0     1                 .L0 
80200104 80200104        0     1                 $x
80200104 80200104        0     1                 .L0 
8020010e 8020010e        0     1                 .L0 
80200134 80200134        0     1                 .L0 
8020014e 8020014e        0     1                 .L0 
80200150 80200150        0     1                 .L0 
80200152 80200152        0     1                 .L0 
80200154 80200154        0     1                 .L0 
8020015e 8020015e        0     1                 .L0 
80200160 80200160        0     1                 .L0 
80200162 80200162        0     1                 .L0 
80200166 80200166        0     1                 .L0 
80200166 80200166       14     2         /home/famous282/1000linesOS/kernel/target/riscv32imac-unknown-none-elf/debug/deps/kernel-dfa3df23995ef8b4.24qdkavsqt2e6ckh6joba0u2j.1g4k02t.rcgu.o:(.text._ZN6kernel6kernel7putchar17h6820f44ab32fcf5cE)
80200166 80200166        0     1                 .L0 
80200166 80200166        0     1                 .L0 
80200166 80200166        0     1                 $x
80200166 80200166        0     1                 .L0 
80200166 80200166       14     1                 kernel::kernel::putchar::h6820f44ab32fcf5c
8020017a 8020017a        0     1                 .L0 
8020017a 8020017a       8c     2         /home/famous282/1000linesOS/kernel/target/riscv32imac-unknown-none-elf/debug/deps/kernel-dfa3df23995ef8b4.24qdkavsqt2e6ckh6joba0u2j.1g4k02t.rcgu.o:(.text.kernel_main)
8020017a 8020017a        0     1                 .L0 
8020017a 8020017a        0     1                 .L0 
8020017a 8020017a        0     1                 $x
8020017a 8020017a        0     1                 .L0 
8020017a 8020017a       8c     1                 kernel_main
80200180 80200180        0     1                 .L0 
80200180 80200180        0     1                 .L0 
802001a4 802001a4        0     1                 .L0 
802001a4 802001a4        0     1                 .L0 
802001a8 802001a8        0     1                 .L0 
802001aa 802001aa        0     1                 .L0 
802001aa 802001aa        0     1                 .L0 
802001ae 802001ae        0     1                 .L0 
802001b0 802001b0        0     1                 .L0 
802001b0 802001b0        0     1                 .L0 
802001b4 802001b4        0     1                 .L0 
802001b4 802001b4        0     1                 .L0 
802001c0 802001c0        0     1                 .L0 
80200206 80200206        0     1                 .L0 
80200206 80200206       8e     2         /home/famous282/1000linesOS/kernel/target/riscv32imac-unknown-none-elf/debug/deps/kernel-dfa3df23995ef8b4.3lszhsxzyn1vde1rs4win02um.1g4k02t.rcgu.o:(.text._ZN4core3fmt5Write10write_char17hdd5523afddb1ab42E.llvm.6829158211990935668)
80200206 80200206        0     1                 .L0 
80200206 80200206        0     1                 .L0 
80200206 80200206        0     1                 $x
80200206 80200206        0     1                 .L0 
80200206 80200206       8e     1                 core::fmt::Write::write_char::hdd5523afddb1ab42 (.llvm.6829158211990935668)
80200210 80200210        0     1                 .L0 
80200210 80200210        0     1                 .L0 
80200214 80200214        0     1                 .L0 
80200214 80200214        0     1                 .L0 
8020021a 8020021a        0     1                 .L0 
8020021c 8020021c        0     1                 .L0 
8020021c 8020021c        0     1                 .L0 
80200220 80200220        0     1                 .L0 
80200228 80200228        0     1                 .L0 
8020022c 8020022c        0     1                 .L0 
8020022c 8020022c        0     1                 .L0 
8020022e 8020022e        0     1                 .L0 
8020023c 8020023c        0     1                 .L0 
8020023e 8020023e        0     1                 .L0 
80200242 80200242        0     1                 .L0 
80200242 80200242        0     1                 .L0 
80200246 80200246        0     1                 .L0 
8020024e 8020024e        0     1                 .L0 
8020024e 8020024e        0     1                 .L0 
80200250 80200250        0     1                 .L0 
80200262 80200262        0     1                 .L0 
80200264 80200264        0     1                 .L0 
80200272 80200272        0     1                 .L0 
80200272 80200272        0     1                 .L0 
80200284 80200284        0     1                 .L0 
80200294 80200294        0     1                 .L0 
80200294 80200294       14     2         /home/famous282/1000linesOS/kernel/target/riscv32imac-unknown-none-elf/debug/deps/kernel-dfa3df23995ef8b4.3lszhsxzyn1vde1rs4win02um.1g4k02t.rcgu.o:(.text._ZN4core3fmt5Write9write_fmt17h495146c7c6b4fb2aE)
80200294 80200294        0     1                 .L0 
80200294 80200294        0     1                 .L0 
80200294 80200294        0     1                 $x
80200294 80200294        0     1                 .L0 
80200294 80200294       14     1                 core::fmt::Write::write_fmt::h495146c7c6b4fb2a
80200298 80200298        0     1                 .L0 
802002a8 802002a8        0     1                 .L0 
802002a8 802002a8        a     2         /home/famous282/1000linesOS/kernel/target/riscv32imac-unknown-none-elf/debug/deps/kernel-dfa3df23995ef8b4.4ftrnxq5k2ijxu6ko4fxfrcj8.1g4k02t.rcgu.o:(.text._ZN44_$LT$$RF$T$u20$as$u20$core..fmt..Display$GT$3fmt17h4087c62fb84bccbeE)
802002a8 802002a8        0     1                 .L0 
802002a8 802002a8        0     1                 .L0 
802002a8 802002a8        0     1                 $x
802002a8 802002a8        0     1                 .L0 
802002a8 802002a8        a     1                 _$LT$$RF$T$u20$as$u20$core..fmt..Display$GT$::fmt::h4087c62fb84bccbe
802002b4 802002b4       46     4         /home/famous282/1000linesOS/kernel/target/riscv32imac-unknown-none-elf/debug/deps/kernel-dfa3df23995ef8b4.63ptxjvpldbz03i077ow9897u.1g4k02t.rcgu.o:(.text._ZN6kernel7process14switch_context17ha0dfa133835f2d04E)
802002b4 802002b4        0     1                 $x
802002b4 802002b4       46     1                 kernel::process::switch_context::ha0dfa133835f2d04
802002fa 802002fa      132     2         /home/famous282/1000linesOS/kernel/target/riscv32imac-unknown-none-elf/debug/deps/kernel-dfa3df23995ef8b4.63ptxjvpldbz03i077ow9897u.1g4k02t.rcgu.o:(.text._ZN6kernel7process7Process6create17hc34d84661f49304eE)
802002fa 802002fa        0     1                 .L0 
802002fa 802002fa        0     1                 .L0 
802002fa 802002fa        0     1                 $x
802002fa 802002fa        0     1                 .L0 
802002fa 802002fa      132     1                 kernel::process::Process::create::hc34d84661f49304e
80200304 80200304        0     1                 .L0 
80200338 80200338        0     1                 .L0 
8020033a 8020033a        0     1                 .L0 
8020033c 8020033c        0     1                 .L0 
80200342 80200342        0     1                 .L0 
80200344 80200344        0     1                 .L0 
80200346 80200346        0     1                 .L0 
80200348 80200348        0     1                 .L0 
8020034a 8020034a        0     1                 .L0 
8020034c 8020034c        0     1                 .L0 
8020034e 8020034e        0     1                 .L0 
80200350 80200350        0     1                 .L0 
80200370 80200370        0     1                 .L0 
80200378 80200378        0     1                 .L0 
80200384 80200384        0     1                 .L0 
8020038c 8020038c        0     1                 .L0 
8020038e 8020038e        0     1                 .L0 
80200392 80200392        0     1                 .L0 
80200396 80200396        0     1                 .L0 
80200398 80200398        0     1                 .L0 
8020039e 8020039e        0     1                 .L0 
802003a2 802003a2        0     1                 .L0 
802003a6 802003a6        0     1                 .L0 
802003b4 802003b4        0     1                 .L0 
802003b8 802003b8        0     1                 .L0 
802003f6 802003f6        0     1                 .L0 
802003fc 802003fc        0     1                 .L0 
8020042c 8020042c       4e     2         /home/famous282/1000linesOS/kernel/target/riscv32imac-unknown-none-elf/debug/deps/kernel-dfa3df23995ef8b4.aqtcxbzy89ozo9dgld6fn0q5h.1g4k02t.rcgu.o:(.text._RNvCs1Y7DaGC1cwg_7___rustc17rust_begin_unwind)
8020042c 8020042c        0     1                 .L0 
8020042c 8020042c        0     1                 .L0 
8020042c 8020042c        0     1                 $x
8020042c 8020042c        0     1                 .L0 
8020042c 8020042c       4e     1                 __rustc::rust_begin_unwind
80200432 80200432        0     1                 .L0 
8020044a 8020044a        0     1                 .L0 
80200456 80200456        0     1                 .L0 
80200474 80200474        0     1                 .L0 
8020047a 8020047a        0     1                 .L0 
8020047a 8020047a       18     2         /home/famous282/1000linesOS/kernel/target/riscv32imac-unknown-none-elf/debug/deps/kernel-dfa3df23995ef8b4.b1wfjfrxrno1sga9zbdwiqldk.1g4k02t.rcgu.o:(.text.unlikely._ZN4core4hint21unreachable_unchecked18precondition_check17h7c956ae76e5c4394E.llvm.9581896732707436221)
8020047a 8020047a        0     1                 .L0 
8020047a 8020047a        0     1                 .L0 
8020047a 8020047a        0     1                 $x
8020047a 8020047a        0     1                 .L0 
8020047a 8020047a       18     1                 core::hint::unreachable_unchecked::precondition_check::h7c956ae76e5c4394 (.llvm.9581896732707436221)
8020047c 8020047c        0     1                 .L0 
80200492 80200492        0     1                 .L0 
80200492 80200492      116     2         /home/famous282/1000linesOS/kernel/target/riscv32imac-unknown-none-elf/debug/deps/kernel-dfa3df23995ef8b4.b1wfjfrxrno1sga9zbdwiqldk.1g4k02t.rcgu.o:(.text._ZN60_$LT$kernel..common..Console$u20$as$u20$core..fmt..Write$GT$9write_str17h742bbae8cb24e93eE)
80200492 80200492        0     1                 .L0 
80200492 80200492        0     1                 .L0 
80200492 80200492        0     1                 $x
80200492 80200492        0     1                 .L0 
80200492 80200492      116     1                 _$LT$kernel..common..Console$u20$as$u20$core..fmt..Write$GT$::write_str::h742bbae8cb24e93e
802004a4 802004a4        0     1                 .L0 
802004a4 802004a4        0     1                 .L0 
802004a6 802004a6        0     1                 .L0 
802004a6 802004a6        0     1                 .L0 
802004c4 802004c4        0     1                 .L0 
802004c8 802004c8        0     1                 .L0 
802004cc 802004cc        0     1                 .L0 
802004cc 802004cc        0     1                 .L0 
802004d0 802004d0        0     1                 .L0 
802004d2 802004d2        0     1                 .L0 
802004d4 802004d4        0     1                 .L0 
802004d4 802004d4        0     1                 .L0 
802004d8 802004d8        0     1                 .L0 
802004d8 802004d8        0     1                 .L0 
802004e0 802004e0        0     1                 .L0 
802004e4 802004e4        0     1                 .L0 
802004e8 802004e8        0     1                 .L0 
802004e8 802004e8        0     1                 .L0 
802004ec 802004ec        0     1                 .L0 
802004ec 802004ec        0     1                 .L0 
802004f0 802004f0        0     1                 .L0 
802004f4 802004f4        0     1                 .L0 
802004f8 802004f8        0     1                 .L0 
80200500 80200500        0     1                 .L0 
80200500 80200500        0     1                 .L0 
80200504 80200504        0     1                 .L0 
80200504 80200504        0     1                 .L0 
80200508 80200508        0     1                 .L0 
8020050c 8020050c        0     1                 .L0 
80200512 80200512        0     1                 .L0 
8020051c 8020051c        0     1                 .L0 
8020051e 8020051e        0     1                 .L0 
80200526 80200526        0     1                 .L0 
8020052c 8020052c        0     1                 .L0 
8020052e 8020052e        0     1                 .L0 
8020052e 8020052e        0     1                 .L0 
80200538 80200538        0     1                 .L0 
80200538 80200538        0     1                 .L0 
80200540 80200540        0     1                 .L0 
80200540 80200540        0     1                 .L0 
80200544 80200544        0     1                 .L0 
80200544 80200544        0     1                 .L0 
8020055a 8020055a        0     1                 .L0 
80200578 80200578        0     1                 .L0 
80200588 80200588        0     1                 .L0 
80200598 80200598        0     1                 .L0 
802005a8 802005a8        0     1                 .L0 
802005a8 802005a8        0     1                 .L0 
802005a8 802005a8       48     2         /home/famous282/1000linesOS/kernel/target/riscv32imac-unknown-none-elf/debug/deps/kernel-dfa3df23995ef8b4.bd4aykr3vnli855y8j4uib0hb.1g4k02t.rcgu.o:(.text.unlikely.handle_trap)
802005a8 802005a8        0     1                 .L0 
802005a8 802005a8        0     1                 .L0 
802005a8 802005a8        0     1                 $x
802005a8 802005a8        0     1                 .L0 
802005a8 802005a8       48     1                 handle_trap
802005aa 802005aa        0     1                 .L0 
802005b0 802005b0        0     1                 .L0 
802005b6 802005b6        0     1                 .L0 
802005bc 802005bc        0     1                 .L0 
802005c6 802005c6        0     1                 .L0 
802005ca 802005ca        0     1                 .L0 
802005d6 802005d6        0     1                 .L0 
802005f0 802005f0        0     1                 .L0 
802005f0 802005f0        0     1                 .L0 
802005f0 802005f0       10     2         /home/famous282/.rustup/toolchains/stable-x86_64-unknown-linux-gnu/lib/rustlib/riscv32imac-unknown-none-elf/lib/libcore-36e1cca942c0a58a.rlib(core-36e1cca942c0a58a.core.283c90c5601d86be-cgu.0.rcgu.o):(.text._ZN44_$LT$$RF$T$u20$as$u20$core..fmt..Display$GT$3fmt17h59521dd79574c7deE)
802005f0 802005f0       10     1                 _$LT$$RF$T$u20$as$u20$core..fmt..Display$GT$::fmt::h59521dd79574c7de
802005f0 802005f0        0     1                 .L0 
802005f0 802005f0        0     1                 .L0 
802005f0 802005f0        0     1                 $x
802005f0 802005f0        0     1                 .L0 
802005f6 802005f6        0     1                 .L0 
80200600 80200600        0     1                 .L0 
80200600 80200600      1ee     2         /home/famous282/.rustup/toolchains/stable-x86_64-unknown-linux-gnu/lib/rustlib/riscv32imac-unknown-none-elf/lib/libcore-36e1cca942c0a58a.rlib(core-36e1cca942c0a58a.core.283c90c5601d86be-cgu.0.rcgu.o):(.text._ZN4core3fmt3num3imp21_$LT$impl$u20$u32$GT$10_fmt_inner17h42f8f2e90639b001E)
80200600 80200600      1ee     1                 core::fmt::num::imp::_$LT$impl$u20$u32$GT$::_fmt_inner::h42f8f2e90639b001
80200600 80200600        0     1                 .L0 
80200600 80200600        0     1                 .L0 
80200600 80200600        0     1                 $x
80200600 80200600        0     1                 .L0 
8020061e 8020061e        0     1                 .L0 
80200622 80200622        0     1                 .L0 
80200660 80200660        0     1                 .L0 
80200664 80200664        0     1                 .L0 
80200694 80200694        0     1                 .L0 
80200698 80200698        0     1                 .L0 
8020069c 8020069c        0     1                 .L0 
802006a4 802006a4        0     1                 .L0 
802006a8 802006a8        0     1                 .L0 
802006ac 802006ac        0     1                 .L0 
802006be 802006be        0     1                 .L0 
802006c2 802006c2        0     1                 .L0 
802006c6 802006c6        0     1                 .L0 
802006ce 802006ce        0     1                 .L0 
802006d2 802006d2        0     1                 .L0 
802006d8 802006d8        0     1                 .L0 
802006de 802006de        0     1                 .L0 
802006e2 802006e2        0     1                 .L0 
802006e6 802006e6        0     1                 .L0 
802006ea 802006ea        0     1                 .L0 
80200722 80200722        0     1                 .L0 
80200726 80200726        0     1                 .L0 
8020072a 8020072a        0     1                 .L0 
80200730 80200730        0     1                 .L0 
80200734 80200734        0     1                 .L0 
80200738 80200738        0     1                 .L0 
8020073c 8020073c        0     1                 .L0 
80200740 80200740        0     1                 .L0 
80200742 80200742        0     1                 .L0 
80200746 80200746        0     1                 .L0 
80200758 80200758        0     1                 .L0 
802007ee 802007ee        0     1                 .L0 
802007ee 802007ee       4c     2         /home/famous282/.rustup/toolchains/stable-x86_64-unknown-linux-gnu/lib/rustlib/riscv32imac-unknown-none-elf/lib/libcore-36e1cca942c0a58a.rlib(core-36e1cca942c0a58a.core.283c90c5601d86be-cgu.0.rcgu.o):(.text._ZN4core3fmt3num3imp52_$LT$impl$u20$core..fmt..Display$u20$for$u20$u32$GT$3fmt17hf372911b1e30887dE)
802007ee 802007ee        0     1                 .L0 
802007ee 802007ee        0     1                 .L0 
802007ee 802007ee        0     1                 $x
802007ee 802007ee        0     1                 .L0 
802007ee 802007ee       4c     1                 core::fmt::num::imp::_$LT$impl$u20$core..fmt..Display$u20$for$u20$u32$GT$::fmt::hf372911b1e30887d
802007ee 802007ee       4c     1                 core::fmt::num::imp::_$LT$impl$u20$core..fmt..Display$u20$for$u20$usize$GT$::fmt::h34bc925a91450d3a
80200804 80200804        0     1                 .L0 
80200814 80200814        0     1                 .L0 
80200818 80200818        0     1                 .L0 
8020083a 8020083a        0     1                 .L0 
8020083a 8020083a      1d6     2         /home/famous282/.rustup/toolchains/stable-x86_64-unknown-linux-gnu/lib/rustlib/riscv32imac-unknown-none-elf/lib/libcore-36e1cca942c0a58a.rlib(core-36e1cca942c0a58a.core.283c90c5601d86be-cgu.0.rcgu.o):(.text._ZN4core3fmt5write17h6376708c65409954E)
8020083a 8020083a        0     1                 .L0 
8020083a 8020083a        0     1                 .L0 
8020083a 8020083a        0     1                 $x
8020083a 8020083a        0     1                 .L0 
8020083a 8020083a      1d6     1                 core::fmt::write::h6376708c65409954
8020085a 8020085a        0     1                 .L0 
8020085a 8020085a        0     1                 .L0 
80200864 80200864        0     1                 .L0 
80200864 80200864        0     1                 .L0 
80200868 80200868        0     1                 .L0 
80200868 80200868        0     1                 .L0 
8020086c 8020086c        0     1                 .L0 
80200884 80200884        0     1                 .L0 
80200884 80200884        0     1                 .L0 
8020088c 8020088c        0     1                 .L0 
80200890 80200890        0     1                 .L0 
802008a0 802008a0        0     1                 .L0 
802008a0 802008a0        0     1                 .L0 
802008aa 802008aa        0     1                 .L0 
802008aa 802008aa        0     1                 .L0 
802008ac 802008ac        0     1                 .L0 
802008b2 802008b2        0     1                 .L0 
802008b2 802008b2        0     1                 .L0 
802008b6 802008b6        0     1                 .L0 
802008ba 802008ba        0     1                 .L0 
802008be 802008be        0     1                 .L0 
802008c2 802008c2        0     1                 .L0 
802008ca 802008ca        0     1                 .L0 
802008ca 802008ca        0     1                 .L0 
802008ce 802008ce        0     1                 .L0 
802008ce 802008ce        0     1                 .L0 
802008d0 802008d0        0     1                 .L0 
802008d0 802008d0        0     1                 .L0 
802008d2 802008d2        0     1                 .L0 
802008d2 802008d2        0     1                 .L0 
802008da 802008da        0     1                 .L0 
802008e2 802008e2        0     1                 .L0 
802008e2 802008e2        0     1                 .L0 
80200900 80200900        0     1                 .L0 
80200904 80200904        0     1                 .L0 
8020090a 8020090a        0     1                 .L0 
8020090c 8020090c        0     1                 .L0 
80200912 80200912        0     1                 .L0 
80200912 80200912        0     1                 .L0 
8020091e 8020091e        0     1                 .L0 
80200920 80200920        0     1                 .L0 
80200928 80200928        0     1                 .L0 
80200928 80200928        0     1                 .L0 
80200936 80200936        0     1                 .L0 
80200942 80200942        0     1                 .L0 
80200942 80200942        0     1                 .L0 
80200944 80200944        0     1                 .L0 
80200944 80200944        0     1                 .L0 
80200946 80200946        0     1                 .L0 
80200946 80200946        0     1                 .L0 
80200948 80200948        0     1                 .L0 
80200948 80200948        0     1                 .L0 
80200954 80200954        0     1                 .L0 
80200956 80200956        0     1                 .L0 
8020095c 8020095c        0     1                 .L0 
8020095e 8020095e        0     1                 .L0 
80200964 80200964        0     1                 .L0 
80200964 80200964        0     1                 .L0 
80200972 80200972        0     1                 .L0 
80200974 80200974        0     1                 .L0 
8020097a 8020097a        0     1                 .L0 
80200980 80200980        0     1                 .L0 
80200980 80200980        0     1                 .L0 
80200984 80200984        0     1                 .L0 
80200988 80200988        0     1                 .L0 
80200990 80200990        0     1                 .L0 
80200994 80200994        0     1                 .L0 
802009a8 802009a8        0     1                 .L0 
802009ae 802009ae        0     1                 .L0 
802009ae 802009ae        0     1                 .L0 
802009b4 802009b4        0     1                 .L0 
802009b4 802009b4        0     1                 .L0 
802009b8 802009b8        0     1                 .L0 
802009bc 802009bc        0     1                 .L0 
802009c4 802009c4        0     1                 .L0 
802009c8 802009c8        0     1                 .L0 
802009cc 802009cc        0     1                 .L0 
802009ee 802009ee        0     1                 .L0 
802009f4 802009f4        0     1                 .L0 
80200a10 80200a10        0     1                 .L0 
80200a10 80200a10       60     2         /home/famous282/.rustup/toolchains/stable-x86_64-unknown-linux-gnu/lib/rustlib/riscv32imac-unknown-none-elf/lib/libcore-36e1cca942c0a58a.rlib(core-36e1cca942c0a58a.core.283c90c5601d86be-cgu.0.rcgu.o):(.text._ZN4core3fmt9Formatter12pad_integral12write_prefix17hdbc87ce8e6b3fdaaE)
80200a10 80200a10       60     1                 core::fmt::Formatter::pad_integral::write_prefix::hdbc87ce8e6b3fdaa
80200a10 80200a10        0     1                 .L0 
80200a10 80200a10        0     1                 .L0 
80200a10 80200a10        0     1                 $x
80200a10 80200a10        0     1                 .L0 
80200a2a 80200a2a        0     1                 .L0 
80200a2e 80200a2e        0     1                 .L0 
80200a3c 80200a3c        0     1                 .L0 
80200a3c 80200a3c        0     1                 .L0 
80200a3e 80200a3e        0     1                 .L0 
80200a40 80200a40        0     1                 .L0 
80200a42 80200a42        0     1                 .L0 
80200a46 80200a46        0     1                 .L0 
80200a70 80200a70        0     1                 .L0 
80200a70 80200a70      25e     2         /home/famous282/.rustup/toolchains/stable-x86_64-unknown-linux-gnu/lib/rustlib/riscv32imac-unknown-none-elf/lib/libcore-36e1cca942c0a58a.rlib(core-36e1cca942c0a58a.core.283c90c5601d86be-cgu.0.rcgu.o):(.text._ZN4core3fmt9Formatter12pad_integral17hf40683eda9f9fd38E)
80200a70 80200a70        0     1                 .L0 
80200a70 80200a70        0     1                 .L0 
80200a70 80200a70        0     1                 $x
80200a70 80200a70        0     1                 .L0 
80200a70 80200a70      25e     1                 core::fmt::Formatter::pad_integral::hf40683eda9f9fd38
80200a98 80200a98        0     1                 .L0 
80200a9a 80200a9a        0     1                 .L0 
80200a9a 80200a9a        0     1                 .L0 
80200aa8 80200aa8        0     1                 .L0 
80200aaa 80200aaa        0     1                 .L0 
80200ab4 80200ab4        0     1                 .L0 
80200abc 80200abc        0     1                 .L0 
80200abe 80200abe        0     1                 .L0 
80200abe 80200abe        0     1                 .L0 
80200ac2 80200ac2        0     1                 .L0 
80200ac4 80200ac4        0     1                 .L0 
80200ac4 80200ac4        0     1                 .L0 
80200ac8 80200ac8        0     1                 .L0 
80200ad4 80200ad4        0     1                 .L0 
80200adc 80200adc        0     1                 .L0 
80200ade 80200ade        0     1                 .L0 
80200ae2 80200ae2        0     1                 .L0 
80200ae2 80200ae2        0     1                 .L0 
80200ae8 80200ae8        0     1                 .L0 
80200aec 80200aec        0     1                 .L0 
80200af8 80200af8        0     1                 .L0 
80200afc 80200afc        0     1                 .L0 
80200b04 80200b04        0     1                 .L0 
80200b06 80200b06        0     1                 .L0 
80200b06 80200b06        0     1                 .L0 
80200b0e 80200b0e        0     1                 .L0 
80200b10 80200b10        0     1                 .L0 
80200b12 80200b12        0     1                 .L0 
80200b12 80200b12        0     1                 .L0 
80200b1e 80200b1e        0     1                 .L0 
80200b26 80200b26        0     1                 .L0 
80200b2c 80200b2c        0     1                 .L0 
80200b30 80200b30        0     1                 .L0 
80200b4a 80200b4a        0     1                 .L0 
80200b4a 80200b4a        0     1                 .L0 
80200b4e 80200b4e        0     1                 .L0 
80200b74 80200b74        0     1                 .L0 
80200b80 80200b80        0     1                 .L0 
80200b86 80200b86        0     1                 .L0 
80200b8c 80200b8c        0     1                 .L0 
80200ba4 80200ba4        0     1                 .L0 
80200bac 80200bac        0     1                 .L0 
80200bb2 80200bb2        0     1                 .L0 
80200bc8 80200bc8        0     1                 .L0 
80200bda 80200bda        0     1                 .L0 
80200bda 80200bda        0     1                 .L0 
80200be2 80200be2        0     1                 .L0 
80200be2 80200be2        0     1                 .L0 
80200be6 80200be6        0     1                 .L0 
80200be8 80200be8        0     1                 .L0 
80200bf0 80200bf0        0     1                 .L0 
80200bf0 80200bf0        0     1                 .L0 
80200bf4 80200bf4        0     1                 .L0 
80200bf8 80200bf8        0     1                 .L0 
80200bf8 80200bf8        0     1                 .L0 
80200bfc 80200bfc        0     1                 .L0 
80200bfc 80200bfc        0     1                 .L0 
80200c06 80200c06        0     1                 .L0 
80200c06 80200c06        0     1                 .L0 
80200c14 80200c14        0     1                 .L0 
80200c14 80200c14        0     1                 .L0 
80200c16 80200c16        0     1                 .L0 
80200c18 80200c18        0     1                 .L0 
80200c26 80200c26        0     1                 .L0 
80200c42 80200c42        0     1                 .L0 
80200c46 80200c46        0     1                 .L0 
80200c4a 80200c4a        0     1                 .L0 
80200c4a 80200c4a        0     1                 .L0 
80200c4e 80200c4e        0     1                 .L0 
80200c50 80200c50        0     1                 .L0 
80200c56 80200c56        0     1                 .L0 
80200c56 80200c56        0     1                 .L0 
80200c58 80200c58        0     1                 .L0 
80200c58 80200c58        0     1                 .L0 
80200c8e 80200c8e        0     1                 .L0 
80200c8e 80200c8e        0     1                 .L0 
80200c90 80200c90        0     1                 .L0 
80200c9e 80200c9e        0     1                 .L0 
80200c9e 80200c9e        0     1                 .L0 
80200ca0 80200ca0        0     1                 .L0 
80200cb2 80200cb2        0     1                 .L0 
80200cba 80200cba        0     1                 .L0 
80200cbe 80200cbe        0     1                 .L0 
80200cbe 80200cbe        0     1                 .L0 
80200cc2 80200cc2        0     1                 .L0 
80200cc4 80200cc4        0     1                 .L0 
80200cca 80200cca        0     1                 .L0 
80200cca 80200cca        0     1                 .L0 
80200cce 80200cce        0     1                 .L0 
80200cce 80200cce      1c2     2         /home/famous282/.rustup/toolchains/stable-x86_64-unknown-linux-gnu/lib/rustlib/riscv32imac-unknown-none-elf/lib/libcore-36e1cca942c0a58a.rlib(core-36e1cca942c0a58a.core.283c90c5601d86be-cgu.0.rcgu.o):(.text._ZN4core3fmt9Formatter3pad17h70209f2ecfa223ceE)
80200cce 80200cce        0     1                 .L0 
80200cce 80200cce        0     1                 .L0 
80200cce 80200cce        0     1                 $x
80200cce 80200cce        0     1                 .L0 
80200cce 80200cce      1c2     1                 core::fmt::Formatter::pad::h70209f2ecfa223ce
80200cec 80200cec        0     1                 .L0 
80200cf8 80200cf8        0     1                 .L0 
80200cf8 80200cf8        0     1                 .L0 
80200d00 80200d00        0     1                 .L0 
80200d00 80200d00        0     1                 .L0 
80200d02 80200d02        0     1                 .L0 
80200d02 80200d02        0     1                 .L0 
80200d06 80200d06        0     1                 .L0 
80200d08 80200d08        0     1                 .L0 
80200d08 80200d08        0     1                 .L0 
80200d0c 80200d0c        0     1                 .L0 
80200d18 80200d18        0     1                 .L0 
80200d20 80200d20        0     1                 .L0 
80200d22 80200d22        0     1                 .L0 
80200d26 80200d26        0     1                 .L0 
80200d26 80200d26        0     1                 .L0 
80200d2e 80200d2e        0     1                 .L0 
80200d34 80200d34        0     1                 .L0 
80200d3c 80200d3c        0     1                 .L0 
80200d40 80200d40        0     1                 .L0 
80200d40 80200d40        0     1                 .L0 
80200d46 80200d46        0     1                 .L0 
80200d46 80200d46        0     1                 .L0 
80200d48 80200d48        0     1                 .L0 
80200d4a 80200d4a        0     1                 .L0 
80200d4a 80200d4a        0     1                 .L0 
80200d4e 80200d4e        0     1                 .L0 
80200d4e 80200d4e        0     1                 .L0 
80200d52 80200d52        0     1                 .L0 
80200d66 80200d66        0     1                 .L0 
80200d6a 80200d6a        0     1                 .L0 
80200d6a 80200d6a        0     1                 .L0 
80200d6e 80200d6e        0     1                 .L0 
80200d70 80200d70        0     1                 .L0 
80200d76 80200d76        0     1                 .L0 
80200d76 80200d76        0     1                 .L0 
80200d78 80200d78        0     1                 .L0 
80200d78 80200d78        0     1                 .L0 
80200d7c 80200d7c        0     1                 .L0 
80200d80 80200d80        0     1                 .L0 
80200d84 80200d84        0     1                 .L0 
80200d88 80200d88        0     1                 .L0 
80200d8c 80200d8c        0     1                 .L0 
80200d90 80200d90        0     1                 .L0 
80200d90 80200d90        0     1                 .L0 
80200d96 80200d96        0     1                 .L0 
80200d9a 80200d9a        0     1                 .L0 
80200d9c 80200d9c        0     1                 .L0 
80200da0 80200da0        0     1                 .L0 
80200da2 80200da2        0     1                 .L0 
80200da2 80200da2        0     1                 .L0 
80200da4 80200da4        0     1                 .L0 
80200dac 80200dac        0     1                 .L0 
80200dd4 80200dd4        0     1                 .L0 
80200de4 80200de4        0     1                 .L0 
80200de4 80200de4        0     1                 .L0 
80200dee 80200dee        0     1                 .L0 
80200df0 80200df0        0     1                 .L0 
80200df0 80200df0        0     1                 .L0 
80200df4 80200df4        0     1                 .L0 
80200df4 80200df4        0     1                 .L0 
80200e12 80200e12        0     1                 .L0 
80200e16 80200e16        0     1                 .L0 
80200e1a 80200e1a        0     1                 .L0 
80200e1a 80200e1a        0     1                 .L0 
80200e1e 80200e1e        0     1                 .L0 
80200e20 80200e20        0     1                 .L0 
80200e26 80200e26        0     1                 .L0 
80200e26 80200e26        0     1                 .L0 
80200e2a 80200e2a        0     1                 .L0 
80200e2a 80200e2a        0     1                 .L0 
80200e36 80200e36        0     1                 .L0 
80200e36 80200e36        0     1                 .L0 
80200e38 80200e38        0     1                 .L0 
80200e5c 80200e5c        0     1                 .L0 
80200e66 80200e66        0     1                 .L0 
80200e74 80200e74        0     1                 .L0 
80200e74 80200e74        0     1                 .L0 
80200e80 80200e80        0     1                 .L0 
80200e80 80200e80        0     1                 .L0 
80200e84 80200e84        0     1                 .L0 
80200e86 80200e86        0     1                 .L0 
80200e86 80200e86        0     1                 .L0 
80200e90 80200e90        0     1                 .L0 
80200e90 80200e90      178     2         /home/famous282/.rustup/toolchains/stable-x86_64-unknown-linux-gnu/lib/rustlib/riscv32imac-unknown-none-elf/lib/libcore-36e1cca942c0a58a.rlib(core-36e1cca942c0a58a.core.283c90c5601d86be-cgu.0.rcgu.o):(.text._ZN4core3str5count14do_count_chars17h23251e7b20e60103E)
80200e90 80200e90        0     1                 .L0 
80200e90 80200e90        0     1                 .L0 
80200e90 80200e90        0     1                 $x
80200e90 80200e90        0     1                 .L0 
80200e90 80200e90      178     1                 core::str::count::do_count_chars::h23251e7b20e60103
80200e96 80200e96        0     1                 .L0 
80200e9e 80200e9e        0     1                 .L0 
80200ea2 80200ea2        0     1                 .L0 
80200ea2 80200ea2        0     1                 .L0 
80200ea4 80200ea4        0     1                 .L0 
80200ea4 80200ea4        0     1                 .L0 
80200ea6 80200ea6        0     1                 .L0 
80200eae 80200eae        0     1                 .L0 
80200eb6 80200eb6        0     1                 .L0 
80200eb8 80200eb8        0     1                 .L0 
80200ebc 80200ebc        0     1                 .L0 
80200ec2 80200ec2        0     1                 .L0 
80200ec6 80200ec6        0     1                 .L0 
80200eca 80200eca        0     1                 .L0 
80200eca 80200eca        0     1                 .L0 
80200ece 80200ece        0     1                 .L0 
80200ed6 80200ed6        0     1                 .L0 
80200ed6 80200ed6        0     1                 .L0 
80200eda 80200eda        0     1                 .L0 
80200ee0 80200ee0        0     1                 .L0 
80200ee8 80200ee8        0     1                 .L0 
80200eea 80200eea        0     1                 .L0 
80200eee 80200eee        0     1                 .L0 
80200ef0 80200ef0        0     1                 .L0 
80200ef0 80200ef0        0     1                 .L0 
80200ef2 80200ef2        0     1                 .L0 
80200f04 80200f04        0     1                 .L0 
80200f0c 80200f0c        0     1                 .L0 
80200f0e 80200f0e        0     1                 .L0 
80200f12 80200f12        0     1                 .L0 
80200f22 80200f22        0     1                 .L0 
80200f26 80200f26        0     1                 .L0 
80200f32 80200f32        0     1                 .L0 
80200f40 80200f40        0     1                 .L0 
80200f48 80200f48        0     1                 .L0 
80200f4c 80200f4c        0     1                 .L0 
80200f60 80200f60        0     1                 .L0 
80200f60 80200f60        0     1                 .L0 
80200f66 80200f66        0     1                 .L0 
80200f66 80200f66        0     1                 .L0 
80200f6c 80200f6c        0     1                 .L0 
80200f7c 80200f7c        0     1                 .L0 
80200faa 80200faa        0     1                 .L0 
80200fac 80200fac        0     1                 .L0 
80200fb8 80200fb8        0     1                 .L0 
80200fbc 80200fbc        0     1                 .L0 
80200fbe 80200fbe        0     1                 .L0 
80200fc6 80200fc6        0     1                 .L0 
80200fd0 80200fd0        0     1                 .L0 
80200fd6 80200fd6        0     1                 .L0 
80200fd8 80200fd8        0     1                 .L0 
80200fe6 80200fe6        0     1                 .L0 
80200fe8 80200fe8        0     1                 .L0 
80200fe8 80200fe8        0     1                 .L0 
80200fec 80200fec        0     1                 .L0 
80200fec 80200fec        0     1                 .L0 
80200ff8 80200ff8        0     1                 .L0 
80201008 80201008        0     1                 .L0 
80201008 80201008       1e     2         /home/famous282/.rustup/toolchains/stable-x86_64-unknown-linux-gnu/lib/rustlib/riscv32imac-unknown-none-elf/lib/libcore-36e1cca942c0a58a.rlib(core-36e1cca942c0a58a.core.283c90c5601d86be-cgu.0.rcgu.o):(.text.unlikely._ZN4core9panicking11panic_const24panic_const_add_overflow17h8d177bbb89cf278aE)
80201008 80201008        0     1                 .L0 
80201008 80201008        0     1                 .L0 
80201008 80201008        0     1                 $x
80201008 80201008        0     1                 .L0 
80201008 80201008       1e     1                 core::panicking::panic_const::panic_const_add_overflow::h8d177bbb89cf278a
80201026 80201026        0     1                 .L0 
80201026 80201026       1e     2         /home/famous282/.rustup/toolchains/stable-x86_64-unknown-linux-gnu/lib/rustlib/riscv32imac-unknown-none-elf/lib/libcore-36e1cca942c0a58a.rlib(core-36e1cca942c0a58a.core.283c90c5601d86be-cgu.0.rcgu.o):(.text.unlikely._ZN4core9panicking11panic_const24panic_const_sub_overflow17h6ef2b7d85abc4017E)
80201026 80201026        0     1                 .L0 
80201026 80201026        0     1                 .L0 
80201026 80201026        0     1                 $x
80201026 80201026        0     1                 .L0 
80201026 80201026       1e     1                 core::panicking::panic_const::panic_const_sub_overflow::h6ef2b7d85abc4017
80201044 80201044        0     1                 .L0 
80201044 80201044       3c     2         /home/famous282/.rustup/toolchains/stable-x86_64-unknown-linux-gnu/lib/rustlib/riscv32imac-unknown-none-elf/lib/libcore-36e1cca942c0a58a.rlib(core-36e1cca942c0a58a.core.283c90c5601d86be-cgu.0.rcgu.o):(.text.unlikely._ZN4core9panicking18panic_bounds_check17h6a2ad95339b34aceE)
80201044 80201044        0     1                 .L0 
80201044 80201044        0     1                 .L0 
80201044 80201044        0     1                 $x
80201044 80201044        0     1                 .L0 
80201044 80201044       3c     1                 core::panicking::panic_bounds_check::h6a2ad95339b34ace
80201080 80201080        0     1                 .L0 
80201080 80201080       30     2         /home/famous282/.rustup/toolchains/stable-x86_64-unknown-linux-gnu/lib/rustlib/riscv32imac-unknown-none-elf/lib/libcore-36e1cca942c0a58a.rlib(core-36e1cca942c0a58a.core.283c90c5601d86be-cgu.0.rcgu.o):(.text.unlikely._ZN4core9panicking18panic_nounwind_fmt17h55180109d2515dcfE)
80201080 80201080        0     1                 .L0 
80201080 80201080        0     1                 .L0 
80201080 80201080        0     1                 $x
80201080 80201080        0     1                 .L0 
80201080 80201080       30     1                 core::panicking::panic_nounwind_fmt::h55180109d2515dcf
80201094 80201094        0     1                 .L0 
802010b0 802010b0        0     1                 .L0 
802010b0 802010b0       2e     2         /home/famous282/.rustup/toolchains/stable-x86_64-unknown-linux-gnu/lib/rustlib/riscv32imac-unknown-none-elf/lib/libcore-36e1cca942c0a58a.rlib(core-36e1cca942c0a58a.core.283c90c5601d86be-cgu.0.rcgu.o):(.text.unlikely._ZN4core9panicking9panic_fmt17h2d50c466dfa5b6faE)
802010b0 802010b0        0     1                 .L0 
802010b0 802010b0        0     1                 .L0 
802010b0 802010b0        0     1                 $x
802010b0 802010b0        0     1                 .L0 
802010b0 802010b0       2e     1                 core::panicking::panic_fmt::h2d50c466dfa5b6fa
802010c6 802010c6        0     1                 .L0 
802010de 802010de        0     1                 .L0 
802010de 802010de       c6     2         /home/famous282/.rustup/toolchains/stable-x86_64-unknown-linux-gnu/lib/rustlib/riscv32imac-unknown-none-elf/lib/libcore-36e1cca942c0a58a.rlib(core-36e1cca942c0a58a.core.283c90c5601d86be-cgu.0.rcgu.o):(.text._ZN73_$LT$core..panic..panic_info..PanicInfo$u20$as$u20$core..fmt..Display$GT$3fmt17h7dfa1da8d6aafbacE)
802010de 802010de        0     1                 .L0 
802010de 802010de        0     1                 .L0 
802010de 802010de        0     1                 $x
802010de 802010de        0     1                 .L0 
802010de 802010de       c6     1                 _$LT$core..panic..panic_info..PanicInfo$u20$as$u20$core..fmt..Display$GT$::fmt::h7dfa1da8d6aafbac
802010f0 802010f0        0     1                 .L0 
8020110c 8020110c        0     1                 .L0 
8020110c 8020110c        0     1                 .L0 
8020110e 8020110e        0     1                 .L0 
80201116 80201116        0     1                 .L0 
80201126 80201126        0     1                 .L0 
8020112a 8020112a        0     1                 .L0 
80201140 80201140        0     1                 .L0 
80201148 80201148        0     1                 .L0 
80201150 80201150        0     1                 .L0 
80201168 80201168        0     1                 .L0 
80201168 80201168        0     1                 .L0 
8020116a 8020116a        0     1                 .L0 
8020116a 8020116a        0     1                 .L0 
80201178 80201178        0     1                 .L0 
80201178 80201178        0     1                 .L0 
8020117a 8020117a        0     1                 .L0 
80201182 80201182        0     1                 .L0 
802011a4 802011a4        0     1                 .L0 
802011a4 802011a4       6c     2         /home/famous282/.rustup/toolchains/stable-x86_64-unknown-linux-gnu/lib/rustlib/riscv32imac-unknown-none-elf/lib/libcompiler_builtins-5525e237063e5553.rlib(compiler_builtins-5525e237063e5553.compiler_builtins.8129c65e379068d4-cgu.193.rcgu.o):(.text.memset)
802011a4 802011a4        0     1                 .L0 
802011a4 802011a4        0     1                 .L0 
802011a4 802011a4        0     1                 $x
802011a4 802011a4        0     1                 .L0 
802011a4 802011a4       6c     1                 memset
802011a6 802011a6        0     1                 .L0 
802011a6 802011a6        0     1                 .L0 
802011aa 802011aa        0     1                 .L0 
802011aa 802011aa        0     1                 .L0 
802011b2 802011b2        0     1                 .L0 
802011b6 802011b6        0     1                 .L0 
802011ba 802011ba        0     1                 .L0 
802011c4 802011c4        0     1                 .L0 
802011c6 802011c6        0     1                 .L0 
802011c8 802011c8        0     1                 .L0 
802011d0 802011d0        0     1                 .L0 
802011d2 802011d2        0     1                 .L0 
802011d6 802011d6        0     1                 .L0 
802011e8 802011e8        0     1                 .L0 
802011ea 802011ea        0     1                 .L0 
802011ee 802011ee        0     1                 .L0 
802011f0 802011f0        0     1                 .L0 
802011f8 802011f8        0     1                 .L0 
802011fe 802011fe        0     1                 .L0 
802011fe 802011fe        0     1                 .L0 
80201202 80201202        0     1                 .L0 
80201206 80201206        0     1                 .L0 
80201210 80201210        0     1                 .L0 
80201210 80201210      593     4 .rodata
80201210 80201210      1db     1         <internal>:(.rodata.str1.1)
802013ec 802013ec       10     4         /home/famous282/1000linesOS/kernel/target/riscv32imac-unknown-none-elf/debug/deps/kernel-dfa3df23995ef8b4.24qdkavsqt2e6ckh6joba0u2j.1g4k02t.rcgu.o:(.rodata.anon.dafe0b063aafa2b693a83aad04a32060.2.llvm.6827238226404650821)
802013ec 802013ec        0     1                 $d
802013ec 802013ec       10     1                 anon.dafe0b063aafa2b693a83aad04a32060.2.llvm.6827238226404650821
802013fc 802013fc        d     1         /home/famous282/1000linesOS/kernel/target/riscv32imac-unknown-none-elf/debug/deps/kernel-dfa3df23995ef8b4.24qdkavsqt2e6ckh6joba0u2j.1g4k02t.rcgu.o:(.rodata.anon.dafe0b063aafa2b693a83aad04a32060.3.llvm.6827238226404650821)
802013fc 802013fc        0     1                 $d
802013fc 802013fc        d     1                 anon.dafe0b063aafa2b693a83aad04a32060.3.llvm.6827238226404650821
8020140c 8020140c       10     4         /home/famous282/1000linesOS/kernel/target/riscv32imac-unknown-none-elf/debug/deps/kernel-dfa3df23995ef8b4.24qdkavsqt2e6ckh6joba0u2j.1g4k02t.rcgu.o:(.rodata.anon.dafe0b063aafa2b693a83aad04a32060.4.llvm.6827238226404650821)
8020140c 8020140c        0     1                 $d
8020140c 8020140c       10     1                 anon.dafe0b063aafa2b693a83aad04a32060.4.llvm.6827238226404650821
8020141c 8020141c       16     1         /home/famous282/1000linesOS/kernel/target/riscv32imac-unknown-none-elf/debug/deps/kernel-dfa3df23995ef8b4.24qdkavsqt2e6ckh6joba0u2j.1g4k02t.rcgu.o:(.rodata..Lanon.dafe0b063aafa2b693a83aad04a32060.5)
8020141c 8020141c       16     1                 .Lanon.dafe0b063aafa2b693a83aad04a32060.5
8020141c 8020141c        0     1                 $d
80201432 80201432       16     1         /home/famous282/1000linesOS/kernel/target/riscv32imac-unknown-none-elf/debug/deps/kernel-dfa3df23995ef8b4.24qdkavsqt2e6ckh6joba0u2j.1g4k02t.rcgu.o:(.rodata..Lanon.dafe0b063aafa2b693a83aad04a32060.6)
80201432 80201432       16     1                 .Lanon.dafe0b063aafa2b693a83aad04a32060.6
80201432 80201432        0     1                 $d
80201448 80201448       10     4         /home/famous282/1000linesOS/kernel/target/riscv32imac-unknown-none-elf/debug/deps/kernel-dfa3df23995ef8b4.24qdkavsqt2e6ckh6joba0u2j.1g4k02t.rcgu.o:(.rodata..Lanon.dafe0b063aafa2b693a83aad04a32060.7)
80201448 80201448       10     1                 .Lanon.dafe0b063aafa2b693a83aad04a32060.7
80201448 80201448        0     1                 $d
80201458 80201458       18     4         /home/famous282/1000linesOS/kernel/target/riscv32imac-unknown-none-elf/debug/deps/kernel-dfa3df23995ef8b4.3lszhsxzyn1vde1rs4win02um.1g4k02t.rcgu.o:(.rodata.anon.3065e104e28d6a5facd9e62a3ecae246.0.llvm.6829158211990935668)
80201458 80201458        0     1                 $d
80201458 80201458       18     1                 anon.3065e104e28d6a5facd9e62a3ecae246.0.llvm.6829158211990935668
80201470 80201470       15     1         /home/famous282/1000linesOS/kernel/target/riscv32imac-unknown-none-elf/debug/deps/kernel-dfa3df23995ef8b4.63ptxjvpldbz03i077ow9897u.1g4k02t.rcgu.o:(.rodata.anon.bcd15ab2b2598e76cf511eefaa720ece.1.llvm.5462976515518120064)
80201470 80201470        0     1                 $d
80201470 80201470       15     1                 anon.bcd15ab2b2598e76cf511eefaa720ece.1.llvm.5462976515518120064
80201488 80201488       10     4         /home/famous282/1000linesOS/kernel/target/riscv32imac-unknown-none-elf/debug/deps/kernel-dfa3df23995ef8b4.63ptxjvpldbz03i077ow9897u.1g4k02t.rcgu.o:(.rodata.anon.bcd15ab2b2598e76cf511eefaa720ece.2.llvm.5462976515518120064)
80201488 80201488        0     1                 $d
80201488 80201488       10     1                 anon.bcd15ab2b2598e76cf511eefaa720ece.2.llvm.5462976515518120064
80201498 80201498       10     4         /home/famous282/1000linesOS/kernel/target/riscv32imac-unknown-none-elf/debug/deps/kernel-dfa3df23995ef8b4.63ptxjvpldbz03i077ow9897u.1g4k02t.rcgu.o:(.rodata.anon.bcd15ab2b2598e76cf511eefaa720ece.3.llvm.5462976515518120064)
80201498 80201498        0     1                 $d
80201498 80201498       10     1                 anon.bcd15ab2b2598e76cf511eefaa720ece.3.llvm.5462976515518120064
802014a8 802014a8        e     1         /home/famous282/1000linesOS/kernel/target/riscv32imac-unknown-none-elf/debug/deps/kernel-dfa3df23995ef8b4.aqtcxbzy89ozo9dgld6fn0q5h.1g4k02t.rcgu.o:(.rodata..Lanon.9e0d9a3b70bfecc7ede061ec6c9e287a.0)
802014a8 802014a8        e     1                 .Lanon.9e0d9a3b70bfecc7ede061ec6c9e287a.0
802014a8 802014a8        0     1                 $d
802014b8 802014b8       10     4         /home/famous282/1000linesOS/kernel/target/riscv32imac-unknown-none-elf/debug/deps/kernel-dfa3df23995ef8b4.b1wfjfrxrno1sga9zbdwiqldk.1g4k02t.rcgu.o:(.rodata.anon.ec365b032719ac4aafe4712422c74bb6.1.llvm.9581896732707436221)
802014b8 802014b8        0     1                 $d
802014b8 802014b8       10     1                 anon.ec365b032719ac4aafe4712422c74bb6.1.llvm.9581896732707436221
802014c8 802014c8       10     4         /home/famous282/1000linesOS/kernel/target/riscv32imac-unknown-none-elf/debug/deps/kernel-dfa3df23995ef8b4.b1wfjfrxrno1sga9zbdwiqldk.1g4k02t.rcgu.o:(.rodata.anon.ec365b032719ac4aafe4712422c74bb6.2.llvm.9581896732707436221)
802014c8 802014c8        0     1                 $d
802014c8 802014c8       10     1                 anon.ec365b032719ac4aafe4712422c74bb6.2.llvm.9581896732707436221
802014d8 802014d8       10     4         /home/famous282/1000linesOS/kernel/target/riscv32imac-unknown-none-elf/debug/deps/kernel-dfa3df23995ef8b4.b1wfjfrxrno1sga9zbdwiqldk.1g4k02t.rcgu.o:(.rodata.anon.ec365b032719ac4aafe4712422c74bb6.3.llvm.9581896732707436221)
802014d8 802014d8        0     1                 $d
802014d8 802014d8       10     1                 anon.ec365b032719ac4aafe4712422c74bb6.3.llvm.9581896732707436221
802014e8 802014e8       ae     1         /home/famous282/1000linesOS/kernel/target/riscv32imac-unknown-none-elf/debug/deps/kernel-dfa3df23995ef8b4.b1wfjfrxrno1sga9zbdwiqldk.1g4k02t.rcgu.o:(.rodata.anon.ec365b032719ac4aafe4712422c74bb6.4.llvm.9581896732707436221)
802014e8 802014e8        0     1                 $d
802014e8 802014e8       ae     1                 anon.ec365b032719ac4aafe4712422c74bb6.4.llvm.9581896732707436221
80201596 80201596       c7     1         /home/famous282/1000linesOS/kernel/target/riscv32imac-unknown-none-elf/debug/deps/kernel-dfa3df23995ef8b4.b1wfjfrxrno1sga9zbdwiqldk.1g4k02t.rcgu.o:(.rodata.anon.ec365b032719ac4aafe4712422c74bb6.5.llvm.9581896732707436221)
80201596 80201596        0     1                 $d
80201596 80201596       c7     1                 anon.ec365b032719ac4aafe4712422c74bb6.5.llvm.9581896732707436221
80201660 80201660       10     4         /home/famous282/1000linesOS/kernel/target/riscv32imac-unknown-none-elf/debug/deps/kernel-dfa3df23995ef8b4.b1wfjfrxrno1sga9zbdwiqldk.1g4k02t.rcgu.o:(.rodata.anon.ec365b032719ac4aafe4712422c74bb6.7.llvm.9581896732707436221)
80201660 80201660        0     1                 $d
80201660 80201660       10     1                 anon.ec365b032719ac4aafe4712422c74bb6.7.llvm.9581896732707436221
80201670 80201670       10     4         /home/famous282/1000linesOS/kernel/target/riscv32imac-unknown-none-elf/debug/deps/kernel-dfa3df23995ef8b4.bd4aykr3vnli855y8j4uib0hb.1g4k02t.rcgu.o:(.rodata..Lanon.44dbf0a5850731176117aaf5252d3610.2)
80201670 80201670       10     1                 .Lanon.44dbf0a5850731176117aaf5252d3610.2
80201670 80201670        0     1                 $d
80201680 80201680       c8     1         /home/famous282/.rustup/toolchains/stable-x86_64-unknown-linux-gnu/lib/rustlib/riscv32imac-unknown-none-elf/lib/libcore-36e1cca942c0a58a.rlib(core-36e1cca942c0a58a.core.283c90c5601d86be-cgu.0.rcgu.o):(.rodata..Lanon.c1b9f5fb5e0d403858e825deb85600fc.10)
80201680 80201680       c8     1                 .Lanon.c1b9f5fb5e0d403858e825deb85600fc.10
80201680 80201680        0     1                 $d
80201748 80201748       10     4         /home/famous282/.rustup/toolchains/stable-x86_64-unknown-linux-gnu/lib/rustlib/riscv32imac-unknown-none-elf/lib/libcore-36e1cca942c0a58a.rlib(core-36e1cca942c0a58a.core.283c90c5601d86be-cgu.0.rcgu.o):(.rodata..Lanon.c1b9f5fb5e0d403858e825deb85600fc.22)
80201748 80201748       10     1                 .Lanon.c1b9f5fb5e0d403858e825deb85600fc.22
80201748 80201748        0     1                 $d
80201758 80201758       1c     1         /home/famous282/.rustup/toolchains/stable-x86_64-unknown-linux-gnu/lib/rustlib/riscv32imac-unknown-none-elf/lib/libcore-36e1cca942c0a58a.rlib(core-36e1cca942c0a58a.core.283c90c5601d86be-cgu.0.rcgu.o):(.rodata..Lanon.c1b9f5fb5e0d403858e825deb85600fc.82)
80201758 80201758       1c     1                 .Lanon.c1b9f5fb5e0d403858e825deb85600fc.82
80201758 80201758        0     1                 $d
80201774 80201774       21     1         /home/famous282/.rustup/toolchains/stable-x86_64-unknown-linux-gnu/lib/rustlib/riscv32imac-unknown-none-elf/lib/libcore-36e1cca942c0a58a.rlib(core-36e1cca942c0a58a.core.283c90c5601d86be-cgu.0.rcgu.o):(.rodata..Lanon.c1b9f5fb5e0d403858e825deb85600fc.89)
80201774 80201774       21     1                 .Lanon.c1b9f5fb5e0d403858e825deb85600fc.89
80201774 80201774        0     1                 $d
80201795 80201795        c     1         /home/famous282/.rustup/toolchains/stable-x86_64-unknown-linux-gnu/lib/rustlib/riscv32imac-unknown-none-elf/lib/libcore-36e1cca942c0a58a.rlib(core-36e1cca942c0a58a.core.283c90c5601d86be-cgu.0.rcgu.o):(.rodata..Lanon.c1b9f5fb5e0d403858e825deb85600fc.401)
80201795 80201795        c     1                 .Lanon.c1b9f5fb5e0d403858e825deb85600fc.401
80201795 80201795        0     1                 $d
802017a1 802017a1        2     1         /home/famous282/.rustup/toolchains/stable-x86_64-unknown-linux-gnu/lib/rustlib/riscv32imac-unknown-none-elf/lib/libcore-36e1cca942c0a58a.rlib(core-36e1cca942c0a58a.core.283c90c5601d86be-cgu.0.rcgu.o):(.rodata..Lanon.c1b9f5fb5e0d403858e825deb85600fc.402)
802017a1 802017a1        2     1                 .Lanon.c1b9f5fb5e0d403858e825deb85600fc.402
802017a1 802017a1        0     1                 $d
802017a4 802017a4      324     4 .eh_frame
802017a4 802017a4       14     1         /home/famous282/.rustup/toolchains/stable-x86_64-unknown-linux-gnu/lib/rustlib/riscv32imac-unknown-none-elf/lib/libcore-36e1cca942c0a58a.rlib(core-36e1cca942c0a58a.core.283c90c5601d86be-cgu.0.rcgu.o):(.eh_frame+0x0)
802017b8 802017b8       14     1         /home/famous282/.rustup/toolchains/stable-x86_64-unknown-linux-gnu/lib/rustlib/riscv32imac-unknown-none-elf/lib/libcore-36e1cca942c0a58a.rlib(core-36e1cca942c0a58a.core.283c90c5601d86be-cgu.0.rcgu.o):(.eh_frame+0x378)
802017cc 802017cc       44     1         /home/famous282/.rustup/toolchains/stable-x86_64-unknown-linux-gnu/lib/rustlib/riscv32imac-unknown-none-elf/lib/libcore-36e1cca942c0a58a.rlib(core-36e1cca942c0a58a.core.283c90c5601d86be-cgu.0.rcgu.o):(.eh_frame+0x784)
80201810 80201810       30     1         /home/famous282/.rustup/toolchains/stable-x86_64-unknown-linux-gnu/lib/rustlib/riscv32imac-unknown-none-elf/lib/libcore-36e1cca942c0a58a.rlib(core-36e1cca942c0a58a.core.283c90c5601d86be-cgu.0.rcgu.o):(.eh_frame+0x9e0)
80201840 80201840       60     1         /home/famous282/.rustup/toolchains/stable-x86_64-unknown-linux-gnu/lib/rustlib/riscv32imac-unknown-none-elf/lib/libcore-36e1cca942c0a58a.rlib(core-36e1cca942c0a58a.core.283c90c5601d86be-cgu.0.rcgu.o):(.eh_frame+0x1b14)
802018a0 802018a0       ac     1         /home/famous282/.rustup/toolchains/stable-x86_64-unknown-linux-gnu/lib/rustlib/riscv32imac-unknown-none-elf/lib/libcore-36e1cca942c0a58a.rlib(core-36e1cca942c0a58a.core.283c90c5601d86be-cgu.0.rcgu.o):(.eh_frame+0x1fb8)
8020194c 8020194c       64     1         /home/famous282/.rustup/toolchains/stable-x86_64-unknown-linux-gnu/lib/rustlib/riscv32imac-unknown-none-elf/lib/libcore-36e1cca942c0a58a.rlib(core-36e1cca942c0a58a.core.283c90c5601d86be-cgu.0.rcgu.o):(.eh_frame+0x2460)
802019b0 802019b0       28     1         /home/famous282/.rustup/toolchains/stable-x86_64-unknown-linux-gnu/lib/rustlib/riscv32imac-unknown-none-elf/lib/libcore-36e1cca942c0a58a.rlib(core-36e1cca942c0a58a.core.283c90c5601d86be-cgu.0.rcgu.o):(.eh_frame+0x36b8)
802019d8 802019d8       20     1         /home/famous282/.rustup/toolchains/stable-x86_64-unknown-linux-gnu/lib/rustlib/riscv32imac-unknown-none-elf/lib/libcore-36e1cca942c0a58a.rlib(core-36e1cca942c0a58a.core.283c90c5601d86be-cgu.0.rcgu.o):(.eh_frame+0x3bf8)
802019f8 802019f8       20     1         /home/famous282/.rustup/toolchains/stable-x86_64-unknown-linux-gnu/lib/rustlib/riscv32imac-unknown-none-elf/lib/libcore-36e1cca942c0a58a.rlib(core-36e1cca942c0a58a.core.283c90c5601d86be-cgu.0.rcgu.o):(.eh_frame+0x3cd8)
80201a18 80201a18       40     1         /home/famous282/.rustup/toolchains/stable-x86_64-unknown-linux-gnu/lib/rustlib/riscv32imac-unknown-none-elf/lib/libcore-36e1cca942c0a58a.rlib(core-36e1cca942c0a58a.core.283c90c5601d86be-cgu.0.rcgu.o):(.eh_frame+0x3f18)
80201a58 80201a58       20     1         /home/famous282/.rustup/toolchains/stable-x86_64-unknown-linux-gnu/lib/rustlib/riscv32imac-unknown-none-elf/lib/libcore-36e1cca942c0a58a.rlib(core-36e1cca942c0a58a.core.283c90c5601d86be-cgu.0.rcgu.o):(.eh_frame+0x4038)
80201a78 80201a78       38     1         /home/famous282/.rustup/toolchains/stable-x86_64-unknown-linux-gnu/lib/rustlib/riscv32imac-unknown-none-elf/lib/libcore-36e1cca942c0a58a.rlib(core-36e1cca942c0a58a.core.283c90c5601d86be-cgu.0.rcgu.o):(.eh_frame+0x4ec8)
80201ab0 80201ab0       14     1         /home/famous282/.rustup/toolchains/stable-x86_64-unknown-linux-gnu/lib/rustlib/riscv32imac-unknown-none-elf/lib/libcompiler_builtins-5525e237063e5553.rlib(compiler_builtins-5525e237063e5553.compiler_builtins.8129c65e379068d4-cgu.193.rcgu.o):(.eh_frame+0x14)
80201ac8 80201ac8        8     4 .data
80201ac8 80201ac8        8     4         /home/famous282/1000linesOS/kernel/target/riscv32imac-unknown-none-elf/debug/deps/kernel-dfa3df23995ef8b4.24qdkavsqt2e6ckh6joba0u2j.1g4k02t.rcgu.o:(.data..L_MergedGlobals)
80201ac8 80201ac8        8     1                 .L_MergedGlobals
80201ac8 80201ac8        0     1                 $d
80201ac8 80201ac8        4     1                 kernel::kernel::PROC_A::h565e8766714051b9
80201acc 80201acc        4     1                 kernel::kernel::PROC_B::h56a18d90eaad530c
80201ad0 80201ad0       cc     4 .bss
80201ad0 80201ad0        0     1         __bss = .
80201ad0 80201ad0        4     4         /home/famous282/1000linesOS/kernel/target/riscv32imac-unknown-none-elf/debug/deps/kernel-dfa3df23995ef8b4.24qdkavsqt2e6ckh6joba0u2j.1g4k02t.rcgu.o:(.bss._ZN6kernel6kernel10NEXT_PADDR17he2deb472b50ca120E.0.llvm.6827238226404650821)
80201ad0 80201ad0        0     1                 $d
80201ad0 80201ad0        4     1                 kernel::kernel::NEXT_PADDR::he2deb472b50ca120 (.0.llvm.6827238226404650821)
80201ad4 80201ad4       14     4         /home/famous282/1000linesOS/kernel/target/riscv32imac-unknown-none-elf/debug/deps/kernel-dfa3df23995ef8b4.24qdkavsqt2e6ckh6joba0u2j.1g4k02t.rcgu.o:(.bss._ZN6kernel6kernel6PROC_A27_$u7b$$u7b$nested$u7d$$u7d$17h17ba4df5dc72d107E)
80201ad4 80201ad4       14     1                 kernel::kernel::PROC_A::_$u7b$$u7b$nested$u7d$$u7d$::h17ba4df5dc72d107
80201ad4 80201ad4        0     1                 $d
80201ae8 80201ae8       14     4         /home/famous282/1000linesOS/kernel/target/riscv32imac-unknown-none-elf/debug/deps/kernel-dfa3df23995ef8b4.24qdkavsqt2e6ckh6joba0u2j.1g4k02t.rcgu.o:(.bss._ZN6kernel6kernel6PROC_B27_$u7b$$u7b$nested$u7d$$u7d$17hd667c654923f7770E)
80201ae8 80201ae8       14     1                 kernel::kernel::PROC_B::_$u7b$$u7b$nested$u7d$$u7d$::hd667c654923f7770
80201ae8 80201ae8        0     1                 $d
80201afc 80201afc       a0     4         /home/famous282/1000linesOS/kernel/target/riscv32imac-unknown-none-elf/debug/deps/kernel-dfa3df23995ef8b4.63ptxjvpldbz03i077ow9897u.1g4k02t.rcgu.o:(.bss._ZN6kernel7process5PROCS17he71177911dd5df9cE.llvm.5462976515518120064)
80201afc 80201afc        0     1                 $d
80201afc 80201afc       a0     1                 kernel::process::PROCS::he71177911dd5df9c (.llvm.5462976515518120064)
80201b9c 80201b9c        0     1         __bss_end = .
80201b9c 80201b9c        0     1 . = ALIGN(4)
80201b9c 80201b9c    20000     1 . += 128 * 1024
80221b9c 80221b9c        0     1 __stack_top = .
80221b9c 80221b9c      464     1 . = ALIGN(4096)
80222000 80222000        0     1 __free_ram = .
80222000 80222000  4000000     1 . += 64 * 1024 * 1024
84222000 84222000        0     1 __free_ram_end = .
       0        0      ef6     1 .debug_loc
       0        0      45f     1         /home/famous282/1000linesOS/kernel/target/riscv32imac-unknown-none-elf/debug/deps/kernel-dfa3df23995ef8b4.24qdkavsqt2e6ckh6joba0u2j.1g4k02t.rcgu.o:(.debug_loc)
       0        0        0     1                 .L0 
       0        0        0     1                 $d
      31       31        0     1                 .L0 
      62       62        0     1                 .L0 
      88       88        0     1                 .L0 
      ae       ae        0     1                 .L0 
      c9       c9        0     1                 .L0 
      ea       ea        0     1                 .L0 
     12e      12e        0     1                 .L0 
     172      172        0     1                 .L0 
     1b3      1b3        0     1                 .L0 
     1db      1db        0     1                 .L0 
     1f6      1f6        0     1                 .L0 
     22f      22f        0     1                 .L0 
     273      273        0     1                 .L0 
     2b7      2b7        0     1                 .L0 
     2f8      2f8        0     1                 .L0 
     320      320        0     1                 .L0 
     33b      33b        0     1                 .L0 
     374      374        0     1                 .L0 
     38f      38f        0     1                 .L0 
     3b5      3b5        0     1                 .L0 
     3d0      3d0        0     1                 .L0 
     40e      40e        0     1                 .L0 
     429      429        0     1                 .L0 
     444      444        0     1                 .L0 
     45f      45f      29a     1         /home/famous282/1000linesOS/kernel/target/riscv32imac-unknown-none-elf/debug/deps/kernel-dfa3df23995ef8b4.3lszhsxzyn1vde1rs4win02um.1g4k02t.rcgu.o:(.debug_loc)
     45f      45f        0     1                 .L0 
     45f      45f        0     1                 $d
     47a      47a        0     1                 .L0 
     4ab      4ab        0     1                 .L0 
     4dc      4dc        0     1                 .L0 
     4ff      4ff        0     1                 .L0 
     530      530        0     1                 .L0 
     561      561        0     1                 .L0 
     584      584        0     1                 .L0 
     5a0      5a0        0     1                 .L0 
     5d1      5d1        0     1                 .L0 
     5fb      5fb        0     1                 .L0 
     617      617        0     1                 .L0 
     648      648        0     1                 .L0 
     663      663        0     1                 .L0 
     67e      67e        0     1                 .L0 
     699      699        0     1                 .L0 
     6d9      6d9        0     1                 .L0 
     6f9      6f9       13     1         /home/famous282/1000linesOS/kernel/target/riscv32imac-unknown-none-elf/debug/deps/kernel-dfa3df23995ef8b4.4ftrnxq5k2ijxu6ko4fxfrcj8.1g4k02t.rcgu.o:(.debug_loc)
     6f9      6f9        0     1                 .L0 
     6f9      6f9        0     1                 $d
     70c      70c      2f7     1         /home/famous282/1000linesOS/kernel/target/riscv32imac-unknown-none-elf/debug/deps/kernel-dfa3df23995ef8b4.63ptxjvpldbz03i077ow9897u.1g4k02t.rcgu.o:(.debug_loc)
     70c      70c        0     1                 .L0 
     70c      70c        0     1                 $d
     735      735        0     1                 .L0 
     827      827        0     1                 .L0 
     8d7      8d7        0     1                 .L0 
     8f5      8f5        0     1                 .L0 
     91e      91e        0     1                 .L0 
     93e      93e        0     1                 .L0 
     95c      95c        0     1                 .L0 
     97a      97a        0     1                 .L0 
     9a8      9a8        0     1                 .L0 
     9bb      9bb        0     1                 .L0 
     9d9      9d9        0     1                 .L0 
     a03      a03      101     1         /home/famous282/1000linesOS/kernel/target/riscv32imac-unknown-none-elf/debug/deps/kernel-dfa3df23995ef8b4.aqtcxbzy89ozo9dgld6fn0q5h.1g4k02t.rcgu.o:(.debug_loc)
     a03      a03        0     1                 .L0 
     a03      a03        0     1                 $d
     a3c      a3c        0     1                 .L0 
     a75      a75        0     1                 .L0 
     aae      aae        0     1                 .L0 
     ad9      ad9        0     1                 .L0 
     b04      b04      3bc     1         /home/famous282/1000linesOS/kernel/target/riscv32imac-unknown-none-elf/debug/deps/kernel-dfa3df23995ef8b4.b1wfjfrxrno1sga9zbdwiqldk.1g4k02t.rcgu.o:(.debug_loc)
     b04      b04        0     1                 .L0 
     b04      b04        0     1                 $d
     b4b      b4b        0     1                 .L0 
     b66      b66        0     1                 .L0 
     b96      b96        0     1                 .L0 
     c8e      c8e        0     1                 .L0 
     cb4      cb4        0     1                 .L0 
     ce5      ce5        0     1                 .L0 
     d0b      d0b        0     1                 .L0 
     d26      d26        0     1                 .L0 
     d41      d41        0     1                 .L0 
     d5c      d5c        0     1                 .L0 
     d8d      d8d        0     1                 .L0 
     dcd      dcd        0     1                 .L0 
     df3      df3        0     1                 .L0 
     e19      e19        0     1                 .L0 
     e3f      e3f        0     1                 .L0 
     e65      e65        0     1                 .L0 
     e8b      e8b        0     1                 .L0 
     ec0      ec0       36     1         /home/famous282/1000linesOS/kernel/target/riscv32imac-unknown-none-elf/debug/deps/kernel-dfa3df23995ef8b4.bd4aykr3vnli855y8j4uib0hb.1g4k02t.rcgu.o:(.debug_loc)
     ec0      ec0        0     1                 .L0 
     ec0      ec0        0     1                 $d
     edb      edb        0     1                 .L0 
       0        0     22ee     1 .debug_abbrev
       0        0      2f8     1         /home/famous282/1000linesOS/kernel/target/riscv32imac-unknown-none-elf/debug/deps/kernel-dfa3df23995ef8b4.24qdkavsqt2e6ckh6joba0u2j.1g4k02t.rcgu.o:(.debug_abbrev)
       0        0        0     1                 $d
     2f8      2f8      1f2     1         /home/famous282/1000linesOS/kernel/target/riscv32imac-unknown-none-elf/debug/deps/kernel-dfa3df23995ef8b4.3lszhsxzyn1vde1rs4win02um.1g4k02t.rcgu.o:(.debug_abbrev)
     2f8      2f8        0     1                 $d
     4ea      4ea      114     1         /home/famous282/1000linesOS/kernel/target/riscv32imac-unknown-none-elf/debug/deps/kernel-dfa3df23995ef8b4.4ftrnxq5k2ijxu6ko4fxfrcj8.1g4k02t.rcgu.o:(.debug_abbrev)
     4ea      4ea        0     1                 $d
     5fe      5fe      2c5     1         /home/famous282/1000linesOS/kernel/target/riscv32imac-unknown-none-elf/debug/deps/kernel-dfa3df23995ef8b4.63ptxjvpldbz03i077ow9897u.1g4k02t.rcgu.o:(.debug_abbrev)
     5fe      5fe        0     1                 $d
     8c3      8c3      1e3     1         /home/famous282/1000linesOS/kernel/target/riscv32imac-unknown-none-elf/debug/deps/kernel-dfa3df23995ef8b4.aqtcxbzy89ozo9dgld6fn0q5h.1g4k02t.rcgu.o:(.debug_abbrev)
     8c3      8c3        0     1                 $d
     aa6      aa6      284     1         /home/famous282/1000linesOS/kernel/target/riscv32imac-unknown-none-elf/debug/deps/kernel-dfa3df23995ef8b4.b1wfjfrxrno1sga9zbdwiqldk.1g4k02t.rcgu.o:(.debug_abbrev)
     aa6      aa6        0     1                 $d
     d2a      d2a      12b     1         /home/famous282/1000linesOS/kernel/target/riscv32imac-unknown-none-elf/debug/deps/kernel-dfa3df23995ef8b4.bd4aykr3vnli855y8j4uib0hb.1g4k02t.rcgu.o:(.debug_abbrev)
     d2a      d2a        0     1                 $d
     e55      e55      321     1         /home/famous282/.rustup/toolchains/stable-x86_64-unknown-linux-gnu/lib/rustlib/riscv32imac-unknown-none-elf/lib/libcore-36e1cca942c0a58a.rlib(core-36e1cca942c0a58a.core.283c90c5601d86be-cgu.0.rcgu.o):(.debug_abbrev)
     e55      e55        0     1                 $d
    1176     1176       5b     1         /home/famous282/.rustup/toolchains/stable-x86_64-unknown-linux-gnu/lib/rustlib/riscv32imac-unknown-none-elf/lib/libcompiler_builtins-5525e237063e5553.rlib(compiler_builtins-5525e237063e5553.compiler_builtins.8129c65e379068d4-cgu.107.rcgu.o):(.debug_abbrev)
    1176     1176        0     1                 $d
    11d1     11d1       5f     1         /home/famous282/.rustup/toolchains/stable-x86_64-unknown-linux-gnu/lib/rustlib/riscv32imac-unknown-none-elf/lib/libcompiler_builtins-5525e237063e5553.rlib(compiler_builtins-5525e237063e5553.compiler_builtins.8129c65e379068d4-cgu.163.rcgu.o):(.debug_abbrev)
    11d1     11d1        0     1                 $d
    1230     1230       a8     1         /home/famous282/.rustup/toolchains/stable-x86_64-unknown-linux-gnu/lib/rustlib/riscv32imac-unknown-none-elf/lib/libcompiler_builtins-5525e237063e5553.rlib(compiler_builtins-5525e237063e5553.compiler_builtins.8129c65e379068d4-cgu.017.rcgu.o):(.debug_abbrev)
    1230     1230        0     1                 $d
    12d8     12d8       aa     1         /home/famous282/.rustup/toolchains/stable-x86_64-unknown-linux-gnu/lib/rustlib/riscv32imac-unknown-none-elf/lib/libcompiler_builtins-5525e237063e5553.rlib(compiler_builtins-5525e237063e5553.compiler_builtins.8129c65e379068d4-cgu.173.rcgu.o):(.debug_abbrev)
    12d8     12d8        0     1                 $d
    1382     1382       2e     1         /home/famous282/.rustup/toolchains/stable-x86_64-unknown-linux-gnu/lib/rustlib/riscv32imac-unknown-none-elf/lib/libcompiler_builtins-5525e237063e5553.rlib(compiler_builtins-5525e237063e5553.compiler_builtins.8129c65e379068d4-cgu.177.rcgu.o):(.debug_abbrev)
    1382     1382        0     1                 $d
    13b0     13b0      134     1         /home/famous282/.rustup/toolchains/stable-x86_64-unknown-linux-gnu/lib/rustlib/riscv32imac-unknown-none-elf/lib/libcompiler_builtins-5525e237063e5553.rlib(compiler_builtins-5525e237063e5553.compiler_builtins.8129c65e379068d4-cgu.003.rcgu.o):(.debug_abbrev)
    13b0     13b0        0     1                 $d
    14e4     14e4      181     1         /home/famous282/.rustup/toolchains/stable-x86_64-unknown-linux-gnu/lib/rustlib/riscv32imac-unknown-none-elf/lib/libcompiler_builtins-5525e237063e5553.rlib(compiler_builtins-5525e237063e5553.compiler_builtins.8129c65e379068d4-cgu.019.rcgu.o):(.debug_abbrev)
    14e4     14e4        0     1                 $d
    1665     1665       b9     1         /home/famous282/.rustup/toolchains/stable-x86_64-unknown-linux-gnu/lib/rustlib/riscv32imac-unknown-none-elf/lib/libcompiler_builtins-5525e237063e5553.rlib(compiler_builtins-5525e237063e5553.compiler_builtins.8129c65e379068d4-cgu.178.rcgu.o):(.debug_abbrev)
    1665     1665        0     1                 $d
    171e     171e       5f     1         /home/famous282/.rustup/toolchains/stable-x86_64-unknown-linux-gnu/lib/rustlib/riscv32imac-unknown-none-elf/lib/libcompiler_builtins-5525e237063e5553.rlib(compiler_builtins-5525e237063e5553.compiler_builtins.8129c65e379068d4-cgu.184.rcgu.o):(.debug_abbrev)
    171e     171e        0     1                 $d
    177d     177d       2e     1         /home/famous282/.rustup/toolchains/stable-x86_64-unknown-linux-gnu/lib/rustlib/riscv32imac-unknown-none-elf/lib/libcompiler_builtins-5525e237063e5553.rlib(compiler_builtins-5525e237063e5553.compiler_builtins.8129c65e379068d4-cgu.192.rcgu.o):(.debug_abbrev)
    177d     177d        0     1                 $d
    17ab     17ab      14e     1         /home/famous282/.rustup/toolchains/stable-x86_64-unknown-linux-gnu/lib/rustlib/riscv32imac-unknown-none-elf/lib/libcompiler_builtins-5525e237063e5553.rlib(compiler_builtins-5525e237063e5553.compiler_builtins.8129c65e379068d4-cgu.000.rcgu.o):(.debug_abbrev)
    17ab     17ab        0     1                 $d
    18f9     18f9       e9     1         /home/famous282/.rustup/toolchains/stable-x86_64-unknown-linux-gnu/lib/rustlib/riscv32imac-unknown-none-elf/lib/libcompiler_builtins-5525e237063e5553.rlib(compiler_builtins-5525e237063e5553.compiler_builtins.8129c65e379068d4-cgu.193.rcgu.o):(.debug_abbrev)
    18f9     18f9        0     1                 $d
    19e2     19e2       ca     1         /home/famous282/.rustup/toolchains/stable-x86_64-unknown-linux-gnu/lib/rustlib/riscv32imac-unknown-none-elf/lib/libcompiler_builtins-5525e237063e5553.rlib(compiler_builtins-5525e237063e5553.compiler_builtins.8129c65e379068d4-cgu.205.rcgu.o):(.debug_abbrev)
    19e2     19e2        0     1                 $d
    1aac     1aac       aa     1         /home/famous282/.rustup/toolchains/stable-x86_64-unknown-linux-gnu/lib/rustlib/riscv32imac-unknown-none-elf/lib/libcompiler_builtins-5525e237063e5553.rlib(compiler_builtins-5525e237063e5553.compiler_builtins.8129c65e379068d4-cgu.221.rcgu.o):(.debug_abbrev)
    1aac     1aac        0     1                 $d
    1b56     1b56       5f     1         /home/famous282/.rustup/toolchains/stable-x86_64-unknown-linux-gnu/lib/rustlib/riscv32imac-unknown-none-elf/lib/libcompiler_builtins-5525e237063e5553.rlib(compiler_builtins-5525e237063e5553.compiler_builtins.8129c65e379068d4-cgu.247.rcgu.o):(.debug_abbrev)
    1b56     1b56        0     1                 $d
    1bb5     1bb5       e0     1         /home/famous282/.rustup/toolchains/stable-x86_64-unknown-linux-gnu/lib/rustlib/riscv32imac-unknown-none-elf/lib/libcompiler_builtins-5525e237063e5553.rlib(compiler_builtins-5525e237063e5553.compiler_builtins.8129c65e379068d4-cgu.248.rcgu.o):(.debug_abbrev)
    1bb5     1bb5        0     1                 $d
    1c95     1c95       cf     1         /home/famous282/.rustup/toolchains/stable-x86_64-unknown-linux-gnu/lib/rustlib/riscv32imac-unknown-none-elf/lib/libcompiler_builtins-5525e237063e5553.rlib(compiler_builtins-5525e237063e5553.compiler_builtins.8129c65e379068d4-cgu.249.rcgu.o):(.debug_abbrev)
    1c95     1c95        0     1                 $d
    1d64     1d64       5f     1         /home/famous282/.rustup/toolchains/stable-x86_64-unknown-linux-gnu/lib/rustlib/riscv32imac-unknown-none-elf/lib/libcompiler_builtins-5525e237063e5553.rlib(compiler_builtins-5525e237063e5553.compiler_builtins.8129c65e379068d4-cgu.256.rcgu.o):(.debug_abbrev)
    1d64     1d64        0     1                 $d
    1dc3     1dc3       2e     1         /home/famous282/.rustup/toolchains/stable-x86_64-unknown-linux-gnu/lib/rustlib/riscv32imac-unknown-none-elf/lib/libcompiler_builtins-5525e237063e5553.rlib(compiler_builtins-5525e237063e5553.compiler_builtins.8129c65e379068d4-cgu.264.rcgu.o):(.debug_abbrev)
    1dc3     1dc3        0     1                 $d
    1df1     1df1      131     1         /home/famous282/.rustup/toolchains/stable-x86_64-unknown-linux-gnu/lib/rustlib/riscv32imac-unknown-none-elf/lib/libcompiler_builtins-5525e237063e5553.rlib(compiler_builtins-5525e237063e5553.compiler_builtins.8129c65e379068d4-cgu.012.rcgu.o):(.debug_abbrev)
    1df1     1df1        0     1                 $d
    1f22     1f22       b9     1         /home/famous282/.rustup/toolchains/stable-x86_64-unknown-linux-gnu/lib/rustlib/riscv32imac-unknown-none-elf/lib/libcompiler_builtins-5525e237063e5553.rlib(compiler_builtins-5525e237063e5553.compiler_builtins.8129c65e379068d4-cgu.295.rcgu.o):(.debug_abbrev)
    1f22     1f22        0     1                 $d
    1fdb     1fdb       b9     1         /home/famous282/.rustup/toolchains/stable-x86_64-unknown-linux-gnu/lib/rustlib/riscv32imac-unknown-none-elf/lib/libcompiler_builtins-5525e237063e5553.rlib(compiler_builtins-5525e237063e5553.compiler_builtins.8129c65e379068d4-cgu.314.rcgu.o):(.debug_abbrev)
    1fdb     1fdb        0     1                 $d
    2094     2094       2e     1         /home/famous282/.rustup/toolchains/stable-x86_64-unknown-linux-gnu/lib/rustlib/riscv32imac-unknown-none-elf/lib/libcompiler_builtins-5525e237063e5553.rlib(compiler_builtins-5525e237063e5553.compiler_builtins.8129c65e379068d4-cgu.322.rcgu.o):(.debug_abbrev)
    2094     2094        0     1                 $d
    20c2     20c2       aa     1         /home/famous282/.rustup/toolchains/stable-x86_64-unknown-linux-gnu/lib/rustlib/riscv32imac-unknown-none-elf/lib/libcompiler_builtins-5525e237063e5553.rlib(compiler_builtins-5525e237063e5553.compiler_builtins.8129c65e379068d4-cgu.326.rcgu.o):(.debug_abbrev)
    20c2     20c2        0     1                 $d
    216c     216c       aa     1         /home/famous282/.rustup/toolchains/stable-x86_64-unknown-linux-gnu/lib/rustlib/riscv32imac-unknown-none-elf/lib/libcompiler_builtins-5525e237063e5553.rlib(compiler_builtins-5525e237063e5553.compiler_builtins.8129c65e379068d4-cgu.328.rcgu.o):(.debug_abbrev)
    216c     216c        0     1                 $d
    2216     2216       aa     1         /home/famous282/.rustup/toolchains/stable-x86_64-unknown-linux-gnu/lib/rustlib/riscv32imac-unknown-none-elf/lib/libcompiler_builtins-5525e237063e5553.rlib(compiler_builtins-5525e237063e5553.compiler_builtins.8129c65e379068d4-cgu.330.rcgu.o):(.debug_abbrev)
    2216     2216        0     1                 $d
    22c0     22c0       2e     1         /home/famous282/.rustup/toolchains/stable-x86_64-unknown-linux-gnu/lib/rustlib/riscv32imac-unknown-none-elf/lib/libcompiler_builtins-5525e237063e5553.rlib(compiler_builtins-5525e237063e5553.compiler_builtins.8129c65e379068d4-cgu.336.rcgu.o):(.debug_abbrev)
    22c0     22c0        0     1                 $d
       0        0    2a21e     1 .debug_info
       0        0      c21     1         /home/famous282/1000linesOS/kernel/target/riscv32imac-unknown-none-elf/debug/deps/kernel-dfa3df23995ef8b4.24qdkavsqt2e6ckh6joba0u2j.1g4k02t.rcgu.o:(.debug_info)
       0        0        0     1                 .L0 
       0        0        0     1                 $d
     c21      c21      6e6     1         /home/famous282/1000linesOS/kernel/target/riscv32imac-unknown-none-elf/debug/deps/kernel-dfa3df23995ef8b4.3lszhsxzyn1vde1rs4win02um.1g4k02t.rcgu.o:(.debug_info)
     c21      c21        0     1                 .L0 
     c21      c21        0     1                 $d
    1307     1307      488     1         /home/famous282/1000linesOS/kernel/target/riscv32imac-unknown-none-elf/debug/deps/kernel-dfa3df23995ef8b4.4ftrnxq5k2ijxu6ko4fxfrcj8.1g4k02t.rcgu.o:(.debug_info)
    1307     1307        0     1                 .L0 
    1307     1307        0     1                 $d
    178f     178f      6c9     1         /home/famous282/1000linesOS/kernel/target/riscv32imac-unknown-none-elf/debug/deps/kernel-dfa3df23995ef8b4.63ptxjvpldbz03i077ow9897u.1g4k02t.rcgu.o:(.debug_info)
    178f     178f        0     1                 .L0 
    178f     178f        0     1                 $d
    1e58     1e58      648     1         /home/famous282/1000linesOS/kernel/target/riscv32imac-unknown-none-elf/debug/deps/kernel-dfa3df23995ef8b4.aqtcxbzy89ozo9dgld6fn0q5h.1g4k02t.rcgu.o:(.debug_info)
    1e58     1e58        0     1                 .L0 
    1e58     1e58        0     1                 $d
    24a0     24a0      bc9     1         /home/famous282/1000linesOS/kernel/target/riscv32imac-unknown-none-elf/debug/deps/kernel-dfa3df23995ef8b4.b1wfjfrxrno1sga9zbdwiqldk.1g4k02t.rcgu.o:(.debug_info)
    24a0     24a0        0     1                 .L0 
    24a0     24a0        0     1                 $d
    3069     3069      33c     1         /home/famous282/1000linesOS/kernel/target/riscv32imac-unknown-none-elf/debug/deps/kernel-dfa3df23995ef8b4.bd4aykr3vnli855y8j4uib0hb.1g4k02t.rcgu.o:(.debug_info)
    3069     3069        0     1                 .L0 
    3069     3069        0     1                 $d
    33a5     33a5    20cb5     1         /home/famous282/.rustup/toolchains/stable-x86_64-unknown-linux-gnu/lib/rustlib/riscv32imac-unknown-none-elf/lib/libcore-36e1cca942c0a58a.rlib(core-36e1cca942c0a58a.core.283c90c5601d86be-cgu.0.rcgu.o):(.debug_info)
    33a5     33a5        0     1                 .L0 
    33a5     33a5        0     1                 $d
   2405a    2405a       86     1         /home/famous282/.rustup/toolchains/stable-x86_64-unknown-linux-gnu/lib/rustlib/riscv32imac-unknown-none-elf/lib/libcompiler_builtins-5525e237063e5553.rlib(compiler_builtins-5525e237063e5553.compiler_builtins.8129c65e379068d4-cgu.107.rcgu.o):(.debug_info)
   2405a    2405a        0     1                 .L0 
   2405a    2405a        0     1                 $d
   240e0    240e0       a1     1         /home/famous282/.rustup/toolchains/stable-x86_64-unknown-linux-gnu/lib/rustlib/riscv32imac-unknown-none-elf/lib/libcompiler_builtins-5525e237063e5553.rlib(compiler_builtins-5525e237063e5553.compiler_builtins.8129c65e379068d4-cgu.163.rcgu.o):(.debug_info)
   240e0    240e0        0     1                 .L0 
   240e0    240e0        0     1                 $d
   24181    24181      419     1         /home/famous282/.rustup/toolchains/stable-x86_64-unknown-linux-gnu/lib/rustlib/riscv32imac-unknown-none-elf/lib/libcompiler_builtins-5525e237063e5553.rlib(compiler_builtins-5525e237063e5553.compiler_builtins.8129c65e379068d4-cgu.017.rcgu.o):(.debug_info)
   24181    24181        0     1                 .L0 
   24181    24181        0     1                 $d
   2459a    2459a      15e     1         /home/famous282/.rustup/toolchains/stable-x86_64-unknown-linux-gnu/lib/rustlib/riscv32imac-unknown-none-elf/lib/libcompiler_builtins-5525e237063e5553.rlib(compiler_builtins-5525e237063e5553.compiler_builtins.8129c65e379068d4-cgu.173.rcgu.o):(.debug_info)
   2459a    2459a        0     1                 .L0 
   2459a    2459a        0     1                 $d
   246f8    246f8       51     1         /home/famous282/.rustup/toolchains/stable-x86_64-unknown-linux-gnu/lib/rustlib/riscv32imac-unknown-none-elf/lib/libcompiler_builtins-5525e237063e5553.rlib(compiler_builtins-5525e237063e5553.compiler_builtins.8129c65e379068d4-cgu.177.rcgu.o):(.debug_info)
   246f8    246f8        0     1                 .L0 
   246f8    246f8        0     1                 $d
   24749    24749     14d6     1         /home/famous282/.rustup/toolchains/stable-x86_64-unknown-linux-gnu/lib/rustlib/riscv32imac-unknown-none-elf/lib/libcompiler_builtins-5525e237063e5553.rlib(compiler_builtins-5525e237063e5553.compiler_builtins.8129c65e379068d4-cgu.003.rcgu.o):(.debug_info)
   24749    24749        0     1                 .L0 
   24749    24749        0     1                 $d
   25c1f    25c1f      37f     1         /home/famous282/.rustup/toolchains/stable-x86_64-unknown-linux-gnu/lib/rustlib/riscv32imac-unknown-none-elf/lib/libcompiler_builtins-5525e237063e5553.rlib(compiler_builtins-5525e237063e5553.compiler_builtins.8129c65e379068d4-cgu.019.rcgu.o):(.debug_info)
   25c1f    25c1f        0     1                 .L0 
   25c1f    25c1f        0     1                 $d
   25f9e    25f9e      1d8     1         /home/famous282/.rustup/toolchains/stable-x86_64-unknown-linux-gnu/lib/rustlib/riscv32imac-unknown-none-elf/lib/libcompiler_builtins-5525e237063e5553.rlib(compiler_builtins-5525e237063e5553.compiler_builtins.8129c65e379068d4-cgu.178.rcgu.o):(.debug_info)
   25f9e    25f9e        0     1                 .L0 
   25f9e    25f9e        0     1                 $d
   26176    26176       a1     1         /home/famous282/.rustup/toolchains/stable-x86_64-unknown-linux-gnu/lib/rustlib/riscv32imac-unknown-none-elf/lib/libcompiler_builtins-5525e237063e5553.rlib(compiler_builtins-5525e237063e5553.compiler_builtins.8129c65e379068d4-cgu.184.rcgu.o):(.debug_info)
   26176    26176        0     1                 .L0 
   26176    26176        0     1                 $d
   26217    26217       51     1         /home/famous282/.rustup/toolchains/stable-x86_64-unknown-linux-gnu/lib/rustlib/riscv32imac-unknown-none-elf/lib/libcompiler_builtins-5525e237063e5553.rlib(compiler_builtins-5525e237063e5553.compiler_builtins.8129c65e379068d4-cgu.192.rcgu.o):(.debug_info)
   26217    26217        0     1                 .L0 
   26217    26217        0     1                 $d
   26268    26268     182c     1         /home/famous282/.rustup/toolchains/stable-x86_64-unknown-linux-gnu/lib/rustlib/riscv32imac-unknown-none-elf/lib/libcompiler_builtins-5525e237063e5553.rlib(compiler_builtins-5525e237063e5553.compiler_builtins.8129c65e379068d4-cgu.000.rcgu.o):(.debug_info)
   26268    26268        0     1                 .L0 
   26268    26268        0     1                 $d
   27a94    27a94      2a7     1         /home/famous282/.rustup/toolchains/stable-x86_64-unknown-linux-gnu/lib/rustlib/riscv32imac-unknown-none-elf/lib/libcompiler_builtins-5525e237063e5553.rlib(compiler_builtins-5525e237063e5553.compiler_builtins.8129c65e379068d4-cgu.193.rcgu.o):(.debug_info)
   27a94    27a94        0     1                 .L0 
   27a94    27a94        0     1                 $d
   27d3b    27d3b      377     1         /home/famous282/.rustup/toolchains/stable-x86_64-unknown-linux-gnu/lib/rustlib/riscv32imac-unknown-none-elf/lib/libcompiler_builtins-5525e237063e5553.rlib(compiler_builtins-5525e237063e5553.compiler_builtins.8129c65e379068d4-cgu.205.rcgu.o):(.debug_info)
   27d3b    27d3b        0     1                 .L0 
   27d3b    27d3b        0     1                 $d
   280b2    280b2      15e     1         /home/famous282/.rustup/toolchains/stable-x86_64-unknown-linux-gnu/lib/rustlib/riscv32imac-unknown-none-elf/lib/libcompiler_builtins-5525e237063e5553.rlib(compiler_builtins-5525e237063e5553.compiler_builtins.8129c65e379068d4-cgu.221.rcgu.o):(.debug_info)
   280b2    280b2        0     1                 .L0 
   280b2    280b2        0     1                 $d
   28210    28210       a1     1         /home/famous282/.rustup/toolchains/stable-x86_64-unknown-linux-gnu/lib/rustlib/riscv32imac-unknown-none-elf/lib/libcompiler_builtins-5525e237063e5553.rlib(compiler_builtins-5525e237063e5553.compiler_builtins.8129c65e379068d4-cgu.247.rcgu.o):(.debug_info)
   28210    28210        0     1                 .L0 
   28210    28210        0     1                 $d
   282b1    282b1      274     1         /home/famous282/.rustup/toolchains/stable-x86_64-unknown-linux-gnu/lib/rustlib/riscv32imac-unknown-none-elf/lib/libcompiler_builtins-5525e237063e5553.rlib(compiler_builtins-5525e237063e5553.compiler_builtins.8129c65e379068d4-cgu.248.rcgu.o):(.debug_info)
   282b1    282b1        0     1                 .L0 
   282b1    282b1        0     1                 $d
   28525    28525      273     1         /home/famous282/.rustup/toolchains/stable-x86_64-unknown-linux-gnu/lib/rustlib/riscv32imac-unknown-none-elf/lib/libcompiler_builtins-5525e237063e5553.rlib(compiler_builtins-5525e237063e5553.compiler_builtins.8129c65e379068d4-cgu.249.rcgu.o):(.debug_info)
   28525    28525        0     1                 .L0 
   28525    28525        0     1                 $d
   28798    28798       a1     1         /home/famous282/.rustup/toolchains/stable-x86_64-unknown-linux-gnu/lib/rustlib/riscv32imac-unknown-none-elf/lib/libcompiler_builtins-5525e237063e5553.rlib(compiler_builtins-5525e237063e5553.compiler_builtins.8129c65e379068d4-cgu.256.rcgu.o):(.debug_info)
   28798    28798        0     1                 .L0 
   28798    28798        0     1                 $d
   28839    28839       4b     1         /home/famous282/.rustup/toolchains/stable-x86_64-unknown-linux-gnu/lib/rustlib/riscv32imac-unknown-none-elf/lib/libcompiler_builtins-5525e237063e5553.rlib(compiler_builtins-5525e237063e5553.compiler_builtins.8129c65e379068d4-cgu.264.rcgu.o):(.debug_info)
   28839    28839        0     1                 .L0 
   28839    28839        0     1                 $d
   28884    28884      f19     1         /home/famous282/.rustup/toolchains/stable-x86_64-unknown-linux-gnu/lib/rustlib/riscv32imac-unknown-none-elf/lib/libcompiler_builtins-5525e237063e5553.rlib(compiler_builtins-5525e237063e5553.compiler_builtins.8129c65e379068d4-cgu.012.rcgu.o):(.debug_info)
   28884    28884        0     1                 .L0 
   28884    28884        0     1                 $d
   2979d    2979d      1d8     1         /home/famous282/.rustup/toolchains/stable-x86_64-unknown-linux-gnu/lib/rustlib/riscv32imac-unknown-none-elf/lib/libcompiler_builtins-5525e237063e5553.rlib(compiler_builtins-5525e237063e5553.compiler_builtins.8129c65e379068d4-cgu.295.rcgu.o):(.debug_info)
   2979d    2979d        0     1                 .L0 
   2979d    2979d        0     1                 $d
   29975    29975      1d8     1         /home/famous282/.rustup/toolchains/stable-x86_64-unknown-linux-gnu/lib/rustlib/riscv32imac-unknown-none-elf/lib/libcompiler_builtins-5525e237063e5553.rlib(compiler_builtins-5525e237063e5553.compiler_builtins.8129c65e379068d4-cgu.314.rcgu.o):(.debug_info)
   29975    29975        0     1                 .L0 
   29975    29975        0     1                 $d
   29b4d    29b4d       51     1         /home/famous282/.rustup/toolchains/stable-x86_64-unknown-linux-gnu/lib/rustlib/riscv32imac-unknown-none-elf/lib/libcompiler_builtins-5525e237063e5553.rlib(compiler_builtins-5525e237063e5553.compiler_builtins.8129c65e379068d4-cgu.322.rcgu.o):(.debug_info)
   29b4d    29b4d        0     1                 .L0 
   29b4d    29b4d        0     1                 $d
   29b9e    29b9e      15e     1         /home/famous282/.rustup/toolchains/stable-x86_64-unknown-linux-gnu/lib/rustlib/riscv32imac-unknown-none-elf/lib/libcompiler_builtins-5525e237063e5553.rlib(compiler_builtins-5525e237063e5553.compiler_builtins.8129c65e379068d4-cgu.326.rcgu.o):(.debug_info)
   29b9e    29b9e        0     1                 .L0 
   29b9e    29b9e        0     1                 $d
   29cfc    29cfc      15e     1         /home/famous282/.rustup/toolchains/stable-x86_64-unknown-linux-gnu/lib/rustlib/riscv32imac-unknown-none-elf/lib/libcompiler_builtins-5525e237063e5553.rlib(compiler_builtins-5525e237063e5553.compiler_builtins.8129c65e379068d4-cgu.328.rcgu.o):(.debug_info)
   29cfc    29cfc        0     1                 .L0 
   29cfc    29cfc        0     1                 $d
   29e5a    29e5a      373     1         /home/famous282/.rustup/toolchains/stable-x86_64-unknown-linux-gnu/lib/rustlib/riscv32imac-unknown-none-elf/lib/libcompiler_builtins-5525e237063e5553.rlib(compiler_builtins-5525e237063e5553.compiler_builtins.8129c65e379068d4-cgu.330.rcgu.o):(.debug_info)
   29e5a    29e5a        0     1                 .L0 
   29e5a    29e5a        0     1                 $d
   2a1cd    2a1cd       51     1         /home/famous282/.rustup/toolchains/stable-x86_64-unknown-linux-gnu/lib/rustlib/riscv32imac-unknown-none-elf/lib/libcompiler_builtins-5525e237063e5553.rlib(compiler_builtins-5525e237063e5553.compiler_builtins.8129c65e379068d4-cgu.336.rcgu.o):(.debug_info)
   2a1cd    2a1cd        0     1                 .L0 
   2a1cd    2a1cd        0     1                 $d
       0        0     1590     1 .debug_aranges
       0        0       50     1         /home/famous282/1000linesOS/kernel/target/riscv32imac-unknown-none-elf/debug/deps/kernel-dfa3df23995ef8b4.24qdkavsqt2e6ckh6joba0u2j.1g4k02t.rcgu.o:(.debug_aranges)
       0        0        0     1                 $d
      50       50       30     1         /home/famous282/1000linesOS/kernel/target/riscv32imac-unknown-none-elf/debug/deps/kernel-dfa3df23995ef8b4.3lszhsxzyn1vde1rs4win02um.1g4k02t.rcgu.o:(.debug_aranges)
      50       50        0     1                 $d
      80       80       20     1         /home/famous282/1000linesOS/kernel/target/riscv32imac-unknown-none-elf/debug/deps/kernel-dfa3df23995ef8b4.4ftrnxq5k2ijxu6ko4fxfrcj8.1g4k02t.rcgu.o:(.debug_aranges)
      80       80        0     1                 $d
      a0       a0       28     1         /home/famous282/1000linesOS/kernel/target/riscv32imac-unknown-none-elf/debug/deps/kernel-dfa3df23995ef8b4.63ptxjvpldbz03i077ow9897u.1g4k02t.rcgu.o:(.debug_aranges)
      a0       a0        0     1                 $d
      c8       c8       20     1         /home/famous282/1000linesOS/kernel/target/riscv32imac-unknown-none-elf/debug/deps/kernel-dfa3df23995ef8b4.aqtcxbzy89ozo9dgld6fn0q5h.1g4k02t.rcgu.o:(.debug_aranges)
      c8       c8        0     1                 $d
      e8       e8       28     1         /home/famous282/1000linesOS/kernel/target/riscv32imac-unknown-none-elf/debug/deps/kernel-dfa3df23995ef8b4.b1wfjfrxrno1sga9zbdwiqldk.1g4k02t.rcgu.o:(.debug_aranges)
      e8       e8        0     1                 $d
     110      110       28     1         /home/famous282/1000linesOS/kernel/target/riscv32imac-unknown-none-elf/debug/deps/kernel-dfa3df23995ef8b4.bd4aykr3vnli855y8j4uib0hb.1g4k02t.rcgu.o:(.debug_aranges)
     110      110        0     1                 $d
     138      138     1078     1         /home/famous282/.rustup/toolchains/stable-x86_64-unknown-linux-gnu/lib/rustlib/riscv32imac-unknown-none-elf/lib/libcore-36e1cca942c0a58a.rlib(core-36e1cca942c0a58a.core.283c90c5601d86be-cgu.0.rcgu.o):(.debug_aranges)
     138      138        0     1                 $d
    11b0     11b0       20     1         /home/famous282/.rustup/toolchains/stable-x86_64-unknown-linux-gnu/lib/rustlib/riscv32imac-unknown-none-elf/lib/libcompiler_builtins-5525e237063e5553.rlib(compiler_builtins-5525e237063e5553.compiler_builtins.8129c65e379068d4-cgu.107.rcgu.o):(.debug_aranges)
    11b0     11b0        0     1                 $d
    11d0     11d0       20     1         /home/famous282/.rustup/toolchains/stable-x86_64-unknown-linux-gnu/lib/rustlib/riscv32imac-unknown-none-elf/lib/libcompiler_builtins-5525e237063e5553.rlib(compiler_builtins-5525e237063e5553.compiler_builtins.8129c65e379068d4-cgu.163.rcgu.o):(.debug_aranges)
    11d0     11d0        0     1                 $d
    11f0     11f0       28     1         /home/famous282/.rustup/toolchains/stable-x86_64-unknown-linux-gnu/lib/rustlib/riscv32imac-unknown-none-elf/lib/libcompiler_builtins-5525e237063e5553.rlib(compiler_builtins-5525e237063e5553.compiler_builtins.8129c65e379068d4-cgu.017.rcgu.o):(.debug_aranges)
    11f0     11f0        0     1                 $d
    1218     1218       20     1         /home/famous282/.rustup/toolchains/stable-x86_64-unknown-linux-gnu/lib/rustlib/riscv32imac-unknown-none-elf/lib/libcompiler_builtins-5525e237063e5553.rlib(compiler_builtins-5525e237063e5553.compiler_builtins.8129c65e379068d4-cgu.173.rcgu.o):(.debug_aranges)
    1218     1218        0     1                 $d
    1238     1238       20     1         /home/famous282/.rustup/toolchains/stable-x86_64-unknown-linux-gnu/lib/rustlib/riscv32imac-unknown-none-elf/lib/libcompiler_builtins-5525e237063e5553.rlib(compiler_builtins-5525e237063e5553.compiler_builtins.8129c65e379068d4-cgu.177.rcgu.o):(.debug_aranges)
    1238     1238        0     1                 $d
    1258     1258       38     1         /home/famous282/.rustup/toolchains/stable-x86_64-unknown-linux-gnu/lib/rustlib/riscv32imac-unknown-none-elf/lib/libcompiler_builtins-5525e237063e5553.rlib(compiler_builtins-5525e237063e5553.compiler_builtins.8129c65e379068d4-cgu.003.rcgu.o):(.debug_aranges)
    1258     1258        0     1                 $d
    1290     1290       60     1         /home/famous282/.rustup/toolchains/stable-x86_64-unknown-linux-gnu/lib/rustlib/riscv32imac-unknown-none-elf/lib/libcompiler_builtins-5525e237063e5553.rlib(compiler_builtins-5525e237063e5553.compiler_builtins.8129c65e379068d4-cgu.019.rcgu.o):(.debug_aranges)
    1290     1290        0     1                 $d
    12f0     12f0       20     1         /home/famous282/.rustup/toolchains/stable-x86_64-unknown-linux-gnu/lib/rustlib/riscv32imac-unknown-none-elf/lib/libcompiler_builtins-5525e237063e5553.rlib(compiler_builtins-5525e237063e5553.compiler_builtins.8129c65e379068d4-cgu.178.rcgu.o):(.debug_aranges)
    12f0     12f0        0     1                 $d
    1310     1310       20     1         /home/famous282/.rustup/toolchains/stable-x86_64-unknown-linux-gnu/lib/rustlib/riscv32imac-unknown-none-elf/lib/libcompiler_builtins-5525e237063e5553.rlib(compiler_builtins-5525e237063e5553.compiler_builtins.8129c65e379068d4-cgu.184.rcgu.o):(.debug_aranges)
    1310     1310        0     1                 $d
    1330     1330       20     1         /home/famous282/.rustup/toolchains/stable-x86_64-unknown-linux-gnu/lib/rustlib/riscv32imac-unknown-none-elf/lib/libcompiler_builtins-5525e237063e5553.rlib(compiler_builtins-5525e237063e5553.compiler_builtins.8129c65e379068d4-cgu.192.rcgu.o):(.debug_aranges)
    1330     1330        0     1                 $d
    1350     1350       30     1         /home/famous282/.rustup/toolchains/stable-x86_64-unknown-linux-gnu/lib/rustlib/riscv32imac-unknown-none-elf/lib/libcompiler_builtins-5525e237063e5553.rlib(compiler_builtins-5525e237063e5553.compiler_builtins.8129c65e379068d4-cgu.000.rcgu.o):(.debug_aranges)
    1350     1350        0     1                 $d
    1380     1380       20     1         /home/famous282/.rustup/toolchains/stable-x86_64-unknown-linux-gnu/lib/rustlib/riscv32imac-unknown-none-elf/lib/libcompiler_builtins-5525e237063e5553.rlib(compiler_builtins-5525e237063e5553.compiler_builtins.8129c65e379068d4-cgu.193.rcgu.o):(.debug_aranges)
    1380     1380        0     1                 $d
    13a0     13a0       20     1         /home/famous282/.rustup/toolchains/stable-x86_64-unknown-linux-gnu/lib/rustlib/riscv32imac-unknown-none-elf/lib/libcompiler_builtins-5525e237063e5553.rlib(compiler_builtins-5525e237063e5553.compiler_builtins.8129c65e379068d4-cgu.205.rcgu.o):(.debug_aranges)
    13a0     13a0        0     1                 $d
    13c0     13c0       20     1         /home/famous282/.rustup/toolchains/stable-x86_64-unknown-linux-gnu/lib/rustlib/riscv32imac-unknown-none-elf/lib/libcompiler_builtins-5525e237063e5553.rlib(compiler_builtins-5525e237063e5553.compiler_builtins.8129c65e379068d4-cgu.221.rcgu.o):(.debug_aranges)
    13c0     13c0        0     1                 $d
    13e0     13e0       20     1         /home/famous282/.rustup/toolchains/stable-x86_64-unknown-linux-gnu/lib/rustlib/riscv32imac-unknown-none-elf/lib/libcompiler_builtins-5525e237063e5553.rlib(compiler_builtins-5525e237063e5553.compiler_builtins.8129c65e379068d4-cgu.247.rcgu.o):(.debug_aranges)
    13e0     13e0        0     1                 $d
    1400     1400       20     1         /home/famous282/.rustup/toolchains/stable-x86_64-unknown-linux-gnu/lib/rustlib/riscv32imac-unknown-none-elf/lib/libcompiler_builtins-5525e237063e5553.rlib(compiler_builtins-5525e237063e5553.compiler_builtins.8129c65e379068d4-cgu.248.rcgu.o):(.debug_aranges)
    1400     1400        0     1                 $d
    1420     1420       20     1         /home/famous282/.rustup/toolchains/stable-x86_64-unknown-linux-gnu/lib/rustlib/riscv32imac-unknown-none-elf/lib/libcompiler_builtins-5525e237063e5553.rlib(compiler_builtins-5525e237063e5553.compiler_builtins.8129c65e379068d4-cgu.249.rcgu.o):(.debug_aranges)
    1420     1420        0     1                 $d
    1440     1440       20     1         /home/famous282/.rustup/toolchains/stable-x86_64-unknown-linux-gnu/lib/rustlib/riscv32imac-unknown-none-elf/lib/libcompiler_builtins-5525e237063e5553.rlib(compiler_builtins-5525e237063e5553.compiler_builtins.8129c65e379068d4-cgu.256.rcgu.o):(.debug_aranges)
    1440     1440        0     1                 $d
    1460     1460       20     1         /home/famous282/.rustup/toolchains/stable-x86_64-unknown-linux-gnu/lib/rustlib/riscv32imac-unknown-none-elf/lib/libcompiler_builtins-5525e237063e5553.rlib(compiler_builtins-5525e237063e5553.compiler_builtins.8129c65e379068d4-cgu.264.rcgu.o):(.debug_aranges)
    1460     1460        0     1                 $d
    1480     1480       30     1         /home/famous282/.rustup/toolchains/stable-x86_64-unknown-linux-gnu/lib/rustlib/riscv32imac-unknown-none-elf/lib/libcompiler_builtins-5525e237063e5553.rlib(compiler_builtins-5525e237063e5553.compiler_builtins.8129c65e379068d4-cgu.012.rcgu.o):(.debug_aranges)
    1480     1480        0     1                 $d
    14b0     14b0       20     1         /home/famous282/.rustup/toolchains/stable-x86_64-unknown-linux-gnu/lib/rustlib/riscv32imac-unknown-none-elf/lib/libcompiler_builtins-5525e237063e5553.rlib(compiler_builtins-5525e237063e5553.compiler_builtins.8129c65e379068d4-cgu.295.rcgu.o):(.debug_aranges)
    14b0     14b0        0     1                 $d
    14d0     14d0       20     1         /home/famous282/.rustup/toolchains/stable-x86_64-unknown-linux-gnu/lib/rustlib/riscv32imac-unknown-none-elf/lib/libcompiler_builtins-5525e237063e5553.rlib(compiler_builtins-5525e237063e5553.compiler_builtins.8129c65e379068d4-cgu.314.rcgu.o):(.debug_aranges)
    14d0     14d0        0     1                 $d
    14f0     14f0       20     1         /home/famous282/.rustup/toolchains/stable-x86_64-unknown-linux-gnu/lib/rustlib/riscv32imac-unknown-none-elf/lib/libcompiler_builtins-5525e237063e5553.rlib(compiler_builtins-5525e237063e5553.compiler_builtins.8129c65e379068d4-cgu.322.rcgu.o):(.debug_aranges)
    14f0     14f0        0     1                 $d
    1510     1510       20     1         /home/famous282/.rustup/toolchains/stable-x86_64-unknown-linux-gnu/lib/rustlib/riscv32imac-unknown-none-elf/lib/libcompiler_builtins-5525e237063e5553.rlib(compiler_builtins-5525e237063e5553.compiler_builtins.8129c65e379068d4-cgu.326.rcgu.o):(.debug_aranges)
    1510     1510        0     1                 $d
    1530     1530       20     1         /home/famous282/.rustup/toolchains/stable-x86_64-unknown-linux-gnu/lib/rustlib/riscv32imac-unknown-none-elf/lib/libcompiler_builtins-5525e237063e5553.rlib(compiler_builtins-5525e237063e5553.compiler_builtins.8129c65e379068d4-cgu.328.rcgu.o):(.debug_aranges)
    1530     1530        0     1                 $d
    1550     1550       20     1         /home/famous282/.rustup/toolchains/stable-x86_64-unknown-linux-gnu/lib/rustlib/riscv32imac-unknown-none-elf/lib/libcompiler_builtins-5525e237063e5553.rlib(compiler_builtins-5525e237063e5553.compiler_builtins.8129c65e379068d4-cgu.330.rcgu.o):(.debug_aranges)
    1550     1550        0     1                 $d
    1570     1570       20     1         /home/famous282/.rustup/toolchains/stable-x86_64-unknown-linux-gnu/lib/rustlib/riscv32imac-unknown-none-elf/lib/libcompiler_builtins-5525e237063e5553.rlib(compiler_builtins-5525e237063e5553.compiler_builtins.8129c65e379068d4-cgu.336.rcgu.o):(.debug_aranges)
    1570     1570        0     1                 $d
       0        0     d180     1 .debug_ranges
       0        0       c8     1         /home/famous282/1000linesOS/kernel/target/riscv32imac-unknown-none-elf/debug/deps/kernel-dfa3df23995ef8b4.24qdkavsqt2e6ckh6joba0u2j.1g4k02t.rcgu.o:(.debug_ranges)
       0        0        0     1                 .L0 
       0        0        0     1                 $d
      18       18        0     1                 .L0 
      38       38        0     1                 .L0 
      50       50        0     1                 .L0 
      68       68        0     1                 .L0 
      80       80        0     1                 .L0 
      98       98        0     1                 .L0 
      c8       c8       a0     1         /home/famous282/1000linesOS/kernel/target/riscv32imac-unknown-none-elf/debug/deps/kernel-dfa3df23995ef8b4.3lszhsxzyn1vde1rs4win02um.1g4k02t.rcgu.o:(.debug_ranges)
      c8       c8        0     1                 .L0 
      c8       c8        0     1                 $d
      e8       e8        0     1                 .L0 
     110      110        0     1                 .L0 
     130      130        0     1                 .L0 
     150      150        0     1                 .L0 
     168      168       98     1         /home/famous282/1000linesOS/kernel/target/riscv32imac-unknown-none-elf/debug/deps/kernel-dfa3df23995ef8b4.63ptxjvpldbz03i077ow9897u.1g4k02t.rcgu.o:(.debug_ranges)
     168      168        0     1                 .L0 
     168      168        0     1                 $d
     180      180        0     1                 .L0 
     198      198        0     1                 .L0 
     1c0      1c0        0     1                 .L0 
     1e8      1e8        0     1                 .L0 
     200      200      118     1         /home/famous282/1000linesOS/kernel/target/riscv32imac-unknown-none-elf/debug/deps/kernel-dfa3df23995ef8b4.b1wfjfrxrno1sga9zbdwiqldk.1g4k02t.rcgu.o:(.debug_ranges)
     200      200        0     1                 .L0 
     200      200        0     1                 $d
     218      218        0     1                 .L0 
     238      238        0     1                 .L0 
     258      258        0     1                 .L0 
     278      278        0     1                 .L0 
     290      290        0     1                 .L0 
     2a8      2a8        0     1                 .L0 
     2c8      2c8        0     1                 .L0 
     2e8      2e8        0     1                 .L0 
     300      300        0     1                 .L0 
     318      318       48     1         /home/famous282/1000linesOS/kernel/target/riscv32imac-unknown-none-elf/debug/deps/kernel-dfa3df23995ef8b4.bd4aykr3vnli855y8j4uib0hb.1g4k02t.rcgu.o:(.debug_ranges)
     318      318        0     1                 .L0 
     318      318        0     1                 $d
     330      330        0     1                 .L0 
     348      348        0     1                 .L0 
     360      360     af70     1         /home/famous282/.rustup/toolchains/stable-x86_64-unknown-linux-gnu/lib/rustlib/riscv32imac-unknown-none-elf/lib/libcore-36e1cca942c0a58a.rlib(core-36e1cca942c0a58a.core.283c90c5601d86be-cgu.0.rcgu.o):(.debug_ranges)
     360      360        0     1                 .L0 
     360      360        0     1                 $d
     378      378        0     1                 .L0 
     398      398        0     1                 .L0 
     3b8      3b8        0     1                 .L0 
     3d0      3d0        0     1                 .L0 
     3f0      3f0        0     1                 .L0 
     410      410        0     1                 .L0 
     428      428        0     1                 .L0 
     440      440        0     1                 .L0 
     458      458        0     1                 .L0 
     478      478        0     1                 .L0 
     498      498        0     1                 .L0 
     4b8      4b8        0     1                 .L0 
     4d0      4d0        0     1                 .L0 
     4e8      4e8        0     1                 .L0 
     500      500        0     1                 .L0 
     518      518        0     1                 .L0 
     530      530        0     1                 .L0 
     548      548        0     1                 .L0 
     560      560        0     1                 .L0 
     578      578        0     1                 .L0 
     5a0      5a0        0     1                 .L0 
     5c8      5c8        0     1                 .L0 
     5f0      5f0        0     1                 .L0 
     610      610        0     1                 .L0 
     628      628        0     1                 .L0 
     640      640        0     1                 .L0 
     658      658        0     1                 .L0 
     670      670        0     1                 .L0 
     690      690        0     1                 .L0 
     6a8      6a8        0     1                 .L0 
     6c8      6c8        0     1                 .L0 
     6e8      6e8        0     1                 .L0 
     700      700        0     1                 .L0 
     718      718        0     1                 .L0 
     738      738        0     1                 .L0 
     750      750        0     1                 .L0 
     768      768        0     1                 .L0 
     780      780        0     1                 .L0 
     798      798        0     1                 .L0 
     7b0      7b0        0     1                 .L0 
     7c8      7c8        0     1                 .L0 
     7e0      7e0        0     1                 .L0 
     800      800        0     1                 .L0 
     828      828        0     1                 .L0 
     848      848        0     1                 .L0 
     860      860        0     1                 .L0 
     878      878        0     1                 .L0 
     890      890        0     1                 .L0 
     8a8      8a8        0     1                 .L0 
     8c8      8c8        0     1                 .L0 
     8f0      8f0        0     1                 .L0 
     908      908        0     1                 .L0 
     920      920        0     1                 .L0 
     938      938        0     1                 .L0 
     950      950        0     1                 .L0 
     968      968        0     1                 .L0 
     980      980        0     1                 .L0 
     9a0      9a0        0     1                 .L0 
     9b8      9b8        0     1                 .L0 
     9e0      9e0        0     1                 .L0 
     a08      a08        0     1                 .L0 
     a30      a30        0     1                 .L0 
     a58      a58        0     1                 .L0 
     a70      a70        0     1                 .L0 
     a90      a90        0     1                 .L0 
     ab8      ab8        0     1                 .L0 
     ae0      ae0        0     1                 .L0 
     b08      b08        0     1                 .L0 
     b30      b30        0     1                 .L0 
     b48      b48        0     1                 .L0 
     b68      b68        0     1                 .L0 
     b80      b80        0     1                 .L0 
     ba0      ba0        0     1                 .L0 
     bc0      bc0        0     1                 .L0 
     bd8      bd8        0     1                 .L0 
     bf0      bf0        0     1                 .L0 
     c08      c08        0     1                 .L0 
     c20      c20        0     1                 .L0 
     c38      c38        0     1                 .L0 
     c50      c50        0     1                 .L0 
     c68      c68        0     1                 .L0 
     c90      c90        0     1                 .L0 
     cb0      cb0        0     1                 .L0 
     cd0      cd0        0     1                 .L0 
     cf0      cf0        0     1                 .L0 
     d08      d08        0     1                 .L0 
     d20      d20        0     1                 .L0 
     d38      d38        0     1                 .L0 
     d50      d50        0     1                 .L0 
     d68      d68        0     1                 .L0 
     d80      d80        0     1                 .L0 
     d98      d98        0     1                 .L0 
     db0      db0        0     1                 .L0 
     dc8      dc8        0     1                 .L0 
     de0      de0        0     1                 .L0 
     e00      e00        0     1                 .L0 
     e20      e20        0     1                 .L0 
     e40      e40        0     1                 .L0 
     e60      e60        0     1                 .L0 
     e78      e78        0     1                 .L0 
     e98      e98        0     1                 .L0 
     eb8      eb8        0     1                 .L0 
     ed0      ed0        0     1                 .L0 
     ee8      ee8        0     1                 .L0 
     f00      f00        0     1                 .L0 
     f18      f18        0     1                 .L0 
     f30      f30        0     1                 .L0 
     f48      f48        0     1                 .L0 
     f68      f68        0     1                 .L0 
     f80      f80        0     1                 .L0 
     fa8      fa8        0     1                 .L0 
     fc0      fc0        0     1                 .L0 
     fd8      fd8        0     1                 .L0 
     ff0      ff0        0     1                 .L0 
    1008     1008        0     1                 .L0 
    1020     1020        0     1                 .L0 
    1038     1038        0     1                 .L0 
    1050     1050        0     1                 .L0 
    1078     1078        0     1                 .L0 
    1098     1098        0     1                 .L0 
    10b0     10b0        0     1                 .L0 
    10d8     10d8        0     1                 .L0 
    10f0     10f0        0     1                 .L0 
    1108     1108        0     1                 .L0 
    1120     1120        0     1                 .L0 
    1138     1138        0     1                 .L0 
    1160     1160        0     1                 .L0 
    1178     1178        0     1                 .L0 
    1190     1190        0     1                 .L0 
    11a8     11a8        0     1                 .L0 
    11c0     11c0        0     1                 .L0 
    11d8     11d8        0     1                 .L0 
    11f0     11f0        0     1                 .L0 
    1218     1218        0     1                 .L0 
    1230     1230        0     1                 .L0 
    1248     1248        0     1                 .L0 
    1260     1260        0     1                 .L0 
    1278     1278        0     1                 .L0 
    1290     1290        0     1                 .L0 
    12a8     12a8        0     1                 .L0 
    12c0     12c0        0     1                 .L0 
    12f0     12f0        0     1                 .L0 
    1320     1320        0     1                 .L0 
    1338     1338        0     1                 .L0 
    1350     1350        0     1                 .L0 
    1378     1378        0     1                 .L0 
    13a0     13a0        0     1                 .L0 
    13b8     13b8        0     1                 .L0 
    13d0     13d0        0     1                 .L0 
    13e8     13e8        0     1                 .L0 
    1408     1408        0     1                 .L0 
    1438     1438        0     1                 .L0 
    1450     1450        0     1                 .L0 
    1468     1468        0     1                 .L0 
    1488     1488        0     1                 .L0 
    14b0     14b0        0     1                 .L0 
    14c8     14c8        0     1                 .L0 
    14e8     14e8        0     1                 .L0 
    1510     1510        0     1                 .L0 
    1528     1528        0     1                 .L0 
    1548     1548        0     1                 .L0 
    1570     1570        0     1                 .L0 
    1588     1588        0     1                 .L0 
    15a8     15a8        0     1                 .L0 
    15d0     15d0        0     1                 .L0 
    15e8     15e8        0     1                 .L0 
    1600     1600        0     1                 .L0 
    1620     1620        0     1                 .L0 
    1638     1638        0     1                 .L0 
    1660     1660        0     1                 .L0 
    1678     1678        0     1                 .L0 
    1690     1690        0     1                 .L0 
    16a8     16a8        0     1                 .L0 
    16d0     16d0        0     1                 .L0 
    16f8     16f8        0     1                 .L0 
    1710     1710        0     1                 .L0 
    1728     1728        0     1                 .L0 
    1748     1748        0     1                 .L0 
    1760     1760        0     1                 .L0 
    1788     1788        0     1                 .L0 
    17a0     17a0        0     1                 .L0 
    17b8     17b8        0     1                 .L0 
    17e0     17e0        0     1                 .L0 
    17f8     17f8        0     1                 .L0 
    1820     1820        0     1                 .L0 
    1848     1848        0     1                 .L0 
    1868     1868        0     1                 .L0 
    1880     1880        0     1                 .L0 
    18a8     18a8        0     1                 .L0 
    18c0     18c0        0     1                 .L0 
    18d8     18d8        0     1                 .L0 
    1900     1900        0     1                 .L0 
    1928     1928        0     1                 .L0 
    1940     1940        0     1                 .L0 
    1958     1958        0     1                 .L0 
    1970     1970        0     1                 .L0 
    1990     1990        0     1                 .L0 
    19a8     19a8        0     1                 .L0 
    19d0     19d0        0     1                 .L0 
    19e8     19e8        0     1                 .L0 
    1a00     1a00        0     1                 .L0 
    1a18     1a18        0     1                 .L0 
    1a38     1a38        0     1                 .L0 
    1a50     1a50        0     1                 .L0 
    1a78     1a78        0     1                 .L0 
    1a90     1a90        0     1                 .L0 
    1aa8     1aa8        0     1                 .L0 
    1ac0     1ac0        0     1                 .L0 
    1ad8     1ad8        0     1                 .L0 
    1b00     1b00        0     1                 .L0 
    1b28     1b28        0     1                 .L0 
    1b40     1b40        0     1                 .L0 
    1b68     1b68        0     1                 .L0 
    1b80     1b80        0     1                 .L0 
    1b98     1b98        0     1                 .L0 
    1bb8     1bb8        0     1                 .L0 
    1bd0     1bd0        0     1                 .L0 
    1bf8     1bf8        0     1                 .L0 
    1c10     1c10        0     1                 .L0 
    1c38     1c38        0     1                 .L0 
    1c50     1c50        0     1                 .L0 
    1c68     1c68        0     1                 .L0 
    1c88     1c88        0     1                 .L0 
    1ca0     1ca0        0     1                 .L0 
    1cc8     1cc8        0     1                 .L0 
    1ce0     1ce0        0     1                 .L0 
    1d08     1d08        0     1                 .L0 
    1d20     1d20        0     1                 .L0 
    1d38     1d38        0     1                 .L0 
    1d58     1d58        0     1                 .L0 
    1d70     1d70        0     1                 .L0 
    1d88     1d88        0     1                 .L0 
    1da8     1da8        0     1                 .L0 
    1dc0     1dc0        0     1                 .L0 
    1dd8     1dd8        0     1                 .L0 
    1df8     1df8        0     1                 .L0 
    1e10     1e10        0     1                 .L0 
    1e28     1e28        0     1                 .L0 
    1e48     1e48        0     1                 .L0 
    1e60     1e60        0     1                 .L0 
    1e78     1e78        0     1                 .L0 
    1e98     1e98        0     1                 .L0 
    1eb0     1eb0        0     1                 .L0 
    1ec8     1ec8        0     1                 .L0 
    1ee8     1ee8        0     1                 .L0 
    1f00     1f00        0     1                 .L0 
    1f18     1f18        0     1                 .L0 
    1f38     1f38        0     1                 .L0 
    1f50     1f50        0     1                 .L0 
    1f68     1f68        0     1                 .L0 
    1f88     1f88        0     1                 .L0 
    1fa0     1fa0        0     1                 .L0 
    1fb8     1fb8        0     1                 .L0 
    1fd8     1fd8        0     1                 .L0 
    1ff0     1ff0        0     1                 .L0 
    2008     2008        0     1                 .L0 
    2028     2028        0     1                 .L0 
    2040     2040        0     1                 .L0 
    2058     2058        0     1                 .L0 
    2078     2078        0     1                 .L0 
    2090     2090        0     1                 .L0 
    20a8     20a8        0     1                 .L0 
    20c8     20c8        0     1                 .L0 
    20e0     20e0        0     1                 .L0 
    20f8     20f8        0     1                 .L0 
    2110     2110        0     1                 .L0 
    2128     2128        0     1                 .L0 
    2140     2140        0     1                 .L0 
    2158     2158        0     1                 .L0 
    2170     2170        0     1                 .L0 
    2188     2188        0     1                 .L0 
    21a0     21a0        0     1                 .L0 
    21b8     21b8        0     1                 .L0 
    21d8     21d8        0     1                 .L0 
    21f0     21f0        0     1                 .L0 
    2208     2208        0     1                 .L0 
    2220     2220        0     1                 .L0 
    2238     2238        0     1                 .L0 
    2250     2250        0     1                 .L0 
    2268     2268        0     1                 .L0 
    2280     2280        0     1                 .L0 
    2298     2298        0     1                 .L0 
    22b0     22b0        0     1                 .L0 
    22c8     22c8        0     1                 .L0 
    22e0     22e0        0     1                 .L0 
    22f8     22f8        0     1                 .L0 
    2310     2310        0     1                 .L0 
    2328     2328        0     1                 .L0 
    2340     2340        0     1                 .L0 
    2358     2358        0     1                 .L0 
    2370     2370        0     1                 .L0 
    2388     2388        0     1                 .L0 
    23a0     23a0        0     1                 .L0 
    23c8     23c8        0     1                 .L0 
    23e8     23e8        0     1                 .L0 
    2400     2400        0     1                 .L0 
    2420     2420        0     1                 .L0 
    2438     2438        0     1                 .L0 
    2450     2450        0     1                 .L0 
    2468     2468        0     1                 .L0 
    2488     2488        0     1                 .L0 
    24a0     24a0        0     1                 .L0 
    24b8     24b8        0     1                 .L0 
    24d0     24d0        0     1                 .L0 
    24e8     24e8        0     1                 .L0 
    2500     2500        0     1                 .L0 
    2520     2520        0     1                 .L0 
    2540     2540        0     1                 .L0 
    2558     2558        0     1                 .L0 
    2570     2570        0     1                 .L0 
    2588     2588        0     1                 .L0 
    25a0     25a0        0     1                 .L0 
    25c0     25c0        0     1                 .L0 
    25d8     25d8        0     1                 .L0 
    25f0     25f0        0     1                 .L0 
    2608     2608        0     1                 .L0 
    2620     2620        0     1                 .L0 
    2638     2638        0     1                 .L0 
    2658     2658        0     1                 .L0 
    2670     2670        0     1                 .L0 
    2688     2688        0     1                 .L0 
    26a0     26a0        0     1                 .L0 
    26b8     26b8        0     1                 .L0 
    26d8     26d8        0     1                 .L0 
    26f0     26f0        0     1                 .L0 
    2710     2710        0     1                 .L0 
    2728     2728        0     1                 .L0 
    2740     2740        0     1                 .L0 
    2758     2758        0     1                 .L0 
    2778     2778        0     1                 .L0 
    2790     2790        0     1                 .L0 
    27a8     27a8        0     1                 .L0 
    27c0     27c0        0     1                 .L0 
    27d8     27d8        0     1                 .L0 
    27f8     27f8        0     1                 .L0 
    2810     2810        0     1                 .L0 
    2828     2828        0     1                 .L0 
    2840     2840        0     1                 .L0 
    2858     2858        0     1                 .L0 
    2870     2870        0     1                 .L0 
    2890     2890        0     1                 .L0 
    28a8     28a8        0     1                 .L0 
    28c0     28c0        0     1                 .L0 
    28d8     28d8        0     1                 .L0 
    28f0     28f0        0     1                 .L0 
    2908     2908        0     1                 .L0 
    2920     2920        0     1                 .L0 
    2940     2940        0     1                 .L0 
    2958     2958        0     1                 .L0 
    2970     2970        0     1                 .L0 
    2988     2988        0     1                 .L0 
    29a0     29a0        0     1                 .L0 
    29b8     29b8        0     1                 .L0 
    29d0     29d0        0     1                 .L0 
    29e8     29e8        0     1                 .L0 
    2a08     2a08        0     1                 .L0 
    2a30     2a30        0     1                 .L0 
    2a50     2a50        0     1                 .L0 
    2a68     2a68        0     1                 .L0 
    2a80     2a80        0     1                 .L0 
    2a98     2a98        0     1                 .L0 
    2ad0     2ad0        0     1                 .L0 
    2ae8     2ae8        0     1                 .L0 
    2b20     2b20        0     1                 .L0 
    2b38     2b38        0     1                 .L0 
    2b50     2b50        0     1                 .L0 
    2b68     2b68        0     1                 .L0 
    2b80     2b80        0     1                 .L0 
    2b98     2b98        0     1                 .L0 
    2bb0     2bb0        0     1                 .L0 
    2bd0     2bd0        0     1                 .L0 
    2be8     2be8        0     1                 .L0 
    2c00     2c00        0     1                 .L0 
    2c18     2c18        0     1                 .L0 
    2c38     2c38        0     1                 .L0 
    2c50     2c50        0     1                 .L0 
    2c68     2c68        0     1                 .L0 
    2c88     2c88        0     1                 .L0 
    2ca0     2ca0        0     1                 .L0 
    2cb8     2cb8        0     1                 .L0 
    2cd0     2cd0        0     1                 .L0 
    2ce8     2ce8        0     1                 .L0 
    2d00     2d00        0     1                 .L0 
    2d28     2d28        0     1                 .L0 
    2d50     2d50        0     1                 .L0 
    2d68     2d68        0     1                 .L0 
    2d80     2d80        0     1                 .L0 
    2da0     2da0        0     1                 .L0 
    2db8     2db8        0     1                 .L0 
    2dd0     2dd0        0     1                 .L0 
    2de8     2de8        0     1                 .L0 
    2e08     2e08        0     1                 .L0 
    2e20     2e20        0     1                 .L0 
    2e40     2e40        0     1                 .L0 
    2e60     2e60        0     1                 .L0 
    2e80     2e80        0     1                 .L0 
    2e98     2e98        0     1                 .L0 
    2eb0     2eb0        0     1                 .L0 
    2ec8     2ec8        0     1                 .L0 
    2ee0     2ee0        0     1                 .L0 
    2ef8     2ef8        0     1                 .L0 
    2f10     2f10        0     1                 .L0 
    2f30     2f30        0     1                 .L0 
    2f48     2f48        0     1                 .L0 
    2f60     2f60        0     1                 .L0 
    2f78     2f78        0     1                 .L0 
    2f90     2f90        0     1                 .L0 
    2fe0     2fe0        0     1                 .L0 
    3030     3030        0     1                 .L0 
    3078     3078        0     1                 .L0 
    30a0     30a0        0     1                 .L0 
    30d0     30d0        0     1                 .L0 
    30f0     30f0        0     1                 .L0 
    3108     3108        0     1                 .L0 
    3148     3148        0     1                 .L0 
    3188     3188        0     1                 .L0 
    31c0     31c0        0     1                 .L0 
    31e8     31e8        0     1                 .L0 
    3208     3208        0     1                 .L0 
    3228     3228        0     1                 .L0 
    3250     3250        0     1                 .L0 
    3268     3268        0     1                 .L0 
    3280     3280        0     1                 .L0 
    3298     3298        0     1                 .L0 
    32b0     32b0        0     1                 .L0 
    32c8     32c8        0     1                 .L0 
    32f0     32f0        0     1                 .L0 
    3328     3328        0     1                 .L0 
    3350     3350        0     1                 .L0 
    3368     3368        0     1                 .L0 
    3390     3390        0     1                 .L0 
    3458     3458        0     1                 .L0 
    3540     3540        0     1                 .L0 
    35f0     35f0        0     1                 .L0 
    3678     3678        0     1                 .L0 
    36e0     36e0        0     1                 .L0 
    3730     3730        0     1                 .L0 
    3768     3768        0     1                 .L0 
    3788     3788        0     1                 .L0 
    37b0     37b0        0     1                 .L0 
    37e0     37e0        0     1                 .L0 
    3820     3820        0     1                 .L0 
    3838     3838        0     1                 .L0 
    3850     3850        0     1                 .L0 
    3868     3868        0     1                 .L0 
    3888     3888        0     1                 .L0 
    38a0     38a0        0     1                 .L0 
    38b8     38b8        0     1                 .L0 
    38d0     38d0        0     1                 .L0 
    38e8     38e8        0     1                 .L0 
    3908     3908        0     1                 .L0 
    3920     3920        0     1                 .L0 
    3938     3938        0     1                 .L0 
    3950     3950        0     1                 .L0 
    3968     3968        0     1                 .L0 
    3980     3980        0     1                 .L0 
    3998     3998        0     1                 .L0 
    39b0     39b0        0     1                 .L0 
    39c8     39c8        0     1                 .L0 
    39e8     39e8        0     1                 .L0 
    3a00     3a00        0     1                 .L0 
    3a18     3a18        0     1                 .L0 
    3a30     3a30        0     1                 .L0 
    3a48     3a48        0     1                 .L0 
    3a60     3a60        0     1                 .L0 
    3a78     3a78        0     1                 .L0 
    3a98     3a98        0     1                 .L0 
    3ab8     3ab8        0     1                 .L0 
    3ad0     3ad0        0     1                 .L0 
    3ae8     3ae8        0     1                 .L0 
    3b00     3b00        0     1                 .L0 
    3b18     3b18        0     1                 .L0 
    3b30     3b30        0     1                 .L0 
    3b48     3b48        0     1                 .L0 
    3b60     3b60        0     1                 .L0 
    3b78     3b78        0     1                 .L0 
    3b98     3b98        0     1                 .L0 
    3bb0     3bb0        0     1                 .L0 
    3bc8     3bc8        0     1                 .L0 
    3be0     3be0        0     1                 .L0 
    3c00     3c00        0     1                 .L0 
    3c18     3c18        0     1                 .L0 
    3c30     3c30        0     1                 .L0 
    3c48     3c48        0     1                 .L0 
    3c60     3c60        0     1                 .L0 
    3c78     3c78        0     1                 .L0 
    3c90     3c90        0     1                 .L0 
    3ca8     3ca8        0     1                 .L0 
    3cd0     3cd0        0     1                 .L0 
    3ce8     3ce8        0     1                 .L0 
    3d00     3d00        0     1                 .L0 
    3d18     3d18        0     1                 .L0 
    3d30     3d30        0     1                 .L0 
    3d48     3d48        0     1                 .L0 
    3d68     3d68        0     1                 .L0 
    3d80     3d80        0     1                 .L0 
    3d98     3d98        0     1                 .L0 
    3db0     3db0        0     1                 .L0 
    3dc8     3dc8        0     1                 .L0 
    3de0     3de0        0     1                 .L0 
    3e00     3e00        0     1                 .L0 
    3e28     3e28        0     1                 .L0 
    3e40     3e40        0     1                 .L0 
    3e58     3e58        0     1                 .L0 
    3e70     3e70        0     1                 .L0 
    3e88     3e88        0     1                 .L0 
    3ea0     3ea0        0     1                 .L0 
    3eb8     3eb8        0     1                 .L0 
    3ed0     3ed0        0     1                 .L0 
    3ee8     3ee8        0     1                 .L0 
    3f08     3f08        0     1                 .L0 
    3f20     3f20        0     1                 .L0 
    3f38     3f38        0     1                 .L0 
    3f50     3f50        0     1                 .L0 
    3f68     3f68        0     1                 .L0 
    3f80     3f80        0     1                 .L0 
    3fb0     3fb0        0     1                 .L0 
    3fd0     3fd0        0     1                 .L0 
    3ff0     3ff0        0     1                 .L0 
    4008     4008        0     1                 .L0 
    4038     4038        0     1                 .L0 
    4058     4058        0     1                 .L0 
    4078     4078        0     1                 .L0 
    4098     4098        0     1                 .L0 
    40b8     40b8        0     1                 .L0 
    40d0     40d0        0     1                 .L0 
    40f0     40f0        0     1                 .L0 
    4108     4108        0     1                 .L0 
    4120     4120        0     1                 .L0 
    4148     4148        0     1                 .L0 
    4160     4160        0     1                 .L0 
    4180     4180        0     1                 .L0 
    4198     4198        0     1                 .L0 
    41b0     41b0        0     1                 .L0 
    41d8     41d8        0     1                 .L0 
    41f8     41f8        0     1                 .L0 
    4218     4218        0     1                 .L0 
    4230     4230        0     1                 .L0 
    4248     4248        0     1                 .L0 
    4260     4260        0     1                 .L0 
    4278     4278        0     1                 .L0 
    4298     4298        0     1                 .L0 
    42b8     42b8        0     1                 .L0 
    42d8     42d8        0     1                 .L0 
    4300     4300        0     1                 .L0 
    4320     4320        0     1                 .L0 
    4338     4338        0     1                 .L0 
    4358     4358        0     1                 .L0 
    4370     4370        0     1                 .L0 
    4388     4388        0     1                 .L0 
    43b0     43b0        0     1                 .L0 
    43d0     43d0        0     1                 .L0 
    43e8     43e8        0     1                 .L0 
    4410     4410        0     1                 .L0 
    4430     4430        0     1                 .L0 
    4448     4448        0     1                 .L0 
    4460     4460        0     1                 .L0 
    4478     4478        0     1                 .L0 
    4490     4490        0     1                 .L0 
    44a8     44a8        0     1                 .L0 
    44c0     44c0        0     1                 .L0 
    44e8     44e8        0     1                 .L0 
    4510     4510        0     1                 .L0 
    4528     4528        0     1                 .L0 
    4540     4540        0     1                 .L0 
    4560     4560        0     1                 .L0 
    4578     4578        0     1                 .L0 
    4590     4590        0     1                 .L0 
    45b8     45b8        0     1                 .L0 
    45d0     45d0        0     1                 .L0 
    45e8     45e8        0     1                 .L0 
    4600     4600        0     1                 .L0 
    4620     4620        0     1                 .L0 
    4638     4638        0     1                 .L0 
    4650     4650        0     1                 .L0 
    4670     4670        0     1                 .L0 
    4690     4690        0     1                 .L0 
    46a8     46a8        0     1                 .L0 
    46c0     46c0        0     1                 .L0 
    46d8     46d8        0     1                 .L0 
    46f8     46f8        0     1                 .L0 
    4718     4718        0     1                 .L0 
    4730     4730        0     1                 .L0 
    4750     4750        0     1                 .L0 
    4778     4778        0     1                 .L0 
    4798     4798        0     1                 .L0 
    47b0     47b0        0     1                 .L0 
    47d0     47d0        0     1                 .L0 
    47e8     47e8        0     1                 .L0 
    4800     4800        0     1                 .L0 
    4828     4828        0     1                 .L0 
    4848     4848        0     1                 .L0 
    4860     4860        0     1                 .L0 
    4888     4888        0     1                 .L0 
    48a8     48a8        0     1                 .L0 
    48c8     48c8        0     1                 .L0 
    48e0     48e0        0     1                 .L0 
    48f8     48f8        0     1                 .L0 
    4918     4918        0     1                 .L0 
    4930     4930        0     1                 .L0 
    4958     4958        0     1                 .L0 
    4970     4970        0     1                 .L0 
    49a0     49a0        0     1                 .L0 
    49b8     49b8        0     1                 .L0 
    49e0     49e0        0     1                 .L0 
    49f8     49f8        0     1                 .L0 
    4a10     4a10        0     1                 .L0 
    4a28     4a28        0     1                 .L0 
    4a48     4a48        0     1                 .L0 
    4a68     4a68        0     1                 .L0 
    4a80     4a80        0     1                 .L0 
    4a98     4a98        0     1                 .L0 
    4ab8     4ab8        0     1                 .L0 
    4ad0     4ad0        0     1                 .L0 
    4ae8     4ae8        0     1                 .L0 
    4b10     4b10        0     1                 .L0 
    4b28     4b28        0     1                 .L0 
    4b40     4b40        0     1                 .L0 
    4b60     4b60        0     1                 .L0 
    4b80     4b80        0     1                 .L0 
    4ba0     4ba0        0     1                 .L0 
    4bc0     4bc0        0     1                 .L0 
    4bd8     4bd8        0     1                 .L0 
    4bf0     4bf0        0     1                 .L0 
    4c08     4c08        0     1                 .L0 
    4c20     4c20        0     1                 .L0 
    4c40     4c40        0     1                 .L0 
    4c60     4c60        0     1                 .L0 
    4c80     4c80        0     1                 .L0 
    4c98     4c98        0     1                 .L0 
    4cb8     4cb8        0     1                 .L0 
    4cd0     4cd0        0     1                 .L0 
    4cf0     4cf0        0     1                 .L0 
    4d08     4d08        0     1                 .L0 
    4d20     4d20        0     1                 .L0 
    4d40     4d40        0     1                 .L0 
    4d60     4d60        0     1                 .L0 
    4d78     4d78        0     1                 .L0 
    4d90     4d90        0     1                 .L0 
    4db0     4db0        0     1                 .L0 
    4dd0     4dd0        0     1                 .L0 
    4df0     4df0        0     1                 .L0 
    4e10     4e10        0     1                 .L0 
    4e28     4e28        0     1                 .L0 
    4e40     4e40        0     1                 .L0 
    4e60     4e60        0     1                 .L0 
    4e78     4e78        0     1                 .L0 
    4e98     4e98        0     1                 .L0 
    4eb8     4eb8        0     1                 .L0 
    4ed0     4ed0        0     1                 .L0 
    4ef0     4ef0        0     1                 .L0 
    4f08     4f08        0     1                 .L0 
    4f20     4f20        0     1                 .L0 
    4f40     4f40        0     1                 .L0 
    4f60     4f60        0     1                 .L0 
    4f78     4f78        0     1                 .L0 
    4f98     4f98        0     1                 .L0 
    4fb0     4fb0        0     1                 .L0 
    4fc8     4fc8        0     1                 .L0 
    4fe0     4fe0        0     1                 .L0 
    5000     5000        0     1                 .L0 
    5028     5028        0     1                 .L0 
    5040     5040        0     1                 .L0 
    5058     5058        0     1                 .L0 
    5070     5070        0     1                 .L0 
    5088     5088        0     1                 .L0 
    50a0     50a0        0     1                 .L0 
    50b8     50b8        0     1                 .L0 
    50d0     50d0        0     1                 .L0 
    50e8     50e8        0     1                 .L0 
    5100     5100        0     1                 .L0 
    5118     5118        0     1                 .L0 
    5130     5130        0     1                 .L0 
    5148     5148        0     1                 .L0 
    5160     5160        0     1                 .L0 
    5178     5178        0     1                 .L0 
    5190     5190        0     1                 .L0 
    51a8     51a8        0     1                 .L0 
    51c0     51c0        0     1                 .L0 
    51d8     51d8        0     1                 .L0 
    51f0     51f0        0     1                 .L0 
    5208     5208        0     1                 .L0 
    5220     5220        0     1                 .L0 
    5238     5238        0     1                 .L0 
    5250     5250        0     1                 .L0 
    5268     5268        0     1                 .L0 
    5280     5280        0     1                 .L0 
    5298     5298        0     1                 .L0 
    52b0     52b0        0     1                 .L0 
    52c8     52c8        0     1                 .L0 
    52e8     52e8        0     1                 .L0 
    5310     5310        0     1                 .L0 
    5340     5340        0     1                 .L0 
    5380     5380        0     1                 .L0 
    53b0     53b0        0     1                 .L0 
    53d0     53d0        0     1                 .L0 
    53e8     53e8        0     1                 .L0 
    5410     5410        0     1                 .L0 
    5468     5468        0     1                 .L0 
    54a8     54a8        0     1                 .L0 
    54e0     54e0        0     1                 .L0 
    5518     5518        0     1                 .L0 
    5550     5550        0     1                 .L0 
    5568     5568        0     1                 .L0 
    5588     5588        0     1                 .L0 
    55c0     55c0        0     1                 .L0 
    55e8     55e8        0     1                 .L0 
    5610     5610        0     1                 .L0 
    5628     5628        0     1                 .L0 
    5640     5640        0     1                 .L0 
    5660     5660        0     1                 .L0 
    5688     5688        0     1                 .L0 
    56a0     56a0        0     1                 .L0 
    56b8     56b8        0     1                 .L0 
    56d0     56d0        0     1                 .L0 
    56f8     56f8        0     1                 .L0 
    5710     5710        0     1                 .L0 
    5728     5728        0     1                 .L0 
    5750     5750        0     1                 .L0 
    5768     5768        0     1                 .L0 
    5780     5780        0     1                 .L0 
    57a0     57a0        0     1                 .L0 
    57c0     57c0        0     1                 .L0 
    57e8     57e8        0     1                 .L0 
    5808     5808        0     1                 .L0 
    5820     5820        0     1                 .L0 
    5838     5838        0     1                 .L0 
    5860     5860        0     1                 .L0 
    5880     5880        0     1                 .L0 
    5898     5898        0     1                 .L0 
    58b0     58b0        0     1                 .L0 
    58c8     58c8        0     1                 .L0 
    58e8     58e8        0     1                 .L0 
    5900     5900        0     1                 .L0 
    5918     5918        0     1                 .L0 
    5930     5930        0     1                 .L0 
    5948     5948        0     1                 .L0 
    5960     5960        0     1                 .L0 
    5978     5978        0     1                 .L0 
    5998     5998        0     1                 .L0 
    59b8     59b8        0     1                 .L0 
    59e0     59e0        0     1                 .L0 
    5a00     5a00        0     1                 .L0 
    5a18     5a18        0     1                 .L0 
    5a30     5a30        0     1                 .L0 
    5a50     5a50        0     1                 .L0 
    5a70     5a70        0     1                 .L0 
    5a90     5a90        0     1                 .L0 
    5aa8     5aa8        0     1                 .L0 
    5ac0     5ac0        0     1                 .L0 
    5ae0     5ae0        0     1                 .L0 
    5b00     5b00        0     1                 .L0 
    5b20     5b20        0     1                 .L0 
    5b38     5b38        0     1                 .L0 
    5b50     5b50        0     1                 .L0 
    5b70     5b70        0     1                 .L0 
    5b90     5b90        0     1                 .L0 
    5bb8     5bb8        0     1                 .L0 
    5bd8     5bd8        0     1                 .L0 
    5bf8     5bf8        0     1                 .L0 
    5c10     5c10        0     1                 .L0 
    5c28     5c28        0     1                 .L0 
    5c50     5c50        0     1                 .L0 
    5c70     5c70        0     1                 .L0 
    5ca0     5ca0        0     1                 .L0 
    5cc8     5cc8        0     1                 .L0 
    5ce0     5ce0        0     1                 .L0 
    5cf8     5cf8        0     1                 .L0 
    5d10     5d10        0     1                 .L0 
    5d30     5d30        0     1                 .L0 
    5d50     5d50        0     1                 .L0 
    5d70     5d70        0     1                 .L0 
    5d88     5d88        0     1                 .L0 
    5da0     5da0        0     1                 .L0 
    5dc8     5dc8        0     1                 .L0 
    5de8     5de8        0     1                 .L0 
    5e08     5e08        0     1                 .L0 
    5e20     5e20        0     1                 .L0 
    5e48     5e48        0     1                 .L0 
    5e68     5e68        0     1                 .L0 
    5e90     5e90        0     1                 .L0 
    5eb0     5eb0        0     1                 .L0 
    5ec8     5ec8        0     1                 .L0 
    5ee0     5ee0        0     1                 .L0 
    5f00     5f00        0     1                 .L0 
    5f20     5f20        0     1                 .L0 
    5f48     5f48        0     1                 .L0 
    5f68     5f68        0     1                 .L0 
    5f80     5f80        0     1                 .L0 
    5f98     5f98        0     1                 .L0 
    5fb8     5fb8        0     1                 .L0 
    5fd8     5fd8        0     1                 .L0 
    5ff8     5ff8        0     1                 .L0 
    6010     6010        0     1                 .L0 
    6028     6028        0     1                 .L0 
    6048     6048        0     1                 .L0 
    6068     6068        0     1                 .L0 
    6090     6090        0     1                 .L0 
    60b0     60b0        0     1                 .L0 
    60c8     60c8        0     1                 .L0 
    60e0     60e0        0     1                 .L0 
    6100     6100        0     1                 .L0 
    6120     6120        0     1                 .L0 
    6140     6140        0     1                 .L0 
    6160     6160        0     1                 .L0 
    6180     6180        0     1                 .L0 
    6198     6198        0     1                 .L0 
    61b0     61b0        0     1                 .L0 
    61d0     61d0        0     1                 .L0 
    61e8     61e8        0     1                 .L0 
    6208     6208        0     1                 .L0 
    6220     6220        0     1                 .L0 
    6240     6240        0     1                 .L0 
    6258     6258        0     1                 .L0 
    6270     6270        0     1                 .L0 
    6288     6288        0     1                 .L0 
    62a0     62a0        0     1                 .L0 
    62b8     62b8        0     1                 .L0 
    62e0     62e0        0     1                 .L0 
    6300     6300        0     1                 .L0 
    6328     6328        0     1                 .L0 
    6348     6348        0     1                 .L0 
    6368     6368        0     1                 .L0 
    6380     6380        0     1                 .L0 
    6398     6398        0     1                 .L0 
    63b0     63b0        0     1                 .L0 
    63c8     63c8        0     1                 .L0 
    63e0     63e0        0     1                 .L0 
    63f8     63f8        0     1                 .L0 
    6410     6410        0     1                 .L0 
    6428     6428        0     1                 .L0 
    6450     6450        0     1                 .L0 
    6468     6468        0     1                 .L0 
    6480     6480        0     1                 .L0 
    6498     6498        0     1                 .L0 
    64d0     64d0        0     1                 .L0 
    64e8     64e8        0     1                 .L0 
    6500     6500        0     1                 .L0 
    6518     6518        0     1                 .L0 
    6578     6578        0     1                 .L0 
    6590     6590        0     1                 .L0 
    65a8     65a8        0     1                 .L0 
    65c0     65c0        0     1                 .L0 
    65e8     65e8        0     1                 .L0 
    6608     6608        0     1                 .L0 
    6620     6620        0     1                 .L0 
    6638     6638        0     1                 .L0 
    6678     6678        0     1                 .L0 
    66b0     66b0        0     1                 .L0 
    66c8     66c8        0     1                 .L0 
    66f8     66f8        0     1                 .L0 
    6728     6728        0     1                 .L0 
    6750     6750        0     1                 .L0 
    6768     6768        0     1                 .L0 
    6780     6780        0     1                 .L0 
    6798     6798        0     1                 .L0 
    67b0     67b0        0     1                 .L0 
    67d0     67d0        0     1                 .L0 
    67e8     67e8        0     1                 .L0 
    6800     6800        0     1                 .L0 
    6818     6818        0     1                 .L0 
    6830     6830        0     1                 .L0 
    6848     6848        0     1                 .L0 
    6860     6860        0     1                 .L0 
    6880     6880        0     1                 .L0 
    68a0     68a0        0     1                 .L0 
    68c0     68c0        0     1                 .L0 
    68e0     68e0        0     1                 .L0 
    68f8     68f8        0     1                 .L0 
    6910     6910        0     1                 .L0 
    6930     6930        0     1                 .L0 
    6948     6948        0     1                 .L0 
    6960     6960        0     1                 .L0 
    6978     6978        0     1                 .L0 
    69b0     69b0        0     1                 .L0 
    69e0     69e0        0     1                 .L0 
    6a18     6a18        0     1                 .L0 
    6a48     6a48        0     1                 .L0 
    6a68     6a68        0     1                 .L0 
    6ac8     6ac8        0     1                 .L0 
    6b28     6b28        0     1                 .L0 
    6b80     6b80        0     1                 .L0 
    6bd8     6bd8        0     1                 .L0 
    6c38     6c38        0     1                 .L0 
    6c90     6c90        0     1                 .L0 
    6ca8     6ca8        0     1                 .L0 
    6cc0     6cc0        0     1                 .L0 
    6cd8     6cd8        0     1                 .L0 
    6d10     6d10        0     1                 .L0 
    6d38     6d38        0     1                 .L0 
    6d70     6d70        0     1                 .L0 
    6da0     6da0        0     1                 .L0 
    6dc0     6dc0        0     1                 .L0 
    6dd8     6dd8        0     1                 .L0 
    6e10     6e10        0     1                 .L0 
    6e48     6e48        0     1                 .L0 
    6e60     6e60        0     1                 .L0 
    6e90     6e90        0     1                 .L0 
    6eb0     6eb0        0     1                 .L0 
    6ec8     6ec8        0     1                 .L0 
    6f00     6f00        0     1                 .L0 
    6f38     6f38        0     1                 .L0 
    6f70     6f70        0     1                 .L0 
    6fa0     6fa0        0     1                 .L0 
    6fc0     6fc0        0     1                 .L0 
    6fd8     6fd8        0     1                 .L0 
    7010     7010        0     1                 .L0 
    7040     7040        0     1                 .L0 
    7070     7070        0     1                 .L0 
    7098     7098        0     1                 .L0 
    70b8     70b8        0     1                 .L0 
    70d8     70d8        0     1                 .L0 
    70f8     70f8        0     1                 .L0 
    7118     7118        0     1                 .L0 
    7130     7130        0     1                 .L0 
    7148     7148        0     1                 .L0 
    7160     7160        0     1                 .L0 
    7178     7178        0     1                 .L0 
    7190     7190        0     1                 .L0 
    71a8     71a8        0     1                 .L0 
    71c0     71c0        0     1                 .L0 
    71e0     71e0        0     1                 .L0 
    71f8     71f8        0     1                 .L0 
    7210     7210        0     1                 .L0 
    7228     7228        0     1                 .L0 
    7240     7240        0     1                 .L0 
    7258     7258        0     1                 .L0 
    7270     7270        0     1                 .L0 
    7288     7288        0     1                 .L0 
    72a0     72a0        0     1                 .L0 
    72b8     72b8        0     1                 .L0 
    72d0     72d0        0     1                 .L0 
    72f0     72f0        0     1                 .L0 
    7308     7308        0     1                 .L0 
    7320     7320        0     1                 .L0 
    7338     7338        0     1                 .L0 
    7368     7368        0     1                 .L0 
    7398     7398        0     1                 .L0 
    73b8     73b8        0     1                 .L0 
    73e0     73e0        0     1                 .L0 
    73f8     73f8        0     1                 .L0 
    7418     7418        0     1                 .L0 
    7440     7440        0     1                 .L0 
    7458     7458        0     1                 .L0 
    7470     7470        0     1                 .L0 
    7488     7488        0     1                 .L0 
    74a0     74a0        0     1                 .L0 
    74b8     74b8        0     1                 .L0 
    74d0     74d0        0     1                 .L0 
    74f0     74f0        0     1                 .L0 
    7508     7508        0     1                 .L0 
    7528     7528        0     1                 .L0 
    7540     7540        0     1                 .L0 
    7558     7558        0     1                 .L0 
    7588     7588        0     1                 .L0 
    75a0     75a0        0     1                 .L0 
    75c0     75c0        0     1                 .L0 
    75d8     75d8        0     1                 .L0 
    75f0     75f0        0     1                 .L0 
    7608     7608        0     1                 .L0 
    7620     7620        0     1                 .L0 
    7640     7640        0     1                 .L0 
    7658     7658        0     1                 .L0 
    7670     7670        0     1                 .L0 
    7688     7688        0     1                 .L0 
    76a0     76a0        0     1                 .L0 
    76c0     76c0        0     1                 .L0 
    76d8     76d8        0     1                 .L0 
    76f0     76f0        0     1                 .L0 
    7708     7708        0     1                 .L0 
    7720     7720        0     1                 .L0 
    7738     7738        0     1                 .L0 
    7750     7750        0     1                 .L0 
    7768     7768        0     1                 .L0 
    7790     7790        0     1                 .L0 
    77a8     77a8        0     1                 .L0 
    77c0     77c0        0     1                 .L0 
    77d8     77d8        0     1                 .L0 
    77f8     77f8        0     1                 .L0 
    7810     7810        0     1                 .L0 
    7830     7830        0     1                 .L0 
    7848     7848        0     1                 .L0 
    7860     7860        0     1                 .L0 
    7878     7878        0     1                 .L0 
    78e8     78e8        0     1                 .L0 
    7910     7910        0     1                 .L0 
    7930     7930        0     1                 .L0 
    7950     7950        0     1                 .L0 
    7970     7970        0     1                 .L0 
    7998     7998        0     1                 .L0 
    7a08     7a08        0     1                 .L0 
    7a38     7a38        0     1                 .L0 
    7a60     7a60        0     1                 .L0 
    7a78     7a78        0     1                 .L0 
    7a90     7a90        0     1                 .L0 
    7ab8     7ab8        0     1                 .L0 
    7ad0     7ad0        0     1                 .L0 
    7ae8     7ae8        0     1                 .L0 
    7b00     7b00        0     1                 .L0 
    7b18     7b18        0     1                 .L0 
    7b30     7b30        0     1                 .L0 
    7b48     7b48        0     1                 .L0 
    7b70     7b70        0     1                 .L0 
    7b88     7b88        0     1                 .L0 
    7ba0     7ba0        0     1                 .L0 
    7bb8     7bb8        0     1                 .L0 
    7bd8     7bd8        0     1                 .L0 
    7bf0     7bf0        0     1                 .L0 
    7c08     7c08        0     1                 .L0 
    7c30     7c30        0     1                 .L0 
    7c58     7c58        0     1                 .L0 
    7c80     7c80        0     1                 .L0 
    7c98     7c98        0     1                 .L0 
    7cb0     7cb0        0     1                 .L0 
    7cc8     7cc8        0     1                 .L0 
    7ce0     7ce0        0     1                 .L0 
    7cf8     7cf8        0     1                 .L0 
    7d10     7d10        0     1                 .L0 
    7d38     7d38        0     1                 .L0 
    7d50     7d50        0     1                 .L0 
    7d68     7d68        0     1                 .L0 
    7d80     7d80        0     1                 .L0 
    7d98     7d98        0     1                 .L0 
    7db0     7db0        0     1                 .L0 
    7dd0     7dd0        0     1                 .L0 
    7e30     7e30        0     1                 .L0 
    7e88     7e88        0     1                 .L0 
    7ea8     7ea8        0     1                 .L0 
    7ec8     7ec8        0     1                 .L0 
    7ee8     7ee8        0     1                 .L0 
    7f08     7f08        0     1                 .L0 
    7f28     7f28        0     1                 .L0 
    7f48     7f48        0     1                 .L0 
    7f78     7f78        0     1                 .L0 
    7fa8     7fa8        0     1                 .L0 
    8020     8020        0     1                 .L0 
    8058     8058        0     1                 .L0 
    8078     8078        0     1                 .L0 
    8090     8090        0     1                 .L0 
    80a8     80a8        0     1                 .L0 
    80c0     80c0        0     1                 .L0 
    80d8     80d8        0     1                 .L0 
    8118     8118        0     1                 .L0 
    8140     8140        0     1                 .L0 
    8158     8158        0     1                 .L0 
    8170     8170        0     1                 .L0 
    8188     8188        0     1                 .L0 
    81b0     81b0        0     1                 .L0 
    81c8     81c8        0     1                 .L0 
    81e0     81e0        0     1                 .L0 
    81f8     81f8        0     1                 .L0 
    8210     8210        0     1                 .L0 
    8228     8228        0     1                 .L0 
    8240     8240        0     1                 .L0 
    8260     8260        0     1                 .L0 
    8278     8278        0     1                 .L0 
    8290     8290        0     1                 .L0 
    82a8     82a8        0     1                 .L0 
    82c0     82c0        0     1                 .L0 
    82d8     82d8        0     1                 .L0 
    82f0     82f0        0     1                 .L0 
    8310     8310        0     1                 .L0 
    8328     8328        0     1                 .L0 
    8340     8340        0     1                 .L0 
    8358     8358        0     1                 .L0 
    8370     8370        0     1                 .L0 
    8390     8390        0     1                 .L0 
    83b0     83b0        0     1                 .L0 
    83c8     83c8        0     1                 .L0 
    83e0     83e0        0     1                 .L0 
    83f8     83f8        0     1                 .L0 
    8410     8410        0     1                 .L0 
    8428     8428        0     1                 .L0 
    8440     8440        0     1                 .L0 
    8458     8458        0     1                 .L0 
    8480     8480        0     1                 .L0 
    84a0     84a0        0     1                 .L0 
    84b8     84b8        0     1                 .L0 
    84d0     84d0        0     1                 .L0 
    84e8     84e8        0     1                 .L0 
    8500     8500        0     1                 .L0 
    8518     8518        0     1                 .L0 
    8530     8530        0     1                 .L0 
    8548     8548        0     1                 .L0 
    8560     8560        0     1                 .L0 
    8578     8578        0     1                 .L0 
    8590     8590        0     1                 .L0 
    85b0     85b0        0     1                 .L0 
    85d0     85d0        0     1                 .L0 
    8600     8600        0     1                 .L0 
    8628     8628        0     1                 .L0 
    8640     8640        0     1                 .L0 
    8658     8658        0     1                 .L0 
    8670     8670        0     1                 .L0 
    8688     8688        0     1                 .L0 
    86a0     86a0        0     1                 .L0 
    86b8     86b8        0     1                 .L0 
    86d0     86d0        0     1                 .L0 
    86e8     86e8        0     1                 .L0 
    8700     8700        0     1                 .L0 
    8718     8718        0     1                 .L0 
    8730     8730        0     1                 .L0 
    8748     8748        0     1                 .L0 
    8768     8768        0     1                 .L0 
    8788     8788        0     1                 .L0 
    87a0     87a0        0     1                 .L0 
    87b8     87b8        0     1                 .L0 
    87d8     87d8        0     1                 .L0 
    87f8     87f8        0     1                 .L0 
    8810     8810        0     1                 .L0 
    8828     8828        0     1                 .L0 
    8840     8840        0     1                 .L0 
    8858     8858        0     1                 .L0 
    8870     8870        0     1                 .L0 
    8888     8888        0     1                 .L0 
    88a0     88a0        0     1                 .L0 
    88b8     88b8        0     1                 .L0 
    88d0     88d0        0     1                 .L0 
    88e8     88e8        0     1                 .L0 
    8900     8900        0     1                 .L0 
    8918     8918        0     1                 .L0 
    8930     8930        0     1                 .L0 
    8948     8948        0     1                 .L0 
    8960     8960        0     1                 .L0 
    8978     8978        0     1                 .L0 
    8998     8998        0     1                 .L0 
    89b0     89b0        0     1                 .L0 
    89d0     89d0        0     1                 .L0 
    89e8     89e8        0     1                 .L0 
    8a08     8a08        0     1                 .L0 
    8a38     8a38        0     1                 .L0 
    8a78     8a78        0     1                 .L0 
    8ab8     8ab8        0     1                 .L0 
    8af8     8af8        0     1                 .L0 
    8b38     8b38        0     1                 .L0 
    8b50     8b50        0     1                 .L0 
    8b90     8b90        0     1                 .L0 
    8bb0     8bb0        0     1                 .L0 
    8bc8     8bc8        0     1                 .L0 
    8be0     8be0        0     1                 .L0 
    8bf8     8bf8        0     1                 .L0 
    8c18     8c18        0     1                 .L0 
    8c30     8c30        0     1                 .L0 
    8c58     8c58        0     1                 .L0 
    8c98     8c98        0     1                 .L0 
    8cb8     8cb8        0     1                 .L0 
    8cd0     8cd0        0     1                 .L0 
    8ce8     8ce8        0     1                 .L0 
    8d10     8d10        0     1                 .L0 
    8d38     8d38        0     1                 .L0 
    8d50     8d50        0     1                 .L0 
    8d68     8d68        0     1                 .L0 
    8d80     8d80        0     1                 .L0 
    8d98     8d98        0     1                 .L0 
    8db0     8db0        0     1                 .L0 
    8dd8     8dd8        0     1                 .L0 
    8e00     8e00        0     1                 .L0 
    8e18     8e18        0     1                 .L0 
    8e40     8e40        0     1                 .L0 
    8e68     8e68        0     1                 .L0 
    8e90     8e90        0     1                 .L0 
    8ea8     8ea8        0     1                 .L0 
    8ed0     8ed0        0     1                 .L0 
    8ee8     8ee8        0     1                 .L0 
    8f10     8f10        0     1                 .L0 
    8f38     8f38        0     1                 .L0 
    8f50     8f50        0     1                 .L0 
    8f78     8f78        0     1                 .L0 
    8fa8     8fa8        0     1                 .L0 
    8fc0     8fc0        0     1                 .L0 
    8ff0     8ff0        0     1                 .L0 
    9028     9028        0     1                 .L0 
    9048     9048        0     1                 .L0 
    9068     9068        0     1                 .L0 
    9080     9080        0     1                 .L0 
    9098     9098        0     1                 .L0 
    90b8     90b8        0     1                 .L0 
    90d0     90d0        0     1                 .L0 
    90e8     90e8        0     1                 .L0 
    9110     9110        0     1                 .L0 
    9138     9138        0     1                 .L0 
    9150     9150        0     1                 .L0 
    9168     9168        0     1                 .L0 
    9190     9190        0     1                 .L0 
    91a8     91a8        0     1                 .L0 
    91c0     91c0        0     1                 .L0 
    91d8     91d8        0     1                 .L0 
    91f0     91f0        0     1                 .L0 
    9208     9208        0     1                 .L0 
    9228     9228        0     1                 .L0 
    9240     9240        0     1                 .L0 
    9258     9258        0     1                 .L0 
    9278     9278        0     1                 .L0 
    9290     9290        0     1                 .L0 
    92a8     92a8        0     1                 .L0 
    92c0     92c0        0     1                 .L0 
    92e8     92e8        0     1                 .L0 
    9308     9308        0     1                 .L0 
    9320     9320        0     1                 .L0 
    9350     9350        0     1                 .L0 
    9378     9378        0     1                 .L0 
    93b0     93b0        0     1                 .L0 
    93d0     93d0        0     1                 .L0 
    9408     9408        0     1                 .L0 
    9420     9420        0     1                 .L0 
    9438     9438        0     1                 .L0 
    9458     9458        0     1                 .L0 
    9478     9478        0     1                 .L0 
    94a8     94a8        0     1                 .L0 
    94c0     94c0        0     1                 .L0 
    94e0     94e0        0     1                 .L0 
    94f8     94f8        0     1                 .L0 
    9510     9510        0     1                 .L0 
    9530     9530        0     1                 .L0 
    9548     9548        0     1                 .L0 
    9578     9578        0     1                 .L0 
    95a0     95a0        0     1                 .L0 
    95c0     95c0        0     1                 .L0 
    95e0     95e0        0     1                 .L0 
    95f8     95f8        0     1                 .L0 
    9610     9610        0     1                 .L0 
    9628     9628        0     1                 .L0 
    9648     9648        0     1                 .L0 
    9660     9660        0     1                 .L0 
    9678     9678        0     1                 .L0 
    9690     9690        0     1                 .L0 
    96b0     96b0        0     1                 .L0 
    96d0     96d0        0     1                 .L0 
    96e8     96e8        0     1                 .L0 
    9700     9700        0     1                 .L0 
    9718     9718        0     1                 .L0 
    9730     9730        0     1                 .L0 
    9748     9748        0     1                 .L0 
    9760     9760        0     1                 .L0 
    9778     9778        0     1                 .L0 
    9790     9790        0     1                 .L0 
    97a8     97a8        0     1                 .L0 
    97c0     97c0        0     1                 .L0 
    97d8     97d8        0     1                 .L0 
    97f0     97f0        0     1                 .L0 
    9808     9808        0     1                 .L0 
    9820     9820        0     1                 .L0 
    9838     9838        0     1                 .L0 
    9850     9850        0     1                 .L0 
    9868     9868        0     1                 .L0 
    9880     9880        0     1                 .L0 
    9898     9898        0     1                 .L0 
    98b0     98b0        0     1                 .L0 
    98c8     98c8        0     1                 .L0 
    98e0     98e0        0     1                 .L0 
    98f8     98f8        0     1                 .L0 
    9910     9910        0     1                 .L0 
    9928     9928        0     1                 .L0 
    9940     9940        0     1                 .L0 
    9958     9958        0     1                 .L0 
    9970     9970        0     1                 .L0 
    9988     9988        0     1                 .L0 
    99a0     99a0        0     1                 .L0 
    99c0     99c0        0     1                 .L0 
    99d8     99d8        0     1                 .L0 
    99f0     99f0        0     1                 .L0 
    9a08     9a08        0     1                 .L0 
    9a20     9a20        0     1                 .L0 
    9a38     9a38        0     1                 .L0 
    9a50     9a50        0     1                 .L0 
    9a68     9a68        0     1                 .L0 
    9a80     9a80        0     1                 .L0 
    9a98     9a98        0     1                 .L0 
    9ab0     9ab0        0     1                 .L0 
    9ac8     9ac8        0     1                 .L0 
    9b08     9b08        0     1                 .L0 
    9b20     9b20        0     1                 .L0 
    9b38     9b38        0     1                 .L0 
    9b50     9b50        0     1                 .L0 
    9b90     9b90        0     1                 .L0 
    9bb8     9bb8        0     1                 .L0 
    9bd0     9bd0        0     1                 .L0 
    9be8     9be8        0     1                 .L0 
    9c00     9c00        0     1                 .L0 
    9c28     9c28        0     1                 .L0 
    9c40     9c40        0     1                 .L0 
    9c68     9c68        0     1                 .L0 
    9c80     9c80        0     1                 .L0 
    9cb0     9cb0        0     1                 .L0 
    9cc8     9cc8        0     1                 .L0 
    9cf0     9cf0        0     1                 .L0 
    9d08     9d08        0     1                 .L0 
    9d20     9d20        0     1                 .L0 
    9d38     9d38        0     1                 .L0 
    9d68     9d68        0     1                 .L0 
    9d80     9d80        0     1                 .L0 
    9da8     9da8        0     1                 .L0 
    9dc0     9dc0        0     1                 .L0 
    9dd8     9dd8        0     1                 .L0 
    9e00     9e00        0     1                 .L0 
    9e18     9e18        0     1                 .L0 
    9e48     9e48        0     1                 .L0 
    9e60     9e60        0     1                 .L0 
    9e88     9e88        0     1                 .L0 
    9ea0     9ea0        0     1                 .L0 
    9eb8     9eb8        0     1                 .L0 
    9ee8     9ee8        0     1                 .L0 
    9f00     9f00        0     1                 .L0 
    9f18     9f18        0     1                 .L0 
    9f30     9f30        0     1                 .L0 
    9f48     9f48        0     1                 .L0 
    9f60     9f60        0     1                 .L0 
    9f78     9f78        0     1                 .L0 
    9f90     9f90        0     1                 .L0 
    9fa8     9fa8        0     1                 .L0 
    9fc0     9fc0        0     1                 .L0 
    9fd8     9fd8        0     1                 .L0 
    a000     a000        0     1                 .L0 
    a018     a018        0     1                 .L0 
    a038     a038        0     1                 .L0 
    a058     a058        0     1                 .L0 
    a080     a080        0     1                 .L0 
    a098     a098        0     1                 .L0 
    a0c0     a0c0        0     1                 .L0 
    a0d8     a0d8        0     1                 .L0 
    a0f0     a0f0        0     1                 .L0 
    a120     a120        0     1                 .L0 
    a138     a138        0     1                 .L0 
    a150     a150        0     1                 .L0 
    a168     a168        0     1                 .L0 
    a180     a180        0     1                 .L0 
    a1a0     a1a0        0     1                 .L0 
    a1b8     a1b8        0     1                 .L0 
    a1d8     a1d8        0     1                 .L0 
    a1f0     a1f0        0     1                 .L0 
    a208     a208        0     1                 .L0 
    a220     a220        0     1                 .L0 
    a238     a238        0     1                 .L0 
    a250     a250        0     1                 .L0 
    a268     a268        0     1                 .L0 
    b2d0     b2d0       18     1         /home/famous282/.rustup/toolchains/stable-x86_64-unknown-linux-gnu/lib/rustlib/riscv32imac-unknown-none-elf/lib/libcompiler_builtins-5525e237063e5553.rlib(compiler_builtins-5525e237063e5553.compiler_builtins.8129c65e379068d4-cgu.107.rcgu.o):(.debug_ranges)
    b2d0     b2d0        0     1                 .L0 
    b2d0     b2d0        0     1                 $d
    b2e8     b2e8      168     1         /home/famous282/.rustup/toolchains/stable-x86_64-unknown-linux-gnu/lib/rustlib/riscv32imac-unknown-none-elf/lib/libcompiler_builtins-5525e237063e5553.rlib(compiler_builtins-5525e237063e5553.compiler_builtins.8129c65e379068d4-cgu.017.rcgu.o):(.debug_ranges)
    b2e8     b2e8        0     1                 .L0 
    b2e8     b2e8        0     1                 $d
    b300     b300        0     1                 .L0 
    b320     b320        0     1                 .L0 
    b338     b338        0     1                 .L0 
    b350     b350        0     1                 .L0 
    b368     b368        0     1                 .L0 
    b388     b388        0     1                 .L0 
    b3a8     b3a8        0     1                 .L0 
    b3c0     b3c0        0     1                 .L0 
    b3d8     b3d8        0     1                 .L0 
    b3f0     b3f0        0     1                 .L0 
    b408     b408        0     1                 .L0 
    b420     b420        0     1                 .L0 
    b438     b438        0     1                 .L0 
    b450     b450       18     1         /home/famous282/.rustup/toolchains/stable-x86_64-unknown-linux-gnu/lib/rustlib/riscv32imac-unknown-none-elf/lib/libcompiler_builtins-5525e237063e5553.rlib(compiler_builtins-5525e237063e5553.compiler_builtins.8129c65e379068d4-cgu.173.rcgu.o):(.debug_ranges)
    b450     b450        0     1                 .L0 
    b450     b450        0     1                 $d
    b468     b468      620     1         /home/famous282/.rustup/toolchains/stable-x86_64-unknown-linux-gnu/lib/rustlib/riscv32imac-unknown-none-elf/lib/libcompiler_builtins-5525e237063e5553.rlib(compiler_builtins-5525e237063e5553.compiler_builtins.8129c65e379068d4-cgu.003.rcgu.o):(.debug_ranges)
    b468     b468        0     1                 .L0 
    b468     b468        0     1                 $d
    b480     b480        0     1                 .L0 
    b498     b498        0     1                 .L0 
    b4b0     b4b0        0     1                 .L0 
    b4c8     b4c8        0     1                 .L0 
    b4e0     b4e0        0     1                 .L0 
    b4f8     b4f8        0     1                 .L0 
    b510     b510        0     1                 .L0 
    b528     b528        0     1                 .L0 
    b540     b540        0     1                 .L0 
    b558     b558        0     1                 .L0 
    b570     b570        0     1                 .L0 
    b588     b588        0     1                 .L0 
    b5a0     b5a0        0     1                 .L0 
    b5d0     b5d0        0     1                 .L0 
    b618     b618        0     1                 .L0 
    b670     b670        0     1                 .L0 
    b6c0     b6c0        0     1                 .L0 
    b6d8     b6d8        0     1                 .L0 
    b708     b708        0     1                 .L0 
    b720     b720        0     1                 .L0 
    b738     b738        0     1                 .L0 
    b750     b750        0     1                 .L0 
    b768     b768        0     1                 .L0 
    b7b0     b7b0        0     1                 .L0 
    b7c8     b7c8        0     1                 .L0 
    b7e0     b7e0        0     1                 .L0 
    b800     b800        0     1                 .L0 
    b818     b818        0     1                 .L0 
    b830     b830        0     1                 .L0 
    b858     b858        0     1                 .L0 
    b898     b898        0     1                 .L0 
    b8b0     b8b0        0     1                 .L0 
    b8d0     b8d0        0     1                 .L0 
    b8f8     b8f8        0     1                 .L0 
    b910     b910        0     1                 .L0 
    b928     b928        0     1                 .L0 
    b940     b940        0     1                 .L0 
    b958     b958        0     1                 .L0 
    b970     b970        0     1                 .L0 
    b988     b988        0     1                 .L0 
    b9d0     b9d0        0     1                 .L0 
    b9e8     b9e8        0     1                 .L0 
    ba00     ba00        0     1                 .L0 
    ba18     ba18        0     1                 .L0 
    ba30     ba30        0     1                 .L0 
    ba48     ba48        0     1                 .L0 
    ba60     ba60        0     1                 .L0 
    ba88     ba88      1f0     1         /home/famous282/.rustup/toolchains/stable-x86_64-unknown-linux-gnu/lib/rustlib/riscv32imac-unknown-none-elf/lib/libcompiler_builtins-5525e237063e5553.rlib(compiler_builtins-5525e237063e5553.compiler_builtins.8129c65e379068d4-cgu.019.rcgu.o):(.debug_ranges)
    ba88     ba88        0     1                 .L0 
    ba88     ba88        0     1                 $d
    bab0     bab0        0     1                 .L0 
    bb00     bb00        0     1                 .L0 
    bb50     bb50        0     1                 .L0 
    bba8     bba8        0     1                 .L0 
    bbe8     bbe8        0     1                 .L0 
    bc28     bc28        0     1                 .L0 
    bc78     bc78       78     1         /home/famous282/.rustup/toolchains/stable-x86_64-unknown-linux-gnu/lib/rustlib/riscv32imac-unknown-none-elf/lib/libcompiler_builtins-5525e237063e5553.rlib(compiler_builtins-5525e237063e5553.compiler_builtins.8129c65e379068d4-cgu.178.rcgu.o):(.debug_ranges)
    bc78     bc78        0     1                 .L0 
    bc78     bc78        0     1                 $d
    bca8     bca8        0     1                 .L0 
    bcc0     bcc0        0     1                 .L0 
    bcd8     bcd8        0     1                 .L0 
    bcf0     bcf0      d30     1         /home/famous282/.rustup/toolchains/stable-x86_64-unknown-linux-gnu/lib/rustlib/riscv32imac-unknown-none-elf/lib/libcompiler_builtins-5525e237063e5553.rlib(compiler_builtins-5525e237063e5553.compiler_builtins.8129c65e379068d4-cgu.000.rcgu.o):(.debug_ranges)
    bcf0     bcf0        0     1                 .L0 
    bcf0     bcf0        0     1                 $d
    bd08     bd08        0     1                 .L0 
    bd20     bd20        0     1                 .L0 
    bd40     bd40        0     1                 .L0 
    bd60     bd60        0     1                 .L0 
    bd80     bd80        0     1                 .L0 
    be00     be00        0     1                 .L0 
    be80     be80        0     1                 .L0 
    bf28     bf28        0     1                 .L0 
    bfd0     bfd0        0     1                 .L0 
    bfe8     bfe8        0     1                 .L0 
    c028     c028        0     1                 .L0 
    c070     c070        0     1                 .L0 
    c0a0     c0a0        0     1                 .L0 
    c0e0     c0e0        0     1                 .L0 
    c148     c148        0     1                 .L0 
    c180     c180        0     1                 .L0 
    c1b0     c1b0        0     1                 .L0 
    c1d8     c1d8        0     1                 .L0 
    c1f8     c1f8        0     1                 .L0 
    c218     c218        0     1                 .L0 
    c238     c238        0     1                 .L0 
    c250     c250        0     1                 .L0 
    c288     c288        0     1                 .L0 
    c2c8     c2c8        0     1                 .L0 
    c2f0     c2f0        0     1                 .L0 
    c310     c310        0     1                 .L0 
    c348     c348        0     1                 .L0 
    c360     c360        0     1                 .L0 
    c3a0     c3a0        0     1                 .L0 
    c3b8     c3b8        0     1                 .L0 
    c3d0     c3d0        0     1                 .L0 
    c3f0     c3f0        0     1                 .L0 
    c410     c410        0     1                 .L0 
    c428     c428        0     1                 .L0 
    c450     c450        0     1                 .L0 
    c478     c478        0     1                 .L0 
    c490     c490        0     1                 .L0 
    c4e0     c4e0        0     1                 .L0 
    c4f8     c4f8        0     1                 .L0 
    c510     c510        0     1                 .L0 
    c530     c530        0     1                 .L0 
    c548     c548        0     1                 .L0 
    c568     c568        0     1                 .L0 
    c590     c590        0     1                 .L0 
    c5b0     c5b0        0     1                 .L0 
    c5c8     c5c8        0     1                 .L0 
    c5e0     c5e0        0     1                 .L0 
    c5f8     c5f8        0     1                 .L0 
    c610     c610        0     1                 .L0 
    c628     c628        0     1                 .L0 
    c668     c668        0     1                 .L0 
    c698     c698        0     1                 .L0 
    c6b8     c6b8        0     1                 .L0 
    c6d0     c6d0        0     1                 .L0 
    c6e8     c6e8        0     1                 .L0 
    c700     c700        0     1                 .L0 
    c720     c720        0     1                 .L0 
    c740     c740        0     1                 .L0 
    c760     c760        0     1                 .L0 
    c780     c780        0     1                 .L0 
    c7a0     c7a0        0     1                 .L0 
    c7b8     c7b8        0     1                 .L0 
    c7d0     c7d0        0     1                 .L0 
    c7e8     c7e8        0     1                 .L0 
    c800     c800        0     1                 .L0 
    c828     c828        0     1                 .L0 
    c848     c848        0     1                 .L0 
    c860     c860        0     1                 .L0 
    c8a8     c8a8        0     1                 .L0 
    c8c0     c8c0        0     1                 .L0 
    c8d8     c8d8        0     1                 .L0 
    c8f0     c8f0        0     1                 .L0 
    c908     c908        0     1                 .L0 
    c920     c920        0     1                 .L0 
    c938     c938        0     1                 .L0 
    c950     c950        0     1                 .L0 
    c968     c968        0     1                 .L0 
    c980     c980        0     1                 .L0 
    c998     c998        0     1                 .L0 
    c9b0     c9b0        0     1                 .L0 
    c9c8     c9c8        0     1                 .L0 
    c9e0     c9e0        0     1                 .L0 
    ca00     ca00        0     1                 .L0 
    ca20     ca20       48     1         /home/famous282/.rustup/toolchains/stable-x86_64-unknown-linux-gnu/lib/rustlib/riscv32imac-unknown-none-elf/lib/libcompiler_builtins-5525e237063e5553.rlib(compiler_builtins-5525e237063e5553.compiler_builtins.8129c65e379068d4-cgu.193.rcgu.o):(.debug_ranges)
    ca20     ca20        0     1                 .L0 
    ca20     ca20        0     1                 $d
    ca38     ca38        0     1                 .L0 
    ca50     ca50        0     1                 .L0 
    ca68     ca68       98     1         /home/famous282/.rustup/toolchains/stable-x86_64-unknown-linux-gnu/lib/rustlib/riscv32imac-unknown-none-elf/lib/libcompiler_builtins-5525e237063e5553.rlib(compiler_builtins-5525e237063e5553.compiler_builtins.8129c65e379068d4-cgu.205.rcgu.o):(.debug_ranges)
    ca68     ca68        0     1                 .L0 
    ca68     ca68        0     1                 $d
    ca88     ca88        0     1                 .L0 
    caa8     caa8        0     1                 .L0 
    cac8     cac8        0     1                 .L0 
    cae8     cae8        0     1                 .L0 
    cb00     cb00       20     1         /home/famous282/.rustup/toolchains/stable-x86_64-unknown-linux-gnu/lib/rustlib/riscv32imac-unknown-none-elf/lib/libcompiler_builtins-5525e237063e5553.rlib(compiler_builtins-5525e237063e5553.compiler_builtins.8129c65e379068d4-cgu.221.rcgu.o):(.debug_ranges)
    cb00     cb00        0     1                 .L0 
    cb00     cb00        0     1                 $d
    cb20     cb20       58     1         /home/famous282/.rustup/toolchains/stable-x86_64-unknown-linux-gnu/lib/rustlib/riscv32imac-unknown-none-elf/lib/libcompiler_builtins-5525e237063e5553.rlib(compiler_builtins-5525e237063e5553.compiler_builtins.8129c65e379068d4-cgu.248.rcgu.o):(.debug_ranges)
    cb20     cb20        0     1                 .L0 
    cb20     cb20        0     1                 $d
    cb38     cb38        0     1                 .L0 
    cb58     cb58        0     1                 .L0 
    cb78     cb78       60     1         /home/famous282/.rustup/toolchains/stable-x86_64-unknown-linux-gnu/lib/rustlib/riscv32imac-unknown-none-elf/lib/libcompiler_builtins-5525e237063e5553.rlib(compiler_builtins-5525e237063e5553.compiler_builtins.8129c65e379068d4-cgu.249.rcgu.o):(.debug_ranges)
    cb78     cb78        0     1                 .L0 
    cb78     cb78        0     1                 $d
    cb90     cb90        0     1                 .L0 
    cba8     cba8        0     1                 .L0 
    cbc0     cbc0        0     1                 .L0 
    cbd8     cbd8      3b0     1         /home/famous282/.rustup/toolchains/stable-x86_64-unknown-linux-gnu/lib/rustlib/riscv32imac-unknown-none-elf/lib/libcompiler_builtins-5525e237063e5553.rlib(compiler_builtins-5525e237063e5553.compiler_builtins.8129c65e379068d4-cgu.012.rcgu.o):(.debug_ranges)
    cbd8     cbd8        0     1                 .L0 
    cbd8     cbd8        0     1                 $d
    cbf0     cbf0        0     1                 .L0 
    cc08     cc08        0     1                 .L0 
    cc28     cc28        0     1                 .L0 
    cc48     cc48        0     1                 .L0 
    cc60     cc60        0     1                 .L0 
    cc78     cc78        0     1                 .L0 
    cc90     cc90        0     1                 .L0 
    cca8     cca8        0     1                 .L0 
    ccc0     ccc0        0     1                 .L0 
    ccd8     ccd8        0     1                 .L0 
    ccf0     ccf0        0     1                 .L0 
    cd08     cd08        0     1                 .L0 
    cd38     cd38        0     1                 .L0 
    cd50     cd50        0     1                 .L0 
    cd70     cd70        0     1                 .L0 
    cd98     cd98        0     1                 .L0 
    cdb8     cdb8        0     1                 .L0 
    cdd8     cdd8        0     1                 .L0 
    cdf0     cdf0        0     1                 .L0 
    ce08     ce08        0     1                 .L0 
    ce28     ce28        0     1                 .L0 
    ce48     ce48        0     1                 .L0 
    ce70     ce70        0     1                 .L0 
    ce88     ce88        0     1                 .L0 
    cea0     cea0        0     1                 .L0 
    cec0     cec0        0     1                 .L0 
    cee0     cee0        0     1                 .L0 
    cef8     cef8        0     1                 .L0 
    cf10     cf10        0     1                 .L0 
    cf28     cf28        0     1                 .L0 
    cf48     cf48        0     1                 .L0 
    cf68     cf68        0     1                 .L0 
    cf88     cf88       68     1         /home/famous282/.rustup/toolchains/stable-x86_64-unknown-linux-gnu/lib/rustlib/riscv32imac-unknown-none-elf/lib/libcompiler_builtins-5525e237063e5553.rlib(compiler_builtins-5525e237063e5553.compiler_builtins.8129c65e379068d4-cgu.295.rcgu.o):(.debug_ranges)
    cf88     cf88        0     1                 .L0 
    cf88     cf88        0     1                 $d
    cfa8     cfa8        0     1                 .L0 
    cfc0     cfc0        0     1                 .L0 
    cfd8     cfd8        0     1                 .L0 
    cff0     cff0       78     1         /home/famous282/.rustup/toolchains/stable-x86_64-unknown-linux-gnu/lib/rustlib/riscv32imac-unknown-none-elf/lib/libcompiler_builtins-5525e237063e5553.rlib(compiler_builtins-5525e237063e5553.compiler_builtins.8129c65e379068d4-cgu.314.rcgu.o):(.debug_ranges)
    cff0     cff0        0     1                 .L0 
    cff0     cff0        0     1                 $d
    d020     d020        0     1                 .L0 
    d038     d038        0     1                 .L0 
    d050     d050        0     1                 .L0 
    d068     d068       20     1         /home/famous282/.rustup/toolchains/stable-x86_64-unknown-linux-gnu/lib/rustlib/riscv32imac-unknown-none-elf/lib/libcompiler_builtins-5525e237063e5553.rlib(compiler_builtins-5525e237063e5553.compiler_builtins.8129c65e379068d4-cgu.326.rcgu.o):(.debug_ranges)
    d068     d068        0     1                 .L0 
    d068     d068        0     1                 $d
    d088     d088       20     1         /home/famous282/.rustup/toolchains/stable-x86_64-unknown-linux-gnu/lib/rustlib/riscv32imac-unknown-none-elf/lib/libcompiler_builtins-5525e237063e5553.rlib(compiler_builtins-5525e237063e5553.compiler_builtins.8129c65e379068d4-cgu.328.rcgu.o):(.debug_ranges)
    d088     d088        0     1                 .L0 
    d088     d088        0     1                 $d
    d0a8     d0a8       d8     1         /home/famous282/.rustup/toolchains/stable-x86_64-unknown-linux-gnu/lib/rustlib/riscv32imac-unknown-none-elf/lib/libcompiler_builtins-5525e237063e5553.rlib(compiler_builtins-5525e237063e5553.compiler_builtins.8129c65e379068d4-cgu.330.rcgu.o):(.debug_ranges)
    d0a8     d0a8        0     1                 .L0 
    d0a8     d0a8        0     1                 $d
    d0e8     d0e8        0     1                 .L0 
    d128     d128        0     1                 .L0 
    d168     d168        0     1                 .L0 
       0        0    4312e     1 .debug_str
       0        0    4312e     1         <internal>:(.debug_str)
       0        0       8b     1 .comment
       0        0       8b     1         <internal>:(.comment)
       0        0       4e     1 .riscv.attributes
       0        0       4e     1         <internal>:(.riscv.attributes)
       0        0      1e0     4 .debug_frame
       0        0       84     4         /home/famous282/1000linesOS/kernel/target/riscv32imac-unknown-none-elf/debug/deps/kernel-dfa3df23995ef8b4.24qdkavsqt2e6ckh6joba0u2j.1g4k02t.rcgu.o:(.debug_frame)
       0        0        0     1                 .L0 
       0        0        0     1                 $d
      84       84       40     4         /home/famous282/1000linesOS/kernel/target/riscv32imac-unknown-none-elf/debug/deps/kernel-dfa3df23995ef8b4.3lszhsxzyn1vde1rs4win02um.1g4k02t.rcgu.o:(.debug_frame)
      84       84        0     1                 .L0 
      84       84        0     1                 $d
      c4       c4       24     4         /home/famous282/1000linesOS/kernel/target/riscv32imac-unknown-none-elf/debug/deps/kernel-dfa3df23995ef8b4.4ftrnxq5k2ijxu6ko4fxfrcj8.1g4k02t.rcgu.o:(.debug_frame)
      c4       c4        0     1                 .L0 
      c4       c4        0     1                 $d
      e8       e8       3c     4         /home/famous282/1000linesOS/kernel/target/riscv32imac-unknown-none-elf/debug/deps/kernel-dfa3df23995ef8b4.63ptxjvpldbz03i077ow9897u.1g4k02t.rcgu.o:(.debug_frame)
      e8       e8        0     1                 .L0 
      e8       e8        0     1                 $d
     124      124       2c     4         /home/famous282/1000linesOS/kernel/target/riscv32imac-unknown-none-elf/debug/deps/kernel-dfa3df23995ef8b4.aqtcxbzy89ozo9dgld6fn0q5h.1g4k02t.rcgu.o:(.debug_frame)
     124      124        0     1                 .L0 
     124      124        0     1                 $d
     150      150       58     4         /home/famous282/1000linesOS/kernel/target/riscv32imac-unknown-none-elf/debug/deps/kernel-dfa3df23995ef8b4.b1wfjfrxrno1sga9zbdwiqldk.1g4k02t.rcgu.o:(.debug_frame)
     150      150        0     1                 .L0 
     150      150        0     1                 $d
     1a8      1a8       38     4         /home/famous282/1000linesOS/kernel/target/riscv32imac-unknown-none-elf/debug/deps/kernel-dfa3df23995ef8b4.bd4aykr3vnli855y8j4uib0hb.1g4k02t.rcgu.o:(.debug_frame)
     1a8      1a8        0     1                 .L0 
     1a8      1a8        0     1                 $d
       0        0    2365a     1 .debug_line
       0        0      482     1         /home/famous282/1000linesOS/kernel/target/riscv32imac-unknown-none-elf/debug/deps/kernel-dfa3df23995ef8b4.24qdkavsqt2e6ckh6joba0u2j.1g4k02t.rcgu.o:(.debug_line)
       0        0        0     1                 .Lline_table_start0
       0        0        0     1                 $d
     3c0      3c0        0     1                 .Lline_table_start1
     455      455        0     1                 .Lline_table_start2
     482      482      1d6     1         /home/famous282/1000linesOS/kernel/target/riscv32imac-unknown-none-elf/debug/deps/kernel-dfa3df23995ef8b4.3lszhsxzyn1vde1rs4win02um.1g4k02t.rcgu.o:(.debug_line)
     482      482        0     1                 .Lline_table_start0
     482      482        0     1                 $d
     658      658       ac     1         /home/famous282/1000linesOS/kernel/target/riscv32imac-unknown-none-elf/debug/deps/kernel-dfa3df23995ef8b4.4ftrnxq5k2ijxu6ko4fxfrcj8.1g4k02t.rcgu.o:(.debug_line)
     658      658        0     1                 .Lline_table_start0
     658      658        0     1                 $d
     704      704      37d     1         /home/famous282/1000linesOS/kernel/target/riscv32imac-unknown-none-elf/debug/deps/kernel-dfa3df23995ef8b4.63ptxjvpldbz03i077ow9897u.1g4k02t.rcgu.o:(.debug_line)
     704      704        0     1                 .Lline_table_start0
     704      704        0     1                 $d
     953      953        0     1                 .Lline_table_start1
     a81      a81      17e     1         /home/famous282/1000linesOS/kernel/target/riscv32imac-unknown-none-elf/debug/deps/kernel-dfa3df23995ef8b4.aqtcxbzy89ozo9dgld6fn0q5h.1g4k02t.rcgu.o:(.debug_line)
     a81      a81        0     1                 .Lline_table_start0
     a81      a81        0     1                 $d
     b6a      b6a        0     1                 .Lline_table_start1
     bff      bff      3fd     1         /home/famous282/1000linesOS/kernel/target/riscv32imac-unknown-none-elf/debug/deps/kernel-dfa3df23995ef8b4.b1wfjfrxrno1sga9zbdwiqldk.1g4k02t.rcgu.o:(.debug_line)
     bff      bff        0     1                 .Lline_table_start0
     bff      bff        0     1                 $d
     ffc      ffc       88     1         /home/famous282/1000linesOS/kernel/target/riscv32imac-unknown-none-elf/debug/deps/kernel-dfa3df23995ef8b4.bd4aykr3vnli855y8j4uib0hb.1g4k02t.rcgu.o:(.debug_line)
     ffc      ffc        0     1                 .Lline_table_start0
     ffc      ffc        0     1                 $d
    1084     1084    1bb15     1         /home/famous282/.rustup/toolchains/stable-x86_64-unknown-linux-gnu/lib/rustlib/riscv32imac-unknown-none-elf/lib/libcore-36e1cca942c0a58a.rlib(core-36e1cca942c0a58a.core.283c90c5601d86be-cgu.0.rcgu.o):(.debug_line)
    1084     1084        0     1                 .Lline_table_start0
    1084     1084        0     1                 $d
   1cb99    1cb99       eb     1         /home/famous282/.rustup/toolchains/stable-x86_64-unknown-linux-gnu/lib/rustlib/riscv32imac-unknown-none-elf/lib/libcompiler_builtins-5525e237063e5553.rlib(compiler_builtins-5525e237063e5553.compiler_builtins.8129c65e379068d4-cgu.107.rcgu.o):(.debug_line)
   1cb99    1cb99        0     1                 .Lline_table_start0
   1cb99    1cb99        0     1                 $d
   1cc84    1cc84      11d     1         /home/famous282/.rustup/toolchains/stable-x86_64-unknown-linux-gnu/lib/rustlib/riscv32imac-unknown-none-elf/lib/libcompiler_builtins-5525e237063e5553.rlib(compiler_builtins-5525e237063e5553.compiler_builtins.8129c65e379068d4-cgu.163.rcgu.o):(.debug_line)
   1cc84    1cc84        0     1                 .Lline_table_start0
   1cc84    1cc84        0     1                 $d
   1cd46    1cd46        0     1                 .Lline_table_start1
   1cda1    1cda1      a08     1         /home/famous282/.rustup/toolchains/stable-x86_64-unknown-linux-gnu/lib/rustlib/riscv32imac-unknown-none-elf/lib/libcompiler_builtins-5525e237063e5553.rlib(compiler_builtins-5525e237063e5553.compiler_builtins.8129c65e379068d4-cgu.017.rcgu.o):(.debug_line)
   1cda1    1cda1        0     1                 .Lline_table_start0
   1cda1    1cda1        0     1                 $d
   1d7a9    1d7a9      230     1         /home/famous282/.rustup/toolchains/stable-x86_64-unknown-linux-gnu/lib/rustlib/riscv32imac-unknown-none-elf/lib/libcompiler_builtins-5525e237063e5553.rlib(compiler_builtins-5525e237063e5553.compiler_builtins.8129c65e379068d4-cgu.173.rcgu.o):(.debug_line)
   1d7a9    1d7a9        0     1                 .Lline_table_start0
   1d7a9    1d7a9        0     1                 $d
   1d904    1d904        0     1                 .Lline_table_start1
   1d9d9    1d9d9       6e     1         /home/famous282/.rustup/toolchains/stable-x86_64-unknown-linux-gnu/lib/rustlib/riscv32imac-unknown-none-elf/lib/libcompiler_builtins-5525e237063e5553.rlib(compiler_builtins-5525e237063e5553.compiler_builtins.8129c65e379068d4-cgu.177.rcgu.o):(.debug_line)
   1d9d9    1d9d9        0     1                 .Lline_table_start0
   1d9d9    1d9d9        0     1                 $d
   1da47    1da47     125d     1         /home/famous282/.rustup/toolchains/stable-x86_64-unknown-linux-gnu/lib/rustlib/riscv32imac-unknown-none-elf/lib/libcompiler_builtins-5525e237063e5553.rlib(compiler_builtins-5525e237063e5553.compiler_builtins.8129c65e379068d4-cgu.003.rcgu.o):(.debug_line)
   1da47    1da47        0     1                 .Lline_table_start0
   1da47    1da47        0     1                 $d
   1eb5d    1eb5d        0     1                 .Lline_table_start1
   1ebbc    1ebbc        0     1                 .Lline_table_start2
   1ec46    1ec46        0     1                 .Lline_table_start3
   1eca4    1eca4      6ae     1         /home/famous282/.rustup/toolchains/stable-x86_64-unknown-linux-gnu/lib/rustlib/riscv32imac-unknown-none-elf/lib/libcompiler_builtins-5525e237063e5553.rlib(compiler_builtins-5525e237063e5553.compiler_builtins.8129c65e379068d4-cgu.019.rcgu.o):(.debug_line)
   1eca4    1eca4        0     1                 .Lline_table_start0
   1eca4    1eca4        0     1                 $d
   1f2f4    1f2f4        0     1                 .Lline_table_start1
   1f352    1f352      2d2     1         /home/famous282/.rustup/toolchains/stable-x86_64-unknown-linux-gnu/lib/rustlib/riscv32imac-unknown-none-elf/lib/libcompiler_builtins-5525e237063e5553.rlib(compiler_builtins-5525e237063e5553.compiler_builtins.8129c65e379068d4-cgu.178.rcgu.o):(.debug_line)
   1f352    1f352        0     1                 .Lline_table_start0
   1f352    1f352        0     1                 $d
   1f54f    1f54f        0     1                 .Lline_table_start1
   1f624    1f624      118     1         /home/famous282/.rustup/toolchains/stable-x86_64-unknown-linux-gnu/lib/rustlib/riscv32imac-unknown-none-elf/lib/libcompiler_builtins-5525e237063e5553.rlib(compiler_builtins-5525e237063e5553.compiler_builtins.8129c65e379068d4-cgu.184.rcgu.o):(.debug_line)
   1f624    1f624        0     1                 .Lline_table_start0
   1f624    1f624        0     1                 $d
   1f6e1    1f6e1        0     1                 .Lline_table_start1
   1f73c    1f73c       6e     1         /home/famous282/.rustup/toolchains/stable-x86_64-unknown-linux-gnu/lib/rustlib/riscv32imac-unknown-none-elf/lib/libcompiler_builtins-5525e237063e5553.rlib(compiler_builtins-5525e237063e5553.compiler_builtins.8129c65e379068d4-cgu.192.rcgu.o):(.debug_line)
   1f73c    1f73c        0     1                 .Lline_table_start0
   1f73c    1f73c        0     1                 $d
   1f7aa    1f7aa     14de     1         /home/famous282/.rustup/toolchains/stable-x86_64-unknown-linux-gnu/lib/rustlib/riscv32imac-unknown-none-elf/lib/libcompiler_builtins-5525e237063e5553.rlib(compiler_builtins-5525e237063e5553.compiler_builtins.8129c65e379068d4-cgu.000.rcgu.o):(.debug_line)
   1f7aa    1f7aa        0     1                 .Lline_table_start0
   1f7aa    1f7aa        0     1                 $d
   20c2c    20c2c        0     1                 .Lline_table_start1
   20c88    20c88      2f6     1         /home/famous282/.rustup/toolchains/stable-x86_64-unknown-linux-gnu/lib/rustlib/riscv32imac-unknown-none-elf/lib/libcompiler_builtins-5525e237063e5553.rlib(compiler_builtins-5525e237063e5553.compiler_builtins.8129c65e379068d4-cgu.193.rcgu.o):(.debug_line)
   20c88    20c88        0     1                 .Lline_table_start0
   20c88    20c88        0     1                 $d
   20e73    20e73        0     1                 .Lline_table_start1
   20f7e    20f7e      3a2     1         /home/famous282/.rustup/toolchains/stable-x86_64-unknown-linux-gnu/lib/rustlib/riscv32imac-unknown-none-elf/lib/libcompiler_builtins-5525e237063e5553.rlib(compiler_builtins-5525e237063e5553.compiler_builtins.8129c65e379068d4-cgu.205.rcgu.o):(.debug_line)
   20f7e    20f7e        0     1                 .Lline_table_start0
   20f7e    20f7e        0     1                 $d
   211ed    211ed        0     1                 .Lline_table_start1
   21320    21320      245     1         /home/famous282/.rustup/toolchains/stable-x86_64-unknown-linux-gnu/lib/rustlib/riscv32imac-unknown-none-elf/lib/libcompiler_builtins-5525e237063e5553.rlib(compiler_builtins-5525e237063e5553.compiler_builtins.8129c65e379068d4-cgu.221.rcgu.o):(.debug_line)
   21320    21320        0     1                 .Lline_table_start0
   21320    21320        0     1                 $d
   21490    21490        0     1                 .Lline_table_start1
   21565    21565      118     1         /home/famous282/.rustup/toolchains/stable-x86_64-unknown-linux-gnu/lib/rustlib/riscv32imac-unknown-none-elf/lib/libcompiler_builtins-5525e237063e5553.rlib(compiler_builtins-5525e237063e5553.compiler_builtins.8129c65e379068d4-cgu.247.rcgu.o):(.debug_line)
   21565    21565        0     1                 .Lline_table_start0
   21565    21565        0     1                 $d
   21622    21622        0     1                 .Lline_table_start1
   2167d    2167d      2c0     1         /home/famous282/.rustup/toolchains/stable-x86_64-unknown-linux-gnu/lib/rustlib/riscv32imac-unknown-none-elf/lib/libcompiler_builtins-5525e237063e5553.rlib(compiler_builtins-5525e237063e5553.compiler_builtins.8129c65e379068d4-cgu.248.rcgu.o):(.debug_line)
   2167d    2167d        0     1                 .Lline_table_start0
   2167d    2167d        0     1                 $d
   21831    21831        0     1                 .Lline_table_start1
   218e2    218e2        0     1                 .Lline_table_start2
   2193d    2193d      2b9     1         /home/famous282/.rustup/toolchains/stable-x86_64-unknown-linux-gnu/lib/rustlib/riscv32imac-unknown-none-elf/lib/libcompiler_builtins-5525e237063e5553.rlib(compiler_builtins-5525e237063e5553.compiler_builtins.8129c65e379068d4-cgu.249.rcgu.o):(.debug_line)
   2193d    2193d        0     1                 .Lline_table_start0
   2193d    2193d        0     1                 $d
   21aea    21aea        0     1                 .Lline_table_start1
   21b9b    21b9b        0     1                 .Lline_table_start2
   21bf6    21bf6      11d     1         /home/famous282/.rustup/toolchains/stable-x86_64-unknown-linux-gnu/lib/rustlib/riscv32imac-unknown-none-elf/lib/libcompiler_builtins-5525e237063e5553.rlib(compiler_builtins-5525e237063e5553.compiler_builtins.8129c65e379068d4-cgu.256.rcgu.o):(.debug_line)
   21bf6    21bf6        0     1                 .Lline_table_start0
   21bf6    21bf6        0     1                 $d
   21cb8    21cb8        0     1                 .Lline_table_start1
   21d13    21d13       6e     1         /home/famous282/.rustup/toolchains/stable-x86_64-unknown-linux-gnu/lib/rustlib/riscv32imac-unknown-none-elf/lib/libcompiler_builtins-5525e237063e5553.rlib(compiler_builtins-5525e237063e5553.compiler_builtins.8129c65e379068d4-cgu.264.rcgu.o):(.debug_line)
   21d13    21d13        0     1                 .Lline_table_start0
   21d13    21d13        0     1                 $d
   21d81    21d81      971     1         /home/famous282/.rustup/toolchains/stable-x86_64-unknown-linux-gnu/lib/rustlib/riscv32imac-unknown-none-elf/lib/libcompiler_builtins-5525e237063e5553.rlib(compiler_builtins-5525e237063e5553.compiler_builtins.8129c65e379068d4-cgu.012.rcgu.o):(.debug_line)
   21d81    21d81        0     1                 .Lline_table_start0
   21d81    21d81        0     1                 $d
   226f2    226f2      2bc     1         /home/famous282/.rustup/toolchains/stable-x86_64-unknown-linux-gnu/lib/rustlib/riscv32imac-unknown-none-elf/lib/libcompiler_builtins-5525e237063e5553.rlib(compiler_builtins-5525e237063e5553.compiler_builtins.8129c65e379068d4-cgu.295.rcgu.o):(.debug_line)
   226f2    226f2        0     1                 .Lline_table_start0
   226f2    226f2        0     1                 $d
   228d9    228d9        0     1                 .Lline_table_start1
   229ae    229ae      2d2     1         /home/famous282/.rustup/toolchains/stable-x86_64-unknown-linux-gnu/lib/rustlib/riscv32imac-unknown-none-elf/lib/libcompiler_builtins-5525e237063e5553.rlib(compiler_builtins-5525e237063e5553.compiler_builtins.8129c65e379068d4-cgu.314.rcgu.o):(.debug_line)
   229ae    229ae        0     1                 .Lline_table_start0
   229ae    229ae        0     1                 $d
   22bab    22bab        0     1                 .Lline_table_start1
   22c80    22c80       6e     1         /home/famous282/.rustup/toolchains/stable-x86_64-unknown-linux-gnu/lib/rustlib/riscv32imac-unknown-none-elf/lib/libcompiler_builtins-5525e237063e5553.rlib(compiler_builtins-5525e237063e5553.compiler_builtins.8129c65e379068d4-cgu.322.rcgu.o):(.debug_line)
   22c80    22c80        0     1                 .Lline_table_start0
   22c80    22c80        0     1                 $d
   22cee    22cee      245     1         /home/famous282/.rustup/toolchains/stable-x86_64-unknown-linux-gnu/lib/rustlib/riscv32imac-unknown-none-elf/lib/libcompiler_builtins-5525e237063e5553.rlib(compiler_builtins-5525e237063e5553.compiler_builtins.8129c65e379068d4-cgu.326.rcgu.o):(.debug_line)
   22cee    22cee        0     1                 .Lline_table_start0
   22cee    22cee        0     1                 $d
   22e5e    22e5e        0     1                 .Lline_table_start1
   22f33    22f33      245     1         /home/famous282/.rustup/toolchains/stable-x86_64-unknown-linux-gnu/lib/rustlib/riscv32imac-unknown-none-elf/lib/libcompiler_builtins-5525e237063e5553.rlib(compiler_builtins-5525e237063e5553.compiler_builtins.8129c65e379068d4-cgu.328.rcgu.o):(.debug_line)
   22f33    22f33        0     1                 .Lline_table_start0
   22f33    22f33        0     1                 $d
   230a3    230a3        0     1                 .Lline_table_start1
   23178    23178      474     1         /home/famous282/.rustup/toolchains/stable-x86_64-unknown-linux-gnu/lib/rustlib/riscv32imac-unknown-none-elf/lib/libcompiler_builtins-5525e237063e5553.rlib(compiler_builtins-5525e237063e5553.compiler_builtins.8129c65e379068d4-cgu.330.rcgu.o):(.debug_line)
   23178    23178        0     1                 .Lline_table_start0
   23178    23178        0     1                 $d
   234ba    234ba        0     1                 .Lline_table_start1
   235ec    235ec       6e     1         /home/famous282/.rustup/toolchains/stable-x86_64-unknown-linux-gnu/lib/rustlib/riscv32imac-unknown-none-elf/lib/libcompiler_builtins-5525e237063e5553.rlib(compiler_builtins-5525e237063e5553.compiler_builtins.8129c65e379068d4-cgu.336.rcgu.o):(.debug_line)
   235ec    235ec        0     1                 .Lline_table_start0
   235ec    235ec        0     1                 $d
       0        0     b500     4 .symtab
       0        0     b500     4         <internal>:(.symtab)
       0        0       bf     1 .shstrtab
       0        0       bf     1         <internal>:(.shstrtab)
       0        0     4b86     1 .strtab
       0        0     4b86     1         <internal>:(.strtab)
